Archive member included because of file (symbol)

/package/eda/altera/altera13.0sp1/nios2eds/bin/gnu/H-i686-pc-linux-gnu/bin/../lib/gcc/nios2-elf/4.1.2/mno-hw-mul/libgcc.a(_addsub_sf.o)
                              obj/default/jfdctflt.o (__subsf3)
/package/eda/altera/altera13.0sp1/nios2eds/bin/gnu/H-i686-pc-linux-gnu/bin/../lib/gcc/nios2-elf/4.1.2/mno-hw-mul/libgcc.a(_mul_sf.o)
                              obj/default/jcdctmgr.o (__mulsf3)
/package/eda/altera/altera13.0sp1/nios2eds/bin/gnu/H-i686-pc-linux-gnu/bin/../lib/gcc/nios2-elf/4.1.2/mno-hw-mul/libgcc.a(_si_to_sf.o)
                              obj/default/jcdctmgr.o (__floatsisf)
/package/eda/altera/altera13.0sp1/nios2eds/bin/gnu/H-i686-pc-linux-gnu/bin/../lib/gcc/nios2-elf/4.1.2/mno-hw-mul/libgcc.a(_sf_to_si.o)
                              obj/default/jcdctmgr.o (__fixsfsi)
/package/eda/altera/altera13.0sp1/nios2eds/bin/gnu/H-i686-pc-linux-gnu/bin/../lib/gcc/nios2-elf/4.1.2/mno-hw-mul/libgcc.a(_thenan_sf.o)
                              /package/eda/altera/altera13.0sp1/nios2eds/bin/gnu/H-i686-pc-linux-gnu/bin/../lib/gcc/nios2-elf/4.1.2/mno-hw-mul/libgcc.a(_addsub_sf.o) (__thenan_sf)
/package/eda/altera/altera13.0sp1/nios2eds/bin/gnu/H-i686-pc-linux-gnu/bin/../lib/gcc/nios2-elf/4.1.2/mno-hw-mul/libgcc.a(_mul_df.o)
                              obj/default/jcdctmgr.o (__muldf3)
/package/eda/altera/altera13.0sp1/nios2eds/bin/gnu/H-i686-pc-linux-gnu/bin/../lib/gcc/nios2-elf/4.1.2/mno-hw-mul/libgcc.a(_div_df.o)
                              obj/default/jcdctmgr.o (__divdf3)
/package/eda/altera/altera13.0sp1/nios2eds/bin/gnu/H-i686-pc-linux-gnu/bin/../lib/gcc/nios2-elf/4.1.2/mno-hw-mul/libgcc.a(_df_to_sf.o)
                              obj/default/jcdctmgr.o (__truncdfsf2)
/package/eda/altera/altera13.0sp1/nios2eds/bin/gnu/H-i686-pc-linux-gnu/bin/../lib/gcc/nios2-elf/4.1.2/mno-hw-mul/libgcc.a(_thenan_df.o)
                              /package/eda/altera/altera13.0sp1/nios2eds/bin/gnu/H-i686-pc-linux-gnu/bin/../lib/gcc/nios2-elf/4.1.2/mno-hw-mul/libgcc.a(_mul_df.o) (__thenan_df)
/package/eda/altera/altera13.0sp1/nios2eds/bin/gnu/H-i686-pc-linux-gnu/bin/../lib/gcc/nios2-elf/4.1.2/mno-hw-mul/libgcc.a(_usi_to_df.o)
                              obj/default/jcdctmgr.o (__floatunsidf)
/package/eda/altera/altera13.0sp1/nios2eds/bin/gnu/H-i686-pc-linux-gnu/bin/../lib/gcc/nios2-elf/4.1.2/mno-hw-mul/libgcc.a(lib2-divmod.o)
                              obj/default/jcdctmgr.o (__divsi3)
/package/eda/altera/altera13.0sp1/nios2eds/bin/gnu/H-i686-pc-linux-gnu/bin/../lib/gcc/nios2-elf/4.1.2/mno-hw-mul/libgcc.a(lib2-mul.o)
                              obj/default/djpeg.o (__mulsi3)
/package/eda/altera/altera13.0sp1/nios2eds/bin/gnu/H-i686-pc-linux-gnu/bin/../lib/gcc/nios2-elf/4.1.2/mno-hw-mul/libgcc.a(_muldi3.o)
                              /package/eda/altera/altera13.0sp1/nios2eds/bin/gnu/H-i686-pc-linux-gnu/bin/../lib/gcc/nios2-elf/4.1.2/mno-hw-mul/libgcc.a(_mul_sf.o) (__muldi3)
/package/eda/altera/altera13.0sp1/nios2eds/bin/gnu/H-i686-pc-linux-gnu/bin/../lib/gcc/nios2-elf/4.1.2/mno-hw-mul/libgcc.a(_clzsi2.o)
                              /package/eda/altera/altera13.0sp1/nios2eds/bin/gnu/H-i686-pc-linux-gnu/bin/../lib/gcc/nios2-elf/4.1.2/mno-hw-mul/libgcc.a(_si_to_sf.o) (__clzsi2)
/package/eda/altera/altera13.0sp1/nios2eds/bin/gnu/H-i686-pc-linux-gnu/bin/../lib/gcc/nios2-elf/4.1.2/mno-hw-mul/libgcc.a(_pack_sf.o)
                              /package/eda/altera/altera13.0sp1/nios2eds/bin/gnu/H-i686-pc-linux-gnu/bin/../lib/gcc/nios2-elf/4.1.2/mno-hw-mul/libgcc.a(_addsub_sf.o) (__pack_f)
/package/eda/altera/altera13.0sp1/nios2eds/bin/gnu/H-i686-pc-linux-gnu/bin/../lib/gcc/nios2-elf/4.1.2/mno-hw-mul/libgcc.a(_unpack_sf.o)
                              /package/eda/altera/altera13.0sp1/nios2eds/bin/gnu/H-i686-pc-linux-gnu/bin/../lib/gcc/nios2-elf/4.1.2/mno-hw-mul/libgcc.a(_addsub_sf.o) (__unpack_f)
/package/eda/altera/altera13.0sp1/nios2eds/bin/gnu/H-i686-pc-linux-gnu/bin/../lib/gcc/nios2-elf/4.1.2/mno-hw-mul/libgcc.a(_make_sf.o)
                              /package/eda/altera/altera13.0sp1/nios2eds/bin/gnu/H-i686-pc-linux-gnu/bin/../lib/gcc/nios2-elf/4.1.2/mno-hw-mul/libgcc.a(_df_to_sf.o) (__make_fp)
/package/eda/altera/altera13.0sp1/nios2eds/bin/gnu/H-i686-pc-linux-gnu/bin/../lib/gcc/nios2-elf/4.1.2/mno-hw-mul/libgcc.a(_pack_df.o)
                              /package/eda/altera/altera13.0sp1/nios2eds/bin/gnu/H-i686-pc-linux-gnu/bin/../lib/gcc/nios2-elf/4.1.2/mno-hw-mul/libgcc.a(_mul_df.o) (__pack_d)
/package/eda/altera/altera13.0sp1/nios2eds/bin/gnu/H-i686-pc-linux-gnu/bin/../lib/gcc/nios2-elf/4.1.2/mno-hw-mul/libgcc.a(_unpack_df.o)
                              /package/eda/altera/altera13.0sp1/nios2eds/bin/gnu/H-i686-pc-linux-gnu/bin/../lib/gcc/nios2-elf/4.1.2/mno-hw-mul/libgcc.a(_mul_df.o) (__unpack_d)
/package/eda/altera/altera13.0sp1/nios2eds/bin/gnu/H-i686-pc-linux-gnu/bin/../lib/gcc/nios2-elf/4.1.2/mno-hw-mul/libgcc.a(_clz.o)
                              /package/eda/altera/altera13.0sp1/nios2eds/bin/gnu/H-i686-pc-linux-gnu/bin/../lib/gcc/nios2-elf/4.1.2/mno-hw-mul/libgcc.a(_clzsi2.o) (__clz_tab)
/package/eda/altera/altera13.0sp1/nios2eds/bin/gnu/H-i686-pc-linux-gnu/bin/../lib/gcc/nios2-elf/4.1.2/../../../../nios2-elf/lib/mno-hw-mul/libc.a(lib_a-ctype_.o)
                              obj/default/cdjpeg.o (__ctype_ptr)
/package/eda/altera/altera13.0sp1/nios2eds/bin/gnu/H-i686-pc-linux-gnu/bin/../lib/gcc/nios2-elf/4.1.2/../../../../nios2-elf/lib/mno-hw-mul/libc.a(lib_a-exit.o)
                              obj/default/djpeg.o (exit)
/package/eda/altera/altera13.0sp1/nios2eds/bin/gnu/H-i686-pc-linux-gnu/bin/../lib/gcc/nios2-elf/4.1.2/../../../../nios2-elf/lib/mno-hw-mul/libc.a(lib_a-fclose.o)
                              obj/default/djpeg.o (fclose)
/package/eda/altera/altera13.0sp1/nios2eds/bin/gnu/H-i686-pc-linux-gnu/bin/../lib/gcc/nios2-elf/4.1.2/../../../../nios2-elf/lib/mno-hw-mul/libc.a(lib_a-fflush.o)
                              /package/eda/altera/altera13.0sp1/nios2eds/bin/gnu/H-i686-pc-linux-gnu/bin/../lib/gcc/nios2-elf/4.1.2/../../../../nios2-elf/lib/mno-hw-mul/libc.a(lib_a-fclose.o) (_fflush_r)
/package/eda/altera/altera13.0sp1/nios2eds/bin/gnu/H-i686-pc-linux-gnu/bin/../lib/gcc/nios2-elf/4.1.2/../../../../nios2-elf/lib/mno-hw-mul/libc.a(lib_a-findfp.o)
                              /package/eda/altera/altera13.0sp1/nios2eds/bin/gnu/H-i686-pc-linux-gnu/bin/../lib/gcc/nios2-elf/4.1.2/../../../../nios2-elf/lib/mno-hw-mul/libc.a(lib_a-fclose.o) (__sfp_lock_acquire)
/package/eda/altera/altera13.0sp1/nios2eds/bin/gnu/H-i686-pc-linux-gnu/bin/../lib/gcc/nios2-elf/4.1.2/../../../../nios2-elf/lib/mno-hw-mul/libc.a(lib_a-fopen.o)
                              obj/default/djpeg.o (fopen)
/package/eda/altera/altera13.0sp1/nios2eds/bin/gnu/H-i686-pc-linux-gnu/bin/../lib/gcc/nios2-elf/4.1.2/../../../../nios2-elf/lib/mno-hw-mul/libc.a(lib_a-fprintf.o)
                              obj/default/djpeg.o (fprintf)
/package/eda/altera/altera13.0sp1/nios2eds/bin/gnu/H-i686-pc-linux-gnu/bin/../lib/gcc/nios2-elf/4.1.2/../../../../nios2-elf/lib/mno-hw-mul/libc.a(lib_a-fputc.o)
                              obj/default/djpeg.o (fputc)
/package/eda/altera/altera13.0sp1/nios2eds/bin/gnu/H-i686-pc-linux-gnu/bin/../lib/gcc/nios2-elf/4.1.2/../../../../nios2-elf/lib/mno-hw-mul/libc.a(lib_a-fread.o)
                              obj/default/jdatasrc.o (fread)
/package/eda/altera/altera13.0sp1/nios2eds/bin/gnu/H-i686-pc-linux-gnu/bin/../lib/gcc/nios2-elf/4.1.2/../../../../nios2-elf/lib/mno-hw-mul/libc.a(lib_a-freer.o)
                              /package/eda/altera/altera13.0sp1/nios2eds/bin/gnu/H-i686-pc-linux-gnu/bin/../lib/gcc/nios2-elf/4.1.2/../../../../nios2-elf/lib/mno-hw-mul/libc.a(lib_a-fclose.o) (_free_r)
/package/eda/altera/altera13.0sp1/nios2eds/bin/gnu/H-i686-pc-linux-gnu/bin/../lib/gcc/nios2-elf/4.1.2/../../../../nios2-elf/lib/mno-hw-mul/libc.a(lib_a-fseek.o)
                              /package/eda/altera/altera13.0sp1/nios2eds/bin/gnu/H-i686-pc-linux-gnu/bin/../lib/gcc/nios2-elf/4.1.2/../../../../nios2-elf/lib/mno-hw-mul/libc.a(lib_a-fopen.o) (_fseek_r)
/package/eda/altera/altera13.0sp1/nios2eds/bin/gnu/H-i686-pc-linux-gnu/bin/../lib/gcc/nios2-elf/4.1.2/../../../../nios2-elf/lib/mno-hw-mul/libc.a(lib_a-fstatr.o)
                              /package/eda/altera/altera13.0sp1/nios2eds/bin/gnu/H-i686-pc-linux-gnu/bin/../lib/gcc/nios2-elf/4.1.2/../../../../nios2-elf/lib/mno-hw-mul/libc.a(lib_a-fseek.o) (_fstat_r)
/package/eda/altera/altera13.0sp1/nios2eds/bin/gnu/H-i686-pc-linux-gnu/bin/../lib/gcc/nios2-elf/4.1.2/../../../../nios2-elf/lib/mno-hw-mul/libc.a(lib_a-fwalk.o)
                              /package/eda/altera/altera13.0sp1/nios2eds/bin/gnu/H-i686-pc-linux-gnu/bin/../lib/gcc/nios2-elf/4.1.2/../../../../nios2-elf/lib/mno-hw-mul/libc.a(lib_a-fflush.o) (_fwalk_reent)
/package/eda/altera/altera13.0sp1/nios2eds/bin/gnu/H-i686-pc-linux-gnu/bin/../lib/gcc/nios2-elf/4.1.2/../../../../nios2-elf/lib/mno-hw-mul/libc.a(lib_a-fwrite.o)
                              obj/default/djpeg.o (fwrite)
/package/eda/altera/altera13.0sp1/nios2eds/bin/gnu/H-i686-pc-linux-gnu/bin/../lib/gcc/nios2-elf/4.1.2/../../../../nios2-elf/lib/mno-hw-mul/libc.a(lib_a-getc.o)
                              obj/default/rdcolmap.o (getc)
/package/eda/altera/altera13.0sp1/nios2eds/bin/gnu/H-i686-pc-linux-gnu/bin/../lib/gcc/nios2-elf/4.1.2/../../../../nios2-elf/lib/mno-hw-mul/libc.a(lib_a-getenv.o)
                              obj/default/jmemmgr.o (getenv)
/package/eda/altera/altera13.0sp1/nios2eds/bin/gnu/H-i686-pc-linux-gnu/bin/../lib/gcc/nios2-elf/4.1.2/../../../../nios2-elf/lib/mno-hw-mul/libc.a(lib_a-getenv_r.o)
                              /package/eda/altera/altera13.0sp1/nios2eds/bin/gnu/H-i686-pc-linux-gnu/bin/../lib/gcc/nios2-elf/4.1.2/../../../../nios2-elf/lib/mno-hw-mul/libc.a(lib_a-getenv.o) (_findenv_r)
/package/eda/altera/altera13.0sp1/nios2eds/bin/gnu/H-i686-pc-linux-gnu/bin/../lib/gcc/nios2-elf/4.1.2/../../../../nios2-elf/lib/mno-hw-mul/libc.a(lib_a-impure.o)
                              obj/default/cdjpeg.o (_impure_ptr)
/package/eda/altera/altera13.0sp1/nios2eds/bin/gnu/H-i686-pc-linux-gnu/bin/../lib/gcc/nios2-elf/4.1.2/../../../../nios2-elf/lib/mno-hw-mul/libc.a(lib_a-int_errno.o)
                              /package/eda/altera/altera13.0sp1/nios2eds/bin/gnu/H-i686-pc-linux-gnu/bin/../lib/gcc/nios2-elf/4.1.2/../../../../nios2-elf/lib/mno-hw-mul/libc.a(lib_a-fstatr.o) (errno)
/package/eda/altera/altera13.0sp1/nios2eds/bin/gnu/H-i686-pc-linux-gnu/bin/../lib/gcc/nios2-elf/4.1.2/../../../../nios2-elf/lib/mno-hw-mul/libc.a(lib_a-makebuf.o)
                              /package/eda/altera/altera13.0sp1/nios2eds/bin/gnu/H-i686-pc-linux-gnu/bin/../lib/gcc/nios2-elf/4.1.2/../../../../nios2-elf/lib/mno-hw-mul/libc.a(lib_a-fseek.o) (__smakebuf_r)
/package/eda/altera/altera13.0sp1/nios2eds/bin/gnu/H-i686-pc-linux-gnu/bin/../lib/gcc/nios2-elf/4.1.2/../../../../nios2-elf/lib/mno-hw-mul/libc.a(lib_a-malloc.o)
                              obj/default/jmemnobs.o (free)
/package/eda/altera/altera13.0sp1/nios2eds/bin/gnu/H-i686-pc-linux-gnu/bin/../lib/gcc/nios2-elf/4.1.2/../../../../nios2-elf/lib/mno-hw-mul/libc.a(lib_a-mallocr.o)
                              /package/eda/altera/altera13.0sp1/nios2eds/bin/gnu/H-i686-pc-linux-gnu/bin/../lib/gcc/nios2-elf/4.1.2/../../../../nios2-elf/lib/mno-hw-mul/libc.a(lib_a-findfp.o) (_malloc_r)
/package/eda/altera/altera13.0sp1/nios2eds/bin/gnu/H-i686-pc-linux-gnu/bin/../lib/gcc/nios2-elf/4.1.2/../../../../nios2-elf/lib/mno-hw-mul/libc.a(lib_a-memcpy.o)
                              obj/default/djpeg.o (memcpy)
/package/eda/altera/altera13.0sp1/nios2eds/bin/gnu/H-i686-pc-linux-gnu/bin/../lib/gcc/nios2-elf/4.1.2/../../../../nios2-elf/lib/mno-hw-mul/libc.a(lib_a-memset.o)
                              obj/default/jcapimin.o (memset)
/package/eda/altera/altera13.0sp1/nios2eds/bin/gnu/H-i686-pc-linux-gnu/bin/../lib/gcc/nios2-elf/4.1.2/../../../../nios2-elf/lib/mno-hw-mul/libc.a(lib_a-openr.o)
                              /package/eda/altera/altera13.0sp1/nios2eds/bin/gnu/H-i686-pc-linux-gnu/bin/../lib/gcc/nios2-elf/4.1.2/../../../../nios2-elf/lib/mno-hw-mul/libc.a(lib_a-fopen.o) (_open_r)
/package/eda/altera/altera13.0sp1/nios2eds/bin/gnu/H-i686-pc-linux-gnu/bin/../lib/gcc/nios2-elf/4.1.2/../../../../nios2-elf/lib/mno-hw-mul/libc.a(lib_a-printf.o)
                              obj/default/djpeg.o (printf)
/package/eda/altera/altera13.0sp1/nios2eds/bin/gnu/H-i686-pc-linux-gnu/bin/../lib/gcc/nios2-elf/4.1.2/../../../../nios2-elf/lib/mno-hw-mul/libc.a(lib_a-putc.o)
                              obj/default/djpeg.o (putc)
/package/eda/altera/altera13.0sp1/nios2eds/bin/gnu/H-i686-pc-linux-gnu/bin/../lib/gcc/nios2-elf/4.1.2/../../../../nios2-elf/lib/mno-hw-mul/libc.a(lib_a-puts.o)
                              obj/default/djpeg.o (puts)
/package/eda/altera/altera13.0sp1/nios2eds/bin/gnu/H-i686-pc-linux-gnu/bin/../lib/gcc/nios2-elf/4.1.2/../../../../nios2-elf/lib/mno-hw-mul/libc.a(lib_a-refill.o)
                              /package/eda/altera/altera13.0sp1/nios2eds/bin/gnu/H-i686-pc-linux-gnu/bin/../lib/gcc/nios2-elf/4.1.2/../../../../nios2-elf/lib/mno-hw-mul/libc.a(lib_a-fread.o) (__srefill_r)
/package/eda/altera/altera13.0sp1/nios2eds/bin/gnu/H-i686-pc-linux-gnu/bin/../lib/gcc/nios2-elf/4.1.2/../../../../nios2-elf/lib/mno-hw-mul/libc.a(lib_a-rget.o)
                              /package/eda/altera/altera13.0sp1/nios2eds/bin/gnu/H-i686-pc-linux-gnu/bin/../lib/gcc/nios2-elf/4.1.2/../../../../nios2-elf/lib/mno-hw-mul/libc.a(lib_a-getc.o) (__srget_r)
/package/eda/altera/altera13.0sp1/nios2eds/bin/gnu/H-i686-pc-linux-gnu/bin/../lib/gcc/nios2-elf/4.1.2/../../../../nios2-elf/lib/mno-hw-mul/libc.a(lib_a-sbrkr.o)
                              /package/eda/altera/altera13.0sp1/nios2eds/bin/gnu/H-i686-pc-linux-gnu/bin/../lib/gcc/nios2-elf/4.1.2/../../../../nios2-elf/lib/mno-hw-mul/libc.a(lib_a-freer.o) (_sbrk_r)
/package/eda/altera/altera13.0sp1/nios2eds/bin/gnu/H-i686-pc-linux-gnu/bin/../lib/gcc/nios2-elf/4.1.2/../../../../nios2-elf/lib/mno-hw-mul/libc.a(lib_a-sprintf.o)
                              obj/default/jerror.o (sprintf)
/package/eda/altera/altera13.0sp1/nios2eds/bin/gnu/H-i686-pc-linux-gnu/bin/../lib/gcc/nios2-elf/4.1.2/../../../../nios2-elf/lib/mno-hw-mul/libc.a(lib_a-sscanf.o)
                              obj/default/djpeg.o (sscanf)
/package/eda/altera/altera13.0sp1/nios2eds/bin/gnu/H-i686-pc-linux-gnu/bin/../lib/gcc/nios2-elf/4.1.2/../../../../nios2-elf/lib/mno-hw-mul/libc.a(lib_a-stdio.o)
                              /package/eda/altera/altera13.0sp1/nios2eds/bin/gnu/H-i686-pc-linux-gnu/bin/../lib/gcc/nios2-elf/4.1.2/../../../../nios2-elf/lib/mno-hw-mul/libc.a(lib_a-findfp.o) (__sclose)
/package/eda/altera/altera13.0sp1/nios2eds/bin/gnu/H-i686-pc-linux-gnu/bin/../lib/gcc/nios2-elf/4.1.2/../../../../nios2-elf/lib/mno-hw-mul/libc.a(lib_a-strdup.o)
                              obj/default/djpeg.o (strdup)
/package/eda/altera/altera13.0sp1/nios2eds/bin/gnu/H-i686-pc-linux-gnu/bin/../lib/gcc/nios2-elf/4.1.2/../../../../nios2-elf/lib/mno-hw-mul/libc.a(lib_a-strdup_r.o)
                              /package/eda/altera/altera13.0sp1/nios2eds/bin/gnu/H-i686-pc-linux-gnu/bin/../lib/gcc/nios2-elf/4.1.2/../../../../nios2-elf/lib/mno-hw-mul/libc.a(lib_a-strdup.o) (_strdup_r)
/package/eda/altera/altera13.0sp1/nios2eds/bin/gnu/H-i686-pc-linux-gnu/bin/../lib/gcc/nios2-elf/4.1.2/../../../../nios2-elf/lib/mno-hw-mul/libc.a(lib_a-strlen.o)
                              /package/eda/altera/altera13.0sp1/nios2eds/bin/gnu/H-i686-pc-linux-gnu/bin/../lib/gcc/nios2-elf/4.1.2/../../../../nios2-elf/lib/mno-hw-mul/libc.a(lib_a-puts.o) (strlen)
/package/eda/altera/altera13.0sp1/nios2eds/bin/gnu/H-i686-pc-linux-gnu/bin/../lib/gcc/nios2-elf/4.1.2/../../../../nios2-elf/lib/mno-hw-mul/libc.a(lib_a-strncmp.o)
                              /package/eda/altera/altera13.0sp1/nios2eds/bin/gnu/H-i686-pc-linux-gnu/bin/../lib/gcc/nios2-elf/4.1.2/../../../../nios2-elf/lib/mno-hw-mul/libc.a(lib_a-getenv_r.o) (strncmp)
/package/eda/altera/altera13.0sp1/nios2eds/bin/gnu/H-i686-pc-linux-gnu/bin/../lib/gcc/nios2-elf/4.1.2/../../../../nios2-elf/lib/mno-hw-mul/libc.a(lib_a-vfprintf.o)
                              /package/eda/altera/altera13.0sp1/nios2eds/bin/gnu/H-i686-pc-linux-gnu/bin/../lib/gcc/nios2-elf/4.1.2/../../../../nios2-elf/lib/mno-hw-mul/libc.a(lib_a-printf.o) (___vfprintf_internal_r)
/package/eda/altera/altera13.0sp1/nios2eds/bin/gnu/H-i686-pc-linux-gnu/bin/../lib/gcc/nios2-elf/4.1.2/../../../../nios2-elf/lib/mno-hw-mul/libc.a(lib_a-vfscanf.o)
                              /package/eda/altera/altera13.0sp1/nios2eds/bin/gnu/H-i686-pc-linux-gnu/bin/../lib/gcc/nios2-elf/4.1.2/../../../../nios2-elf/lib/mno-hw-mul/libc.a(lib_a-sscanf.o) (__svfscanf_r)
/package/eda/altera/altera13.0sp1/nios2eds/bin/gnu/H-i686-pc-linux-gnu/bin/../lib/gcc/nios2-elf/4.1.2/../../../../nios2-elf/lib/mno-hw-mul/libc.a(lib_a-wbuf.o)
                              /package/eda/altera/altera13.0sp1/nios2eds/bin/gnu/H-i686-pc-linux-gnu/bin/../lib/gcc/nios2-elf/4.1.2/../../../../nios2-elf/lib/mno-hw-mul/libc.a(lib_a-putc.o) (__swbuf_r)
/package/eda/altera/altera13.0sp1/nios2eds/bin/gnu/H-i686-pc-linux-gnu/bin/../lib/gcc/nios2-elf/4.1.2/../../../../nios2-elf/lib/mno-hw-mul/libc.a(lib_a-writer.o)
                              /package/eda/altera/altera13.0sp1/nios2eds/bin/gnu/H-i686-pc-linux-gnu/bin/../lib/gcc/nios2-elf/4.1.2/../../../../nios2-elf/lib/mno-hw-mul/libc.a(lib_a-stdio.o) (_write_r)
/package/eda/altera/altera13.0sp1/nios2eds/bin/gnu/H-i686-pc-linux-gnu/bin/../lib/gcc/nios2-elf/4.1.2/../../../../nios2-elf/lib/mno-hw-mul/libc.a(lib_a-wsetup.o)
                              /package/eda/altera/altera13.0sp1/nios2eds/bin/gnu/H-i686-pc-linux-gnu/bin/../lib/gcc/nios2-elf/4.1.2/../../../../nios2-elf/lib/mno-hw-mul/libc.a(lib_a-vfprintf.o) (__swsetup_r)
/package/eda/altera/altera13.0sp1/nios2eds/bin/gnu/H-i686-pc-linux-gnu/bin/../lib/gcc/nios2-elf/4.1.2/../../../../nios2-elf/lib/mno-hw-mul/libc.a(lib_a-__call_atexit.o)
                              /package/eda/altera/altera13.0sp1/nios2eds/bin/gnu/H-i686-pc-linux-gnu/bin/../lib/gcc/nios2-elf/4.1.2/../../../../nios2-elf/lib/mno-hw-mul/libc.a(lib_a-exit.o) (__call_exitprocs)
/package/eda/altera/altera13.0sp1/nios2eds/bin/gnu/H-i686-pc-linux-gnu/bin/../lib/gcc/nios2-elf/4.1.2/../../../../nios2-elf/lib/mno-hw-mul/libc.a(lib_a-closer.o)
                              /package/eda/altera/altera13.0sp1/nios2eds/bin/gnu/H-i686-pc-linux-gnu/bin/../lib/gcc/nios2-elf/4.1.2/../../../../nios2-elf/lib/mno-hw-mul/libc.a(lib_a-stdio.o) (_close_r)
/package/eda/altera/altera13.0sp1/nios2eds/bin/gnu/H-i686-pc-linux-gnu/bin/../lib/gcc/nios2-elf/4.1.2/../../../../nios2-elf/lib/mno-hw-mul/libc.a(lib_a-dtoa.o)
                              /package/eda/altera/altera13.0sp1/nios2eds/bin/gnu/H-i686-pc-linux-gnu/bin/../lib/gcc/nios2-elf/4.1.2/../../../../nios2-elf/lib/mno-hw-mul/libc.a(lib_a-vfprintf.o) (_dtoa_r)
/package/eda/altera/altera13.0sp1/nios2eds/bin/gnu/H-i686-pc-linux-gnu/bin/../lib/gcc/nios2-elf/4.1.2/../../../../nios2-elf/lib/mno-hw-mul/libc.a(lib_a-environ.o)
                              /package/eda/altera/altera13.0sp1/nios2eds/bin/gnu/H-i686-pc-linux-gnu/bin/../lib/gcc/nios2-elf/4.1.2/../../../../nios2-elf/lib/mno-hw-mul/libc.a(lib_a-getenv_r.o) (environ)
/package/eda/altera/altera13.0sp1/nios2eds/bin/gnu/H-i686-pc-linux-gnu/bin/../lib/gcc/nios2-elf/4.1.2/../../../../nios2-elf/lib/mno-hw-mul/libc.a(lib_a-flags.o)
                              /package/eda/altera/altera13.0sp1/nios2eds/bin/gnu/H-i686-pc-linux-gnu/bin/../lib/gcc/nios2-elf/4.1.2/../../../../nios2-elf/lib/mno-hw-mul/libc.a(lib_a-fopen.o) (__sflags)
/package/eda/altera/altera13.0sp1/nios2eds/bin/gnu/H-i686-pc-linux-gnu/bin/../lib/gcc/nios2-elf/4.1.2/../../../../nios2-elf/lib/mno-hw-mul/libc.a(lib_a-fvwrite.o)
                              /package/eda/altera/altera13.0sp1/nios2eds/bin/gnu/H-i686-pc-linux-gnu/bin/../lib/gcc/nios2-elf/4.1.2/../../../../nios2-elf/lib/mno-hw-mul/libc.a(lib_a-fwrite.o) (__sfvwrite_r)
/package/eda/altera/altera13.0sp1/nios2eds/bin/gnu/H-i686-pc-linux-gnu/bin/../lib/gcc/nios2-elf/4.1.2/../../../../nios2-elf/lib/mno-hw-mul/libc.a(lib_a-isattyr.o)
                              /package/eda/altera/altera13.0sp1/nios2eds/bin/gnu/H-i686-pc-linux-gnu/bin/../lib/gcc/nios2-elf/4.1.2/../../../../nios2-elf/lib/mno-hw-mul/libc.a(lib_a-makebuf.o) (_isatty_r)
/package/eda/altera/altera13.0sp1/nios2eds/bin/gnu/H-i686-pc-linux-gnu/bin/../lib/gcc/nios2-elf/4.1.2/../../../../nios2-elf/lib/mno-hw-mul/libc.a(lib_a-iswspace.o)
                              /package/eda/altera/altera13.0sp1/nios2eds/bin/gnu/H-i686-pc-linux-gnu/bin/../lib/gcc/nios2-elf/4.1.2/../../../../nios2-elf/lib/mno-hw-mul/libc.a(lib_a-vfscanf.o) (iswspace)
/package/eda/altera/altera13.0sp1/nios2eds/bin/gnu/H-i686-pc-linux-gnu/bin/../lib/gcc/nios2-elf/4.1.2/../../../../nios2-elf/lib/mno-hw-mul/libc.a(lib_a-locale.o)
                              /package/eda/altera/altera13.0sp1/nios2eds/bin/gnu/H-i686-pc-linux-gnu/bin/../lib/gcc/nios2-elf/4.1.2/../../../../nios2-elf/lib/mno-hw-mul/libc.a(lib_a-vfprintf.o) (_localeconv_r)
/package/eda/altera/altera13.0sp1/nios2eds/bin/gnu/H-i686-pc-linux-gnu/bin/../lib/gcc/nios2-elf/4.1.2/../../../../nios2-elf/lib/mno-hw-mul/libc.a(lib_a-lseekr.o)
                              /package/eda/altera/altera13.0sp1/nios2eds/bin/gnu/H-i686-pc-linux-gnu/bin/../lib/gcc/nios2-elf/4.1.2/../../../../nios2-elf/lib/mno-hw-mul/libc.a(lib_a-stdio.o) (_lseek_r)
/package/eda/altera/altera13.0sp1/nios2eds/bin/gnu/H-i686-pc-linux-gnu/bin/../lib/gcc/nios2-elf/4.1.2/../../../../nios2-elf/lib/mno-hw-mul/libc.a(lib_a-mbrtowc.o)
                              /package/eda/altera/altera13.0sp1/nios2eds/bin/gnu/H-i686-pc-linux-gnu/bin/../lib/gcc/nios2-elf/4.1.2/../../../../nios2-elf/lib/mno-hw-mul/libc.a(lib_a-vfscanf.o) (_mbrtowc_r)
/package/eda/altera/altera13.0sp1/nios2eds/bin/gnu/H-i686-pc-linux-gnu/bin/../lib/gcc/nios2-elf/4.1.2/../../../../nios2-elf/lib/mno-hw-mul/libc.a(lib_a-mbtowc_r.o)
                              /package/eda/altera/altera13.0sp1/nios2eds/bin/gnu/H-i686-pc-linux-gnu/bin/../lib/gcc/nios2-elf/4.1.2/../../../../nios2-elf/lib/mno-hw-mul/libc.a(lib_a-mbrtowc.o) (_mbtowc_r)
/package/eda/altera/altera13.0sp1/nios2eds/bin/gnu/H-i686-pc-linux-gnu/bin/../lib/gcc/nios2-elf/4.1.2/../../../../nios2-elf/lib/mno-hw-mul/libc.a(lib_a-memchr.o)
                              /package/eda/altera/altera13.0sp1/nios2eds/bin/gnu/H-i686-pc-linux-gnu/bin/../lib/gcc/nios2-elf/4.1.2/../../../../nios2-elf/lib/mno-hw-mul/libc.a(lib_a-vfprintf.o) (memchr)
/package/eda/altera/altera13.0sp1/nios2eds/bin/gnu/H-i686-pc-linux-gnu/bin/../lib/gcc/nios2-elf/4.1.2/../../../../nios2-elf/lib/mno-hw-mul/libc.a(lib_a-memmove.o)
                              /package/eda/altera/altera13.0sp1/nios2eds/bin/gnu/H-i686-pc-linux-gnu/bin/../lib/gcc/nios2-elf/4.1.2/../../../../nios2-elf/lib/mno-hw-mul/libc.a(lib_a-fvwrite.o) (memmove)
/package/eda/altera/altera13.0sp1/nios2eds/bin/gnu/H-i686-pc-linux-gnu/bin/../lib/gcc/nios2-elf/4.1.2/../../../../nios2-elf/lib/mno-hw-mul/libc.a(lib_a-mprec.o)
                              /package/eda/altera/altera13.0sp1/nios2eds/bin/gnu/H-i686-pc-linux-gnu/bin/../lib/gcc/nios2-elf/4.1.2/../../../../nios2-elf/lib/mno-hw-mul/libc.a(lib_a-dtoa.o) (_Bfree)
/package/eda/altera/altera13.0sp1/nios2eds/bin/gnu/H-i686-pc-linux-gnu/bin/../lib/gcc/nios2-elf/4.1.2/../../../../nios2-elf/lib/mno-hw-mul/libc.a(lib_a-readr.o)
                              /package/eda/altera/altera13.0sp1/nios2eds/bin/gnu/H-i686-pc-linux-gnu/bin/../lib/gcc/nios2-elf/4.1.2/../../../../nios2-elf/lib/mno-hw-mul/libc.a(lib_a-stdio.o) (_read_r)
/package/eda/altera/altera13.0sp1/nios2eds/bin/gnu/H-i686-pc-linux-gnu/bin/../lib/gcc/nios2-elf/4.1.2/../../../../nios2-elf/lib/mno-hw-mul/libc.a(lib_a-reallocr.o)
                              /package/eda/altera/altera13.0sp1/nios2eds/bin/gnu/H-i686-pc-linux-gnu/bin/../lib/gcc/nios2-elf/4.1.2/../../../../nios2-elf/lib/mno-hw-mul/libc.a(lib_a-fvwrite.o) (_realloc_r)
/package/eda/altera/altera13.0sp1/nios2eds/bin/gnu/H-i686-pc-linux-gnu/bin/../lib/gcc/nios2-elf/4.1.2/../../../../nios2-elf/lib/mno-hw-mul/libc.a(lib_a-s_isinfd.o)
                              /package/eda/altera/altera13.0sp1/nios2eds/bin/gnu/H-i686-pc-linux-gnu/bin/../lib/gcc/nios2-elf/4.1.2/../../../../nios2-elf/lib/mno-hw-mul/libc.a(lib_a-vfprintf.o) (__isinfd)
/package/eda/altera/altera13.0sp1/nios2eds/bin/gnu/H-i686-pc-linux-gnu/bin/../lib/gcc/nios2-elf/4.1.2/../../../../nios2-elf/lib/mno-hw-mul/libc.a(lib_a-s_isnand.o)
                              /package/eda/altera/altera13.0sp1/nios2eds/bin/gnu/H-i686-pc-linux-gnu/bin/../lib/gcc/nios2-elf/4.1.2/../../../../nios2-elf/lib/mno-hw-mul/libc.a(lib_a-vfprintf.o) (__isnand)
/package/eda/altera/altera13.0sp1/nios2eds/bin/gnu/H-i686-pc-linux-gnu/bin/../lib/gcc/nios2-elf/4.1.2/../../../../nios2-elf/lib/mno-hw-mul/libc.a(lib_a-sccl.o)
                              /package/eda/altera/altera13.0sp1/nios2eds/bin/gnu/H-i686-pc-linux-gnu/bin/../lib/gcc/nios2-elf/4.1.2/../../../../nios2-elf/lib/mno-hw-mul/libc.a(lib_a-vfscanf.o) (__sccl)
/package/eda/altera/altera13.0sp1/nios2eds/bin/gnu/H-i686-pc-linux-gnu/bin/../lib/gcc/nios2-elf/4.1.2/../../../../nios2-elf/lib/mno-hw-mul/libc.a(lib_a-sf_nan.o)
                              /package/eda/altera/altera13.0sp1/nios2eds/bin/gnu/H-i686-pc-linux-gnu/bin/../lib/gcc/nios2-elf/4.1.2/../../../../nios2-elf/lib/mno-hw-mul/libc.a(lib_a-vfscanf.o) (nanf)
/package/eda/altera/altera13.0sp1/nios2eds/bin/gnu/H-i686-pc-linux-gnu/bin/../lib/gcc/nios2-elf/4.1.2/../../../../nios2-elf/lib/mno-hw-mul/libc.a(lib_a-strcmp.o)
                              /package/eda/altera/altera13.0sp1/nios2eds/bin/gnu/H-i686-pc-linux-gnu/bin/../lib/gcc/nios2-elf/4.1.2/../../../../nios2-elf/lib/mno-hw-mul/libc.a(lib_a-locale.o) (strcmp)
/package/eda/altera/altera13.0sp1/nios2eds/bin/gnu/H-i686-pc-linux-gnu/bin/../lib/gcc/nios2-elf/4.1.2/../../../../nios2-elf/lib/mno-hw-mul/libc.a(lib_a-strtod.o)
                              /package/eda/altera/altera13.0sp1/nios2eds/bin/gnu/H-i686-pc-linux-gnu/bin/../lib/gcc/nios2-elf/4.1.2/../../../../nios2-elf/lib/mno-hw-mul/libc.a(lib_a-vfscanf.o) (_strtod_r)
/package/eda/altera/altera13.0sp1/nios2eds/bin/gnu/H-i686-pc-linux-gnu/bin/../lib/gcc/nios2-elf/4.1.2/../../../../nios2-elf/lib/mno-hw-mul/libc.a(lib_a-strtol.o)
                              /package/eda/altera/altera13.0sp1/nios2eds/bin/gnu/H-i686-pc-linux-gnu/bin/../lib/gcc/nios2-elf/4.1.2/../../../../nios2-elf/lib/mno-hw-mul/libc.a(lib_a-vfscanf.o) (_strtol_r)
/package/eda/altera/altera13.0sp1/nios2eds/bin/gnu/H-i686-pc-linux-gnu/bin/../lib/gcc/nios2-elf/4.1.2/../../../../nios2-elf/lib/mno-hw-mul/libc.a(lib_a-strtoll_r.o)
                              /package/eda/altera/altera13.0sp1/nios2eds/bin/gnu/H-i686-pc-linux-gnu/bin/../lib/gcc/nios2-elf/4.1.2/../../../../nios2-elf/lib/mno-hw-mul/libc.a(lib_a-vfscanf.o) (_strtoll_r)
/package/eda/altera/altera13.0sp1/nios2eds/bin/gnu/H-i686-pc-linux-gnu/bin/../lib/gcc/nios2-elf/4.1.2/../../../../nios2-elf/lib/mno-hw-mul/libc.a(lib_a-strtoul.o)
                              /package/eda/altera/altera13.0sp1/nios2eds/bin/gnu/H-i686-pc-linux-gnu/bin/../lib/gcc/nios2-elf/4.1.2/../../../../nios2-elf/lib/mno-hw-mul/libc.a(lib_a-vfscanf.o) (_strtoul_r)
/package/eda/altera/altera13.0sp1/nios2eds/bin/gnu/H-i686-pc-linux-gnu/bin/../lib/gcc/nios2-elf/4.1.2/../../../../nios2-elf/lib/mno-hw-mul/libc.a(lib_a-strtoull_r.o)
                              /package/eda/altera/altera13.0sp1/nios2eds/bin/gnu/H-i686-pc-linux-gnu/bin/../lib/gcc/nios2-elf/4.1.2/../../../../nios2-elf/lib/mno-hw-mul/libc.a(lib_a-vfscanf.o) (_strtoull_r)
/package/eda/altera/altera13.0sp1/nios2eds/bin/gnu/H-i686-pc-linux-gnu/bin/../lib/gcc/nios2-elf/4.1.2/../../../../nios2-elf/lib/mno-hw-mul/libc.a(lib_a-ungetc.o)
                              /package/eda/altera/altera13.0sp1/nios2eds/bin/gnu/H-i686-pc-linux-gnu/bin/../lib/gcc/nios2-elf/4.1.2/../../../../nios2-elf/lib/mno-hw-mul/libc.a(lib_a-vfscanf.o) (_ungetc_r)
/package/eda/altera/altera13.0sp1/nios2eds/bin/gnu/H-i686-pc-linux-gnu/bin/../lib/gcc/nios2-elf/4.1.2/../../../../nios2-elf/lib/mno-hw-mul/libc.a(lib_a-callocr.o)
                              /package/eda/altera/altera13.0sp1/nios2eds/bin/gnu/H-i686-pc-linux-gnu/bin/../lib/gcc/nios2-elf/4.1.2/../../../../nios2-elf/lib/mno-hw-mul/libc.a(lib_a-mprec.o) (_calloc_r)
/package/eda/altera/altera13.0sp1/nios2eds/bin/gnu/H-i686-pc-linux-gnu/bin/../lib/gcc/nios2-elf/4.1.2/../../../../nios2-elf/lib/mno-hw-mul/libc.a(lib_a-gdtoa-gethex.o)
                              /package/eda/altera/altera13.0sp1/nios2eds/bin/gnu/H-i686-pc-linux-gnu/bin/../lib/gcc/nios2-elf/4.1.2/../../../../nios2-elf/lib/mno-hw-mul/libc.a(lib_a-strtod.o) (__gethex)
/package/eda/altera/altera13.0sp1/nios2eds/bin/gnu/H-i686-pc-linux-gnu/bin/../lib/gcc/nios2-elf/4.1.2/../../../../nios2-elf/lib/mno-hw-mul/libc.a(lib_a-gdtoa-hexnan.o)
                              /package/eda/altera/altera13.0sp1/nios2eds/bin/gnu/H-i686-pc-linux-gnu/bin/../lib/gcc/nios2-elf/4.1.2/../../../../nios2-elf/lib/mno-hw-mul/libc.a(lib_a-strtod.o) (__hexnan)
/package/eda/altera/altera13.0sp1/nios2eds/bin/gnu/H-i686-pc-linux-gnu/bin/../lib/gcc/nios2-elf/4.1.2/mno-hw-mul/libgcc.a(_fixunsdfsi.o)
                              /package/eda/altera/altera13.0sp1/nios2eds/bin/gnu/H-i686-pc-linux-gnu/bin/../lib/gcc/nios2-elf/4.1.2/../../../../nios2-elf/lib/mno-hw-mul/libc.a(lib_a-strtod.o) (__fixunsdfsi)
/package/eda/altera/altera13.0sp1/nios2eds/bin/gnu/H-i686-pc-linux-gnu/bin/../lib/gcc/nios2-elf/4.1.2/mno-hw-mul/libgcc.a(_udivdi3.o)
                              /package/eda/altera/altera13.0sp1/nios2eds/bin/gnu/H-i686-pc-linux-gnu/bin/../lib/gcc/nios2-elf/4.1.2/../../../../nios2-elf/lib/mno-hw-mul/libc.a(lib_a-vfprintf.o) (__udivdi3)
/package/eda/altera/altera13.0sp1/nios2eds/bin/gnu/H-i686-pc-linux-gnu/bin/../lib/gcc/nios2-elf/4.1.2/mno-hw-mul/libgcc.a(_umoddi3.o)
                              /package/eda/altera/altera13.0sp1/nios2eds/bin/gnu/H-i686-pc-linux-gnu/bin/../lib/gcc/nios2-elf/4.1.2/../../../../nios2-elf/lib/mno-hw-mul/libc.a(lib_a-vfprintf.o) (__umoddi3)
/package/eda/altera/altera13.0sp1/nios2eds/bin/gnu/H-i686-pc-linux-gnu/bin/../lib/gcc/nios2-elf/4.1.2/mno-hw-mul/libgcc.a(_ne_sf.o)
                              /package/eda/altera/altera13.0sp1/nios2eds/bin/gnu/H-i686-pc-linux-gnu/bin/../lib/gcc/nios2-elf/4.1.2/../../../../nios2-elf/lib/mno-hw-mul/libc.a(lib_a-strtod.o) (__nesf2)
/package/eda/altera/altera13.0sp1/nios2eds/bin/gnu/H-i686-pc-linux-gnu/bin/../lib/gcc/nios2-elf/4.1.2/mno-hw-mul/libgcc.a(_gt_sf.o)
                              /package/eda/altera/altera13.0sp1/nios2eds/bin/gnu/H-i686-pc-linux-gnu/bin/../lib/gcc/nios2-elf/4.1.2/../../../../nios2-elf/lib/mno-hw-mul/libc.a(lib_a-strtod.o) (__gtsf2)
/package/eda/altera/altera13.0sp1/nios2eds/bin/gnu/H-i686-pc-linux-gnu/bin/../lib/gcc/nios2-elf/4.1.2/mno-hw-mul/libgcc.a(_lt_sf.o)
                              /package/eda/altera/altera13.0sp1/nios2eds/bin/gnu/H-i686-pc-linux-gnu/bin/../lib/gcc/nios2-elf/4.1.2/../../../../nios2-elf/lib/mno-hw-mul/libc.a(lib_a-strtod.o) (__ltsf2)
/package/eda/altera/altera13.0sp1/nios2eds/bin/gnu/H-i686-pc-linux-gnu/bin/../lib/gcc/nios2-elf/4.1.2/mno-hw-mul/libgcc.a(_addsub_df.o)
                              /package/eda/altera/altera13.0sp1/nios2eds/bin/gnu/H-i686-pc-linux-gnu/bin/../lib/gcc/nios2-elf/4.1.2/../../../../nios2-elf/lib/mno-hw-mul/libc.a(lib_a-dtoa.o) (__subdf3)
/package/eda/altera/altera13.0sp1/nios2eds/bin/gnu/H-i686-pc-linux-gnu/bin/../lib/gcc/nios2-elf/4.1.2/mno-hw-mul/libgcc.a(_eq_df.o)
                              /package/eda/altera/altera13.0sp1/nios2eds/bin/gnu/H-i686-pc-linux-gnu/bin/../lib/gcc/nios2-elf/4.1.2/../../../../nios2-elf/lib/mno-hw-mul/libc.a(lib_a-vfprintf.o) (__eqdf2)
/package/eda/altera/altera13.0sp1/nios2eds/bin/gnu/H-i686-pc-linux-gnu/bin/../lib/gcc/nios2-elf/4.1.2/mno-hw-mul/libgcc.a(_ne_df.o)
                              /package/eda/altera/altera13.0sp1/nios2eds/bin/gnu/H-i686-pc-linux-gnu/bin/../lib/gcc/nios2-elf/4.1.2/../../../../nios2-elf/lib/mno-hw-mul/libc.a(lib_a-vfprintf.o) (__nedf2)
/package/eda/altera/altera13.0sp1/nios2eds/bin/gnu/H-i686-pc-linux-gnu/bin/../lib/gcc/nios2-elf/4.1.2/mno-hw-mul/libgcc.a(_gt_df.o)
                              /package/eda/altera/altera13.0sp1/nios2eds/bin/gnu/H-i686-pc-linux-gnu/bin/../lib/gcc/nios2-elf/4.1.2/../../../../nios2-elf/lib/mno-hw-mul/libc.a(lib_a-dtoa.o) (__gtdf2)
/package/eda/altera/altera13.0sp1/nios2eds/bin/gnu/H-i686-pc-linux-gnu/bin/../lib/gcc/nios2-elf/4.1.2/mno-hw-mul/libgcc.a(_ge_df.o)
                              /package/eda/altera/altera13.0sp1/nios2eds/bin/gnu/H-i686-pc-linux-gnu/bin/../lib/gcc/nios2-elf/4.1.2/../../../../nios2-elf/lib/mno-hw-mul/libc.a(lib_a-dtoa.o) (__gedf2)
/package/eda/altera/altera13.0sp1/nios2eds/bin/gnu/H-i686-pc-linux-gnu/bin/../lib/gcc/nios2-elf/4.1.2/mno-hw-mul/libgcc.a(_lt_df.o)
                              /package/eda/altera/altera13.0sp1/nios2eds/bin/gnu/H-i686-pc-linux-gnu/bin/../lib/gcc/nios2-elf/4.1.2/../../../../nios2-elf/lib/mno-hw-mul/libc.a(lib_a-vfprintf.o) (__ltdf2)
/package/eda/altera/altera13.0sp1/nios2eds/bin/gnu/H-i686-pc-linux-gnu/bin/../lib/gcc/nios2-elf/4.1.2/mno-hw-mul/libgcc.a(_le_df.o)
                              /package/eda/altera/altera13.0sp1/nios2eds/bin/gnu/H-i686-pc-linux-gnu/bin/../lib/gcc/nios2-elf/4.1.2/../../../../nios2-elf/lib/mno-hw-mul/libc.a(lib_a-strtod.o) (__ledf2)
/package/eda/altera/altera13.0sp1/nios2eds/bin/gnu/H-i686-pc-linux-gnu/bin/../lib/gcc/nios2-elf/4.1.2/mno-hw-mul/libgcc.a(_si_to_df.o)
                              /package/eda/altera/altera13.0sp1/nios2eds/bin/gnu/H-i686-pc-linux-gnu/bin/../lib/gcc/nios2-elf/4.1.2/../../../../nios2-elf/lib/mno-hw-mul/libc.a(lib_a-dtoa.o) (__floatsidf)
/package/eda/altera/altera13.0sp1/nios2eds/bin/gnu/H-i686-pc-linux-gnu/bin/../lib/gcc/nios2-elf/4.1.2/mno-hw-mul/libgcc.a(_df_to_si.o)
                              /package/eda/altera/altera13.0sp1/nios2eds/bin/gnu/H-i686-pc-linux-gnu/bin/../lib/gcc/nios2-elf/4.1.2/../../../../nios2-elf/lib/mno-hw-mul/libc.a(lib_a-dtoa.o) (__fixdfsi)
/package/eda/altera/altera13.0sp1/nios2eds/bin/gnu/H-i686-pc-linux-gnu/bin/../lib/gcc/nios2-elf/4.1.2/mno-hw-mul/libgcc.a(_fpcmp_parts_sf.o)
                              /package/eda/altera/altera13.0sp1/nios2eds/bin/gnu/H-i686-pc-linux-gnu/bin/../lib/gcc/nios2-elf/4.1.2/mno-hw-mul/libgcc.a(_ne_sf.o) (__fpcmp_parts_f)
/package/eda/altera/altera13.0sp1/nios2eds/bin/gnu/H-i686-pc-linux-gnu/bin/../lib/gcc/nios2-elf/4.1.2/mno-hw-mul/libgcc.a(_fpcmp_parts_df.o)
                              /package/eda/altera/altera13.0sp1/nios2eds/bin/gnu/H-i686-pc-linux-gnu/bin/../lib/gcc/nios2-elf/4.1.2/mno-hw-mul/libgcc.a(_eq_df.o) (__fpcmp_parts_d)
../demo_board_bsp//libhal_bsp.a(alt_close.o)
                              /package/eda/altera/altera13.0sp1/nios2eds/bin/gnu/H-i686-pc-linux-gnu/bin/../lib/gcc/nios2-elf/4.1.2/../../../../nios2-elf/lib/mno-hw-mul/libc.a(lib_a-closer.o) (close)
../demo_board_bsp//libhal_bsp.a(alt_dev.o)
                              ../demo_board_bsp//libhal_bsp.a(alt_close.o) (alt_fd_list)
../demo_board_bsp//libhal_bsp.a(alt_env_lock.o)
                              /package/eda/altera/altera13.0sp1/nios2eds/bin/gnu/H-i686-pc-linux-gnu/bin/../lib/gcc/nios2-elf/4.1.2/../../../../nios2-elf/lib/mno-hw-mul/libc.a(lib_a-getenv_r.o) (__env_lock)
../demo_board_bsp//libhal_bsp.a(alt_errno.o)
                              ../demo_board_bsp//libhal_bsp.a(alt_close.o) (alt_errno)
../demo_board_bsp//libhal_bsp.a(alt_exit.o)
                              /package/eda/altera/altera13.0sp1/nios2eds/bin/gnu/H-i686-pc-linux-gnu/bin/../lib/gcc/nios2-elf/4.1.2/../../../../nios2-elf/lib/mno-hw-mul/libc.a(lib_a-exit.o) (_exit)
../demo_board_bsp//libhal_bsp.a(alt_fstat.o)
                              /package/eda/altera/altera13.0sp1/nios2eds/bin/gnu/H-i686-pc-linux-gnu/bin/../lib/gcc/nios2-elf/4.1.2/../../../../nios2-elf/lib/mno-hw-mul/libc.a(lib_a-fstatr.o) (fstat)
../demo_board_bsp//libhal_bsp.a(alt_isatty.o)
                              /package/eda/altera/altera13.0sp1/nios2eds/bin/gnu/H-i686-pc-linux-gnu/bin/../lib/gcc/nios2-elf/4.1.2/../../../../nios2-elf/lib/mno-hw-mul/libc.a(lib_a-isattyr.o) (isatty)
../demo_board_bsp//libhal_bsp.a(alt_load.o)
                              ../demo_board_bsp//obj/HAL/src/crt0.o (alt_load)
../demo_board_bsp//libhal_bsp.a(alt_lseek.o)
                              /package/eda/altera/altera13.0sp1/nios2eds/bin/gnu/H-i686-pc-linux-gnu/bin/../lib/gcc/nios2-elf/4.1.2/../../../../nios2-elf/lib/mno-hw-mul/libc.a(lib_a-lseekr.o) (lseek)
../demo_board_bsp//libhal_bsp.a(alt_main.o)
                              ../demo_board_bsp//obj/HAL/src/crt0.o (alt_main)
../demo_board_bsp//libhal_bsp.a(alt_malloc_lock.o)
                              /package/eda/altera/altera13.0sp1/nios2eds/bin/gnu/H-i686-pc-linux-gnu/bin/../lib/gcc/nios2-elf/4.1.2/../../../../nios2-elf/lib/mno-hw-mul/libc.a(lib_a-freer.o) (__malloc_lock)
../demo_board_bsp//libhal_bsp.a(alt_open.o)
                              /package/eda/altera/altera13.0sp1/nios2eds/bin/gnu/H-i686-pc-linux-gnu/bin/../lib/gcc/nios2-elf/4.1.2/../../../../nios2-elf/lib/mno-hw-mul/libc.a(lib_a-openr.o) (open)
../demo_board_bsp//libhal_bsp.a(alt_read.o)
                              /package/eda/altera/altera13.0sp1/nios2eds/bin/gnu/H-i686-pc-linux-gnu/bin/../lib/gcc/nios2-elf/4.1.2/../../../../nios2-elf/lib/mno-hw-mul/libc.a(lib_a-readr.o) (read)
../demo_board_bsp//libhal_bsp.a(alt_release_fd.o)
                              ../demo_board_bsp//libhal_bsp.a(alt_close.o) (alt_release_fd)
../demo_board_bsp//libhal_bsp.a(alt_sbrk.o)
                              /package/eda/altera/altera13.0sp1/nios2eds/bin/gnu/H-i686-pc-linux-gnu/bin/../lib/gcc/nios2-elf/4.1.2/../../../../nios2-elf/lib/mno-hw-mul/libc.a(lib_a-sbrkr.o) (sbrk)
../demo_board_bsp//libhal_bsp.a(alt_write.o)
                              /package/eda/altera/altera13.0sp1/nios2eds/bin/gnu/H-i686-pc-linux-gnu/bin/../lib/gcc/nios2-elf/4.1.2/../../../../nios2-elf/lib/mno-hw-mul/libc.a(lib_a-writer.o) (write)
../demo_board_bsp//libhal_bsp.a(alt_sys_init.o)
                              ../demo_board_bsp//libhal_bsp.a(alt_main.o) (alt_irq_init)
../demo_board_bsp//libhal_bsp.a(altera_avalon_cfi_flash.o)
                              ../demo_board_bsp//libhal_bsp.a(alt_sys_init.o) (alt_flash_cfi_get_info)
../demo_board_bsp//libhal_bsp.a(altera_avalon_cfi_flash_table.o)
                              ../demo_board_bsp//libhal_bsp.a(altera_avalon_cfi_flash.o) (alt_set_flash_width_func)
../demo_board_bsp//libhal_bsp.a(altera_avalon_jtag_uart_fd.o)
                              ../demo_board_bsp//libhal_bsp.a(alt_sys_init.o) (altera_avalon_jtag_uart_ioctl_fd)
../demo_board_bsp//libhal_bsp.a(altera_avalon_jtag_uart_init.o)
                              ../demo_board_bsp//libhal_bsp.a(altera_avalon_jtag_uart_fd.o) (altera_avalon_jtag_uart_close)
../demo_board_bsp//libhal_bsp.a(altera_avalon_jtag_uart_ioctl.o)
                              ../demo_board_bsp//libhal_bsp.a(altera_avalon_jtag_uart_fd.o) (altera_avalon_jtag_uart_ioctl)
../demo_board_bsp//libhal_bsp.a(altera_avalon_jtag_uart_read.o)
                              ../demo_board_bsp//libhal_bsp.a(altera_avalon_jtag_uart_fd.o) (altera_avalon_jtag_uart_read)
../demo_board_bsp//libhal_bsp.a(altera_avalon_jtag_uart_write.o)
                              ../demo_board_bsp//libhal_bsp.a(altera_avalon_jtag_uart_fd.o) (altera_avalon_jtag_uart_write)
../demo_board_bsp//libhal_bsp.a(altera_avalon_performance_counter.o)
                              obj/default/djpeg.o (alt_get_performance_counter_base)
../demo_board_bsp//libhal_bsp.a(altera_ro_zipfs.o)
                              ../demo_board_bsp//libhal_bsp.a(alt_sys_init.o) (alt_ro_zipfs_fstat)
../demo_board_bsp//libhal_bsp.a(altera_up_avalon_video_pixel_buffer_dma.o)
                              obj/default/djpeg.o (alt_up_pixel_buffer_dma_clear_screen)
../demo_board_bsp//libhal_bsp.a(perf_print_formatted_report.o)
                              obj/default/djpeg.o (perf_print_formatted_report)
../demo_board_bsp//libhal_bsp.a(alt_alarm_start.o)
                              ../demo_board_bsp//libhal_bsp.a(altera_avalon_jtag_uart_init.o) (alt_alarm_start)
../demo_board_bsp//libhal_bsp.a(alt_dcache_flush.o)
                              ../demo_board_bsp//libhal_bsp.a(altera_avalon_cfi_flash.o) (alt_dcache_flush)
../demo_board_bsp//libhal_bsp.a(alt_dcache_flush_all.o)
                              ../demo_board_bsp//libhal_bsp.a(alt_load.o) (alt_dcache_flush_all)
../demo_board_bsp//libhal_bsp.a(alt_dev_llist_insert.o)
                              ../demo_board_bsp//libhal_bsp.a(alt_sys_init.o) (alt_dev_llist_insert)
../demo_board_bsp//libhal_bsp.a(alt_do_ctors.o)
                              ../demo_board_bsp//libhal_bsp.a(alt_main.o) (_do_ctors)
../demo_board_bsp//libhal_bsp.a(alt_do_dtors.o)
                              ../demo_board_bsp//libhal_bsp.a(alt_main.o) (_do_dtors)
../demo_board_bsp//libhal_bsp.a(alt_find_dev.o)
                              ../demo_board_bsp//libhal_bsp.a(alt_open.o) (alt_find_dev)
../demo_board_bsp//libhal_bsp.a(alt_find_file.o)
                              ../demo_board_bsp//libhal_bsp.a(alt_open.o) (alt_find_file)
../demo_board_bsp//libhal_bsp.a(alt_flash_dev.o)
                              ../demo_board_bsp//libhal_bsp.a(altera_avalon_cfi_flash.o) (alt_flash_dev_list)
../demo_board_bsp//libhal_bsp.a(alt_fs_reg.o)
                              ../demo_board_bsp//libhal_bsp.a(alt_sys_init.o) (alt_fs_reg)
../demo_board_bsp//libhal_bsp.a(alt_get_fd.o)
                              ../demo_board_bsp//libhal_bsp.a(alt_open.o) (alt_get_fd)
../demo_board_bsp//libhal_bsp.a(alt_icache_flush_all.o)
                              ../demo_board_bsp//libhal_bsp.a(alt_load.o) (alt_icache_flush_all)
../demo_board_bsp//libhal_bsp.a(alt_iic.o)
                              ../demo_board_bsp//libhal_bsp.a(altera_avalon_jtag_uart_init.o) (alt_ic_isr_register)
../demo_board_bsp//libhal_bsp.a(alt_iic_isr_register.o)
                              ../demo_board_bsp//libhal_bsp.a(alt_iic.o) (alt_iic_isr_register)
../demo_board_bsp//libhal_bsp.a(alt_io_redirect.o)
                              ../demo_board_bsp//libhal_bsp.a(alt_main.o) (alt_io_redirect)
../demo_board_bsp//libhal_bsp.a(alt_irq_entry.o)
                              ../demo_board_bsp//libhal_bsp.a(alt_iic_isr_register.o) (alt_irq_entry)
../demo_board_bsp//libhal_bsp.a(alt_irq_handler.o)
                              ../demo_board_bsp//libhal_bsp.a(alt_iic_isr_register.o) (alt_irq_handler)
../demo_board_bsp//libhal_bsp.a(alt_irq_vars.o)
                              ../demo_board_bsp//libhal_bsp.a(alt_iic.o) (alt_irq_active)
../demo_board_bsp//libhal_bsp.a(alt_tick.o)
                              ../demo_board_bsp//libhal_bsp.a(alt_alarm_start.o) (_alt_nticks)
../demo_board_bsp//libhal_bsp.a(altera_nios2_qsys_irq.o)
                              ../demo_board_bsp//libhal_bsp.a(alt_sys_init.o) (altera_nios2_qsys_irq_init)
../demo_board_bsp//libhal_bsp.a(altera_avalon_cfi_flash_amd.o)
                              ../demo_board_bsp//libhal_bsp.a(altera_avalon_cfi_flash_table.o) (alt_erase_block_amd)
../demo_board_bsp//libhal_bsp.a(altera_avalon_cfi_flash_intel.o)
                              ../demo_board_bsp//libhal_bsp.a(altera_avalon_cfi_flash_table.o) (alt_erase_block_intel)
../demo_board_bsp//libhal_bsp.a(alt_exception_entry.o)
                              ../demo_board_bsp//libhal_bsp.a(alt_irq_entry.o) (alt_exception)
../demo_board_bsp//libhal_bsp.a(alt_usleep.o)
                              ../demo_board_bsp//libhal_bsp.a(altera_avalon_cfi_flash_amd.o) (usleep)
../demo_board_bsp//libhal_bsp.a(alt_busy_sleep.o)
                              ../demo_board_bsp//libhal_bsp.a(alt_usleep.o) (alt_busy_sleep)
/package/eda/altera/altera13.0sp1/nios2eds/bin/gnu/H-i686-pc-linux-gnu/bin/../lib/gcc/nios2-elf/4.1.2/../../../../nios2-elf/lib/mno-hw-mul/libc.a(lib_a-atexit.o)
                              ../demo_board_bsp//libhal_bsp.a(alt_main.o) (atexit)
/package/eda/altera/altera13.0sp1/nios2eds/bin/gnu/H-i686-pc-linux-gnu/bin/../lib/gcc/nios2-elf/4.1.2/../../../../nios2-elf/lib/mno-hw-mul/libc.a(lib_a-memcmp.o)
                              ../demo_board_bsp//libhal_bsp.a(altera_avalon_cfi_flash.o) (memcmp)
/package/eda/altera/altera13.0sp1/nios2eds/bin/gnu/H-i686-pc-linux-gnu/bin/../lib/gcc/nios2-elf/4.1.2/../../../../nios2-elf/lib/mno-hw-mul/libc.a(lib_a-__atexit.o)
                              /package/eda/altera/altera13.0sp1/nios2eds/bin/gnu/H-i686-pc-linux-gnu/bin/../lib/gcc/nios2-elf/4.1.2/../../../../nios2-elf/lib/mno-hw-mul/libc.a(lib_a-atexit.o) (__register_exitproc)
/package/eda/altera/altera13.0sp1/nios2eds/bin/gnu/H-i686-pc-linux-gnu/bin/../lib/gcc/nios2-elf/4.1.2/mno-hw-mul/libgcc.a(_floatundidf.o)
                              ../demo_board_bsp//libhal_bsp.a(perf_print_formatted_report.o) (__floatundidf)
/package/eda/altera/altera13.0sp1/nios2eds/bin/gnu/H-i686-pc-linux-gnu/bin/../lib/gcc/nios2-elf/4.1.2/mno-hw-mul/libgcc.a(lib2-divtable.o)
                              ../demo_board_bsp//libhal_bsp.a(altera_avalon_cfi_flash.o) (__divsi3_table)

Allocating common symbols
Common symbol       size              file

alt_irq             0x100             ../demo_board_bsp//libhal_bsp.a(alt_irq_handler.o)
errno               0x4               /package/eda/altera/altera13.0sp1/nios2eds/bin/gnu/H-i686-pc-linux-gnu/bin/../lib/gcc/nios2-elf/4.1.2/../../../../nios2-elf/lib/mno-hw-mul/libc.a(lib_a-int_errno.o)
__hexdig            0x100             /package/eda/altera/altera13.0sp1/nios2eds/bin/gnu/H-i686-pc-linux-gnu/bin/../lib/gcc/nios2-elf/4.1.2/../../../../nios2-elf/lib/mno-hw-mul/libc.a(lib_a-gdtoa-gethex.o)
_atexit0            0x190             /package/eda/altera/altera13.0sp1/nios2eds/bin/gnu/H-i686-pc-linux-gnu/bin/../lib/gcc/nios2-elf/4.1.2/../../../../nios2-elf/lib/mno-hw-mul/libc.a(lib_a-atexit.o)

Memory Configuration

Name             Origin             Length             Attributes
reset            0x08000000         0x00000020
new_sdram_controller_0 0x08000020         0x07ffffe0
generic_tristate_controller_0 0x10000000         0x00800000
*default*        0x00000000         0xffffffff

Linker script and memory map

LOAD ../demo_board_bsp//obj/HAL/src/crt0.o
LOAD obj/default/cdjpeg.o
LOAD obj/default/djpeg.o
LOAD obj/default/jcapimin.o
LOAD obj/default/jcapistd.o
LOAD obj/default/jccoefct.o
LOAD obj/default/jccolor.o
LOAD obj/default/jcdctmgr.o
LOAD obj/default/jchuff.o
LOAD obj/default/jcinit.o
LOAD obj/default/jcmainct.o
LOAD obj/default/jcmarker.o
LOAD obj/default/jcmaster.o
LOAD obj/default/jcomapi.o
LOAD obj/default/jcparam.o
LOAD obj/default/jcphuff.o
LOAD obj/default/jcprepct.o
LOAD obj/default/jcsample.o
LOAD obj/default/jctrans.o
LOAD obj/default/jdapimin.o
LOAD obj/default/jdapistd.o
LOAD obj/default/jdatadst.o
LOAD obj/default/jdatasrc.o
LOAD obj/default/jdcoefct.o
LOAD obj/default/jdcolor.o
LOAD obj/default/jddctmgr.o
LOAD obj/default/jdhuff.o
LOAD obj/default/jdinput.o
LOAD obj/default/jdmainct.o
LOAD obj/default/jdmarker.o
LOAD obj/default/jdmaster.o
LOAD obj/default/jdmerge.o
LOAD obj/default/jdphuff.o
LOAD obj/default/jdpostct.o
LOAD obj/default/jdsample.o
LOAD obj/default/jdtrans.o
LOAD obj/default/jerror.o
LOAD obj/default/jfdctflt.o
LOAD obj/default/jfdctfst.o
LOAD obj/default/jfdctint.o
LOAD obj/default/jidctflt.o
LOAD obj/default/jidctfst.o
LOAD obj/default/jidctint.o
LOAD obj/default/jidctred.o
LOAD obj/default/jmemmgr.o
LOAD obj/default/jmemnobs.o
LOAD obj/default/jquant1.o
LOAD obj/default/jquant2.o
LOAD obj/default/jutils.o
LOAD obj/default/rdcolmap.o
LOAD obj/default/wrbmp.o
LOAD obj/default/wrgif.o
LOAD obj/default/wrppm.o
LOAD obj/default/wrrle.o
LOAD obj/default/wrtarga.o
LOAD /package/eda/altera/altera13.0sp1/nios2eds/bin/gnu/H-i686-pc-linux-gnu/bin/../lib/gcc/nios2-elf/4.1.2/../../../../nios2-elf/lib/mno-hw-mul/libstdc++.a
LOAD /package/eda/altera/altera13.0sp1/nios2eds/bin/gnu/H-i686-pc-linux-gnu/bin/../lib/gcc/nios2-elf/4.1.2/../../../../nios2-elf/lib/mno-hw-mul/libm.a
LOAD /package/eda/altera/altera13.0sp1/nios2eds/bin/gnu/H-i686-pc-linux-gnu/bin/../lib/gcc/nios2-elf/4.1.2/mno-hw-mul/libgcc.a
START GROUP
LOAD /package/eda/altera/altera13.0sp1/nios2eds/bin/gnu/H-i686-pc-linux-gnu/bin/../lib/gcc/nios2-elf/4.1.2/../../../../nios2-elf/lib/mno-hw-mul/libc.a
LOAD /package/eda/altera/altera13.0sp1/nios2eds/bin/gnu/H-i686-pc-linux-gnu/bin/../lib/gcc/nios2-elf/4.1.2/mno-hw-mul/libgcc.a
LOAD ../demo_board_bsp//libhal_bsp.a
END GROUP
LOAD /package/eda/altera/altera13.0sp1/nios2eds/bin/gnu/H-i686-pc-linux-gnu/bin/../lib/gcc/nios2-elf/4.1.2/mno-hw-mul/libgcc.a
                0x08000000                __alt_mem_new_sdram_controller_0 = 0x8000000
                0x10000000                __alt_mem_generic_tristate_controller_0 = 0x10000000

.entry          0x08000000       0x20
 *(.entry)
 .entry         0x08000000       0x20 ../demo_board_bsp//obj/HAL/src/crt0.o
                0x08000000                __reset

.exceptions     0x08000020      0x164
                0x08000020                PROVIDE (__ram_exceptions_start, ABSOLUTE (.))
                0x08000020                . = ALIGN (0x20)
 *(.irq)
 *(.exceptions.entry.label)
 .exceptions.entry.label
                0x08000020        0x0 ../demo_board_bsp//libhal_bsp.a(alt_irq_entry.o)
                0x08000020                alt_irq_entry
 .exceptions.entry.label
                0x08000020        0x0 ../demo_board_bsp//libhal_bsp.a(alt_exception_entry.o)
                0x08000020                alt_exception
 *(.exceptions.entry.user)
 *(.exceptions.entry)
 .exceptions.entry
                0x08000020       0x54 ../demo_board_bsp//libhal_bsp.a(alt_exception_entry.o)
 *(.exceptions.irqtest.user)
 *(.exceptions.irqtest)
 .exceptions.irqtest
                0x08000074       0x10 ../demo_board_bsp//libhal_bsp.a(alt_irq_entry.o)
 *(.exceptions.irqhandler.user)
 *(.exceptions.irqhandler)
 .exceptions.irqhandler
                0x08000084        0x4 ../demo_board_bsp//libhal_bsp.a(alt_irq_entry.o)
 *(.exceptions.irqreturn.user)
 *(.exceptions.irqreturn)
 .exceptions.irqreturn
                0x08000088        0x4 ../demo_board_bsp//libhal_bsp.a(alt_irq_entry.o)
 *(.exceptions.notirq.label)
 .exceptions.notirq.label
                0x0800008c        0x0 ../demo_board_bsp//libhal_bsp.a(alt_irq_entry.o)
 *(.exceptions.notirq.user)
 *(.exceptions.notirq)
 .exceptions.notirq
                0x0800008c        0x8 ../demo_board_bsp//libhal_bsp.a(alt_exception_entry.o)
 *(.exceptions.soft.user)
 *(.exceptions.soft)
 *(.exceptions.unknown.user)
 *(.exceptions.unknown)
 .exceptions.unknown
                0x08000094        0x4 ../demo_board_bsp//libhal_bsp.a(alt_exception_entry.o)
 *(.exceptions.exit.label)
 .exceptions.exit.label
                0x08000098        0x0 ../demo_board_bsp//libhal_bsp.a(alt_irq_entry.o)
 .exceptions.exit.label
                0x08000098        0x0 ../demo_board_bsp//libhal_bsp.a(alt_exception_entry.o)
 *(.exceptions.exit.user)
 *(.exceptions.exit)
 .exceptions.exit
                0x08000098       0x54 ../demo_board_bsp//libhal_bsp.a(alt_exception_entry.o)
 *(.exceptions)
 .exceptions    0x080000ec       0x98 ../demo_board_bsp//libhal_bsp.a(alt_irq_handler.o)
                0x080000ec                alt_irq_handler
                0x08000184                PROVIDE (__ram_exceptions_end, ABSOLUTE (.))
                0x08000020                PROVIDE (__flash_exceptions_start, LOADADDR (.exceptions))

.text           0x08000184    0x32f84
                0x08000184                PROVIDE (stext, ABSOLUTE (.))
 *(.interp)
 *(.hash)
 *(.dynsym)
 *(.dynstr)
 *(.gnu.version)
 *(.gnu.version_d)
 *(.gnu.version_r)
 *(.rel.init)
 *(.rela.init)
 *(.rel.text .rel.text.* .rel.gnu.linkonce.t.*)
 *(.rela.text .rela.text.* .rela.gnu.linkonce.t.*)
 *(.rel.fini)
 *(.rela.fini)
 *(.rel.rodata .rel.rodata.* .rel.gnu.linkonce.r.*)
 *(.rela.rodata .rela.rodata.* .rela.gnu.linkonce.r.*)
 *(.rel.data .rel.data.* .rel.gnu.linkonce.d.*)
 *(.rela.data .rela.data.* .rela.gnu.linkonce.d.*)
 *(.rel.tdata .rel.tdata.* .rel.gnu.linkonce.td.*)
 *(.rela.tdata .rela.tdata.* .rela.gnu.linkonce.td.*)
 *(.rel.tbss .rel.tbss.* .rel.gnu.linkonce.tb.*)
 *(.rela.tbss .rela.tbss.* .rela.gnu.linkonce.tb.*)
 *(.rel.ctors)
 *(.rela.ctors)
 *(.rel.dtors)
 *(.rela.dtors)
 *(.rel.got)
 *(.rela.got)
 *(.rel.sdata .rel.sdata.* .rel.gnu.linkonce.s.*)
 *(.rela.sdata .rela.sdata.* .rela.gnu.linkonce.s.*)
 *(.rel.sbss .rel.sbss.* .rel.gnu.linkonce.sb.*)
 *(.rela.sbss .rela.sbss.* .rela.gnu.linkonce.sb.*)
 *(.rel.sdata2 .rel.sdata2.* .rel.gnu.linkonce.s2.*)
 *(.rela.sdata2 .rela.sdata2.* .rela.gnu.linkonce.s2.*)
 *(.rel.sbss2 .rel.sbss2.* .rel.gnu.linkonce.sb2.*)
 *(.rela.sbss2 .rela.sbss2.* .rela.gnu.linkonce.sb2.*)
 *(.rel.bss .rel.bss.* .rel.gnu.linkonce.b.*)
 *(.rela.bss .rela.bss.* .rela.gnu.linkonce.b.*)
 *(.rel.plt)
 *(.rela.plt)
 *(.rel.dyn)
 *(.init)
 *(.plt)
 *(.text .stub .text.* .gnu.linkonce.t.*)
 .text          0x08000184       0x3c ../demo_board_bsp//obj/HAL/src/crt0.o
                0x08000184                _start
 .text          0x080001c0       0xa4 obj/default/cdjpeg.o
                0x080001c0                keymatch
                0x0800023c                read_stdin
                0x08000250                write_stdout
 .text          0x08000264     0x1004 obj/default/djpeg.o
                0x08000de8                capture_cmd_args
                0x08000ea0                main
 .text          0x08001268      0x408 obj/default/jcapimin.o
                0x08001268                jpeg_suppress_tables
                0x080012c8                jpeg_write_marker
                0x0800135c                jpeg_write_tables
                0x080013f4                jpeg_finish_compress
                0x0800155c                jpeg_abort_compress
                0x08001560                jpeg_destroy_compress
                0x08001564                jpeg_CreateCompress
 .text          0x08001670      0x350 obj/default/jcapistd.o
                0x08001670                jpeg_write_scanlines
                0x0800177c                jpeg_write_raw_data
                0x08001904                jpeg_start_compress
 .text          0x080019c0      0xab4 obj/default/jccoefct.o
                0x08001d80                jinit_c_coef_controller
 .text          0x08002474      0x840 obj/default/jccolor.o
                0x080029b4                jinit_color_converter
 .text          0x08002cb4      0x7a0 obj/default/jcdctmgr.o
                0x08003358                jinit_forward_dct
 .text          0x08003454     0x164c obj/default/jchuff.o
                0x080036ac                jinit_huff_encoder
                0x08003714                jpeg_make_c_derived_tbl
                0x08003b40                jpeg_gen_optimal_table
 .text          0x08004aa0       0xf0 obj/default/jcinit.o
                0x08004aa0                jinit_compress_master
 .text          0x08004b90      0x264 obj/default/jcmainct.o
                0x08004d04                jinit_c_main_controller
 .text          0x08004df4      0xb94 obj/default/jcmarker.o
                0x08005908                jinit_marker_writer
 .text          0x08005988      0xf1c obj/default/jcmaster.o
                0x08006058                jinit_c_master_control
 .text          0x080068a4       0xe8 obj/default/jcomapi.o
                0x080068a4                jpeg_abort
                0x080068fc                jpeg_destroy
                0x08006934                jpeg_alloc_quant_table
                0x08006960                jpeg_alloc_huff_table
 .text          0x0800698c      0xc50 obj/default/jcparam.o
                0x0800698c                jpeg_quality_scaling
                0x080069f0                jpeg_set_colorspace
                0x08006d70                jpeg_default_colorspace
                0x08006f20                jpeg_simple_progression
                0x080072ac                jpeg_add_quant_table
                0x080073bc                jpeg_set_linear_quality
                0x08007428                jpeg_set_quality
                0x08007468                jpeg_set_defaults
 .text          0x080075dc     0x1b3c obj/default/jcphuff.o
                0x08007640                jinit_phuff_encoder
 .text          0x08009118      0x7cc obj/default/jcprepct.o
                0x08009178                jinit_c_prep_controller
 .text          0x080098e4      0xdfc obj/default/jcsample.o
                0x0800a430                jinit_downsampler
 .text          0x0800a6e0      0x788 obj/default/jctrans.o
                0x0800aa4c                jpeg_copy_critical_parameters
                0x0800acd4                jpeg_write_coefficients
 .text          0x0800ae68      0x6e0 obj/default/jdapimin.o
                0x0800ae68                jpeg_set_marker_processor
                0x0800aec4                jpeg_consume_input
                0x0800b1c0                jpeg_input_complete
                0x0800b218                jpeg_has_multiple_scans
                0x0800b270                jpeg_finish_decompress
                0x0800b370                jpeg_read_header
                0x0800b430                jpeg_abort_decompress
                0x0800b434                jpeg_destroy_decompress
                0x0800b438                jpeg_CreateDecompress
 .text          0x0800b548      0x5fc obj/default/jdapistd.o
                0x0800b648                jpeg_read_scanlines
                0x0800b740                jpeg_read_raw_data
                0x0800b8a8                jpeg_start_output
                0x0800b94c                jpeg_finish_output
                0x0800ba10                jpeg_start_decompress
 .text          0x0800bb44      0x1fc obj/default/jdatadst.o
                0x0800bb90                jpeg_stdio_dest
 .text          0x0800bd40      0x200 obj/default/jdatasrc.o
                0x0800bd54                jpeg_stdio_src
 .text          0x0800bf40     0x12a4 obj/default/jdcoefct.o
                0x0800c5c0                jinit_d_coef_controller
 .text          0x0800d1e4      0x698 obj/default/jdcolor.o
                0x0800d520                jinit_color_deconverter
 .text          0x0800d87c      0x3ec obj/default/jddctmgr.o
                0x0800dba4                jinit_inverse_dct
 .text          0x0800dc68      0xd30 obj/default/jdhuff.o
                0x0800dc68                jpeg_fill_bit_buffer
                0x0800ddfc                jpeg_huff_decode
                0x0800e508                jinit_huff_decoder
                0x0800e574                jpeg_make_d_derived_tbl
 .text          0x0800e998      0x728 obj/default/jdinput.o
                0x0800ea0c                jinit_input_controller
 .text          0x0800f0c0      0xa18 obj/default/jdmainct.o
                0x0800f86c                jinit_d_main_controller
 .text          0x0800fad8     0x204c obj/default/jdmarker.o
                0x080108a4                jpeg_resync_to_restart
                0x08010a54                jinit_marker_reader
 .text          0x08011b24      0x9f4 obj/default/jdmaster.o
                0x08011de4                jpeg_new_colormap
                0x08011e90                jpeg_calc_output_dimensions
                0x080121b4                jinit_master_decompress
 .text          0x08012518      0x8b0 obj/default/jdmerge.o
                0x08012ac8                jinit_merged_upsampler
 .text          0x08012dc8     0x114c obj/default/jdphuff.o
                0x08012e80                jinit_phuff_decoder
 .text          0x08013f14      0x524 obj/default/jdpostct.o
                0x08014330                jinit_d_post_controller
 .text          0x08014438      0x994 obj/default/jdsample.o
                0x08014748                jinit_upsampler
 .text          0x08014dcc      0x1c0 obj/default/jdtrans.o
                0x08014dcc                jpeg_read_coefficients
 .text          0x08014f8c      0x268 obj/default/jerror.o
                0x08015014                jpeg_std_error
 .text          0x080151f4      0x530 obj/default/jfdctflt.o
                0x080151f4                jpeg_fdct_float
 .text          0x08015724      0x2a0 obj/default/jfdctfst.o
                0x08015724                jpeg_fdct_ifast
 .text          0x080159c4      0x408 obj/default/jfdctint.o
                0x080159c4                jpeg_fdct_islow
 .text          0x08015dcc      0x81c obj/default/jidctflt.o
                0x08015dcc                jpeg_idct_float
 .text          0x080165e8      0x594 obj/default/jidctfst.o
                0x080165e8                jpeg_idct_ifast
 .text          0x08016b7c      0x724 obj/default/jidctint.o
                0x08016b7c                jpeg_idct_islow
 .text          0x080172a0      0x818 obj/default/jidctred.o
                0x080172a0                jpeg_idct_4x4
                0x08017770                jpeg_idct_2x2
                0x08017a58                jpeg_idct_1x1
 .text          0x08017ab8     0x148c obj/default/jmemmgr.o
                0x080181c0                jinit_memory_mgr
 .text          0x08018f44       0x48 obj/default/jmemnobs.o
                0x08018f44                jpeg_mem_available
                0x08018f4c                jpeg_open_backing_store
                0x08018f60                jpeg_mem_init
                0x08018f68                jpeg_mem_term
                0x08018f6c                jpeg_free_large
                0x08018f74                jpeg_free_small
                0x08018f7c                jpeg_get_large
                0x08018f84                jpeg_get_small
 .text          0x08018f8c     0x10e4 obj/default/jquant1.o
                0x08019564                jinit_1pass_quantizer
 .text          0x0801a070     0x1998 obj/default/jquant2.o
                0x0801b65c                jinit_2pass_quantizer
 .text          0x0801ba08       0xec obj/default/jutils.o
                0x0801ba08                jdiv_round_up
                0x0801ba28                jround_up
                0x0801ba58                jzero_far
                0x0801ba64                jcopy_block_row
                0x0801ba78                jcopy_sample_rows
 .text          0x0801baf4      0x65c obj/default/rdcolmap.o
                0x0801bd6c                read_color_map
 .text          0x0801c150      0x9f8 obj/default/wrbmp.o
                0x0801c2c4                jinit_write_bmp
 .text          0x0801cb48      0x978 obj/default/wrgif.o
                0x0801cb48                jinit_write_gif
 .text          0x0801d4c0      0x3a0 obj/default/wrppm.o
                0x0801d4c4                jinit_write_ppm
 .text          0x0801d860        0x0 obj/default/wrrle.o
 .text          0x0801d860      0x4b0 obj/default/wrtarga.o
                0x0801d860                jinit_write_targa
 .text          0x0801dd10      0x2b8 /package/eda/altera/altera13.0sp1/nios2eds/bin/gnu/H-i686-pc-linux-gnu/bin/../lib/gcc/nios2-elf/4.1.2/mno-hw-mul/libgcc.a(_addsub_sf.o)
                0x0801def4                __subsf3
                0x0801df64                __addsf3
 .text          0x0801dfc8      0x1e0 /package/eda/altera/altera13.0sp1/nios2eds/bin/gnu/H-i686-pc-linux-gnu/bin/../lib/gcc/nios2-elf/4.1.2/mno-hw-mul/libgcc.a(_mul_sf.o)
                0x0801dfc8                __mulsf3
 .text          0x0801e1a8       0x98 /package/eda/altera/altera13.0sp1/nios2eds/bin/gnu/H-i686-pc-linux-gnu/bin/../lib/gcc/nios2-elf/4.1.2/mno-hw-mul/libgcc.a(_si_to_sf.o)
                0x0801e1a8                __floatsisf
 .text          0x0801e240       0x94 /package/eda/altera/altera13.0sp1/nios2eds/bin/gnu/H-i686-pc-linux-gnu/bin/../lib/gcc/nios2-elf/4.1.2/mno-hw-mul/libgcc.a(_sf_to_si.o)
                0x0801e240                __fixsfsi
 .text          0x0801e2d4        0x0 /package/eda/altera/altera13.0sp1/nios2eds/bin/gnu/H-i686-pc-linux-gnu/bin/../lib/gcc/nios2-elf/4.1.2/mno-hw-mul/libgcc.a(_thenan_sf.o)
 .text          0x0801e2d4      0x3c4 /package/eda/altera/altera13.0sp1/nios2eds/bin/gnu/H-i686-pc-linux-gnu/bin/../lib/gcc/nios2-elf/4.1.2/mno-hw-mul/libgcc.a(_mul_df.o)
                0x0801e2d4                __muldf3
 .text          0x0801e698      0x258 /package/eda/altera/altera13.0sp1/nios2eds/bin/gnu/H-i686-pc-linux-gnu/bin/../lib/gcc/nios2-elf/4.1.2/mno-hw-mul/libgcc.a(_div_df.o)
                0x0801e698                __divdf3
 .text          0x0801e8f0       0x74 /package/eda/altera/altera13.0sp1/nios2eds/bin/gnu/H-i686-pc-linux-gnu/bin/../lib/gcc/nios2-elf/4.1.2/mno-hw-mul/libgcc.a(_df_to_sf.o)
                0x0801e8f0                __truncdfsf2
 .text          0x0801e964        0x0 /package/eda/altera/altera13.0sp1/nios2eds/bin/gnu/H-i686-pc-linux-gnu/bin/../lib/gcc/nios2-elf/4.1.2/mno-hw-mul/libgcc.a(_thenan_df.o)
 .text          0x0801e964      0x194 /package/eda/altera/altera13.0sp1/nios2eds/bin/gnu/H-i686-pc-linux-gnu/bin/../lib/gcc/nios2-elf/4.1.2/mno-hw-mul/libgcc.a(_usi_to_df.o)
                0x0801e964                __floatunsidf
 .text          0x0801eaf8      0x14c /package/eda/altera/altera13.0sp1/nios2eds/bin/gnu/H-i686-pc-linux-gnu/bin/../lib/gcc/nios2-elf/4.1.2/mno-hw-mul/libgcc.a(lib2-divmod.o)
                0x0801eb74                __divsi3
                0x0801ebd4                __modsi3
                0x0801ec34                __udivsi3
                0x0801ec3c                __umodsi3
 .text          0x0801ec44       0x38 /package/eda/altera/altera13.0sp1/nios2eds/bin/gnu/H-i686-pc-linux-gnu/bin/../lib/gcc/nios2-elf/4.1.2/mno-hw-mul/libgcc.a(lib2-mul.o)
                0x0801ec44                __mulsi3
 .text          0x0801ec7c      0x124 /package/eda/altera/altera13.0sp1/nios2eds/bin/gnu/H-i686-pc-linux-gnu/bin/../lib/gcc/nios2-elf/4.1.2/mno-hw-mul/libgcc.a(_muldi3.o)
                0x0801ec7c                __muldi3
 .text          0x0801eda0       0x80 /package/eda/altera/altera13.0sp1/nios2eds/bin/gnu/H-i686-pc-linux-gnu/bin/../lib/gcc/nios2-elf/4.1.2/mno-hw-mul/libgcc.a(_clzsi2.o)
                0x0801eda0                __clzsi2
 .text          0x0801ee20      0x160 /package/eda/altera/altera13.0sp1/nios2eds/bin/gnu/H-i686-pc-linux-gnu/bin/../lib/gcc/nios2-elf/4.1.2/mno-hw-mul/libgcc.a(_pack_sf.o)
                0x0801ee20                __pack_f
 .text          0x0801ef80       0xc8 /package/eda/altera/altera13.0sp1/nios2eds/bin/gnu/H-i686-pc-linux-gnu/bin/../lib/gcc/nios2-elf/4.1.2/mno-hw-mul/libgcc.a(_unpack_sf.o)
                0x0801ef80                __unpack_f
 .text          0x0801f048       0x2c /package/eda/altera/altera13.0sp1/nios2eds/bin/gnu/H-i686-pc-linux-gnu/bin/../lib/gcc/nios2-elf/4.1.2/mno-hw-mul/libgcc.a(_make_sf.o)
                0x0801f048                __make_fp
 .text          0x0801f074      0x314 /package/eda/altera/altera13.0sp1/nios2eds/bin/gnu/H-i686-pc-linux-gnu/bin/../lib/gcc/nios2-elf/4.1.2/mno-hw-mul/libgcc.a(_pack_df.o)
                0x0801f074                __pack_d
 .text          0x0801f388      0x138 /package/eda/altera/altera13.0sp1/nios2eds/bin/gnu/H-i686-pc-linux-gnu/bin/../lib/gcc/nios2-elf/4.1.2/mno-hw-mul/libgcc.a(_unpack_df.o)
                0x0801f388                __unpack_d
 .text          0x0801f4c0        0x0 /package/eda/altera/altera13.0sp1/nios2eds/bin/gnu/H-i686-pc-linux-gnu/bin/../lib/gcc/nios2-elf/4.1.2/mno-hw-mul/libgcc.a(_clz.o)
 .text          0x0801f4c0        0x0 /package/eda/altera/altera13.0sp1/nios2eds/bin/gnu/H-i686-pc-linux-gnu/bin/../lib/gcc/nios2-elf/4.1.2/../../../../nios2-elf/lib/mno-hw-mul/libc.a(lib_a-ctype_.o)
 .text          0x0801f4c0       0x38 /package/eda/altera/altera13.0sp1/nios2eds/bin/gnu/H-i686-pc-linux-gnu/bin/../lib/gcc/nios2-elf/4.1.2/../../../../nios2-elf/lib/mno-hw-mul/libc.a(lib_a-exit.o)
                0x0801f4c0                exit
 .text          0x0801f4f8      0x124 /package/eda/altera/altera13.0sp1/nios2eds/bin/gnu/H-i686-pc-linux-gnu/bin/../lib/gcc/nios2-elf/4.1.2/../../../../nios2-elf/lib/mno-hw-mul/libc.a(lib_a-fclose.o)
                0x0801f4f8                _fclose_r
                0x0801f608                fclose
 .text          0x0801f61c      0x230 /package/eda/altera/altera13.0sp1/nios2eds/bin/gnu/H-i686-pc-linux-gnu/bin/../lib/gcc/nios2-elf/4.1.2/../../../../nios2-elf/lib/mno-hw-mul/libc.a(lib_a-fflush.o)
                0x0801f61c                _fflush_r
                0x0801f818                fflush
 .text          0x0801f84c      0x2f4 /package/eda/altera/altera13.0sp1/nios2eds/bin/gnu/H-i686-pc-linux-gnu/bin/../lib/gcc/nios2-elf/4.1.2/../../../../nios2-elf/lib/mno-hw-mul/libc.a(lib_a-findfp.o)
                0x0801f8a4                __sfp_lock_acquire
                0x0801f8a8                __sfp_lock_release
                0x0801f8ac                __sinit_lock_acquire
                0x0801f8b0                __sinit_lock_release
                0x0801f8b4                __sinit
                0x0801f968                __fp_unlock_all
                0x0801f980                __fp_lock_all
                0x0801f998                _cleanup_r
                0x0801f9a4                _cleanup
                0x0801f9b4                __sfmoreglue
                0x0801fa50                __sfp
 .text          0x0801fb40      0x110 /package/eda/altera/altera13.0sp1/nios2eds/bin/gnu/H-i686-pc-linux-gnu/bin/../lib/gcc/nios2-elf/4.1.2/../../../../nios2-elf/lib/mno-hw-mul/libc.a(lib_a-fopen.o)
                0x0801fb40                _fopen_r
                0x0801fc34                fopen
 .text          0x0801fc50       0x60 /package/eda/altera/altera13.0sp1/nios2eds/bin/gnu/H-i686-pc-linux-gnu/bin/../lib/gcc/nios2-elf/4.1.2/../../../../nios2-elf/lib/mno-hw-mul/libc.a(lib_a-fprintf.o)
                0x0801fc50                fprintf
                0x0801fc7c                _fprintf_r
 .text          0x0801fcb0       0xbc /package/eda/altera/altera13.0sp1/nios2eds/bin/gnu/H-i686-pc-linux-gnu/bin/../lib/gcc/nios2-elf/4.1.2/../../../../nios2-elf/lib/mno-hw-mul/libc.a(lib_a-fputc.o)
                0x0801fcb0                fputc
                0x0801fd14                _fputc_r
 .text          0x0801fd6c      0x24c /package/eda/altera/altera13.0sp1/nios2eds/bin/gnu/H-i686-pc-linux-gnu/bin/../lib/gcc/nios2-elf/4.1.2/../../../../nios2-elf/lib/mno-hw-mul/libc.a(lib_a-fread.o)
                0x0801fd6c                _fread_r
                0x0801ff78                fread
 .text          0x0801ffb8      0x440 /package/eda/altera/altera13.0sp1/nios2eds/bin/gnu/H-i686-pc-linux-gnu/bin/../lib/gcc/nios2-elf/4.1.2/../../../../nios2-elf/lib/mno-hw-mul/libc.a(lib_a-freer.o)
                0x0801ffb8                _malloc_trim_r
                0x080200e4                _free_r
 .text          0x080203f8      0x460 /package/eda/altera/altera13.0sp1/nios2eds/bin/gnu/H-i686-pc-linux-gnu/bin/../lib/gcc/nios2-elf/4.1.2/../../../../nios2-elf/lib/mno-hw-mul/libc.a(lib_a-fseek.o)
                0x080203f8                _fseek_r
                0x08020834                fseek
 .text          0x08020858       0x74 /package/eda/altera/altera13.0sp1/nios2eds/bin/gnu/H-i686-pc-linux-gnu/bin/../lib/gcc/nios2-elf/4.1.2/../../../../nios2-elf/lib/mno-hw-mul/libc.a(lib_a-fstatr.o)
                0x08020858                _fstat_r
 .text          0x080208cc      0x180 /package/eda/altera/altera13.0sp1/nios2eds/bin/gnu/H-i686-pc-linux-gnu/bin/../lib/gcc/nios2-elf/4.1.2/../../../../nios2-elf/lib/mno-hw-mul/libc.a(lib_a-fwalk.o)
                0x080208cc                _fwalk_reent
                0x08020994                _fwalk
 .text          0x08020a4c       0xec /package/eda/altera/altera13.0sp1/nios2eds/bin/gnu/H-i686-pc-linux-gnu/bin/../lib/gcc/nios2-elf/4.1.2/../../../../nios2-elf/lib/mno-hw-mul/libc.a(lib_a-fwrite.o)
                0x08020a4c                _fwrite_r
                0x08020af8                fwrite
 .text          0x08020b38      0x128 /package/eda/altera/altera13.0sp1/nios2eds/bin/gnu/H-i686-pc-linux-gnu/bin/../lib/gcc/nios2-elf/4.1.2/../../../../nios2-elf/lib/mno-hw-mul/libc.a(lib_a-getc.o)
                0x08020b38                getc
                0x08020bd0                _getc_r
 .text          0x08020c60       0x48 /package/eda/altera/altera13.0sp1/nios2eds/bin/gnu/H-i686-pc-linux-gnu/bin/../lib/gcc/nios2-elf/4.1.2/../../../../nios2-elf/lib/mno-hw-mul/libc.a(lib_a-getenv.o)
                0x08020c60                getenv
                0x08020c8c                _findenv
 .text          0x08020ca8      0x128 /package/eda/altera/altera13.0sp1/nios2eds/bin/gnu/H-i686-pc-linux-gnu/bin/../lib/gcc/nios2-elf/4.1.2/../../../../nios2-elf/lib/mno-hw-mul/libc.a(lib_a-getenv_r.o)
                0x08020ca8                _findenv_r
                0x08020db4                _getenv_r
 .text          0x08020dd0        0x0 /package/eda/altera/altera13.0sp1/nios2eds/bin/gnu/H-i686-pc-linux-gnu/bin/../lib/gcc/nios2-elf/4.1.2/../../../../nios2-elf/lib/mno-hw-mul/libc.a(lib_a-impure.o)
 .text          0x08020dd0        0x0 /package/eda/altera/altera13.0sp1/nios2eds/bin/gnu/H-i686-pc-linux-gnu/bin/../lib/gcc/nios2-elf/4.1.2/../../../../nios2-elf/lib/mno-hw-mul/libc.a(lib_a-int_errno.o)
 .text          0x08020dd0      0x194 /package/eda/altera/altera13.0sp1/nios2eds/bin/gnu/H-i686-pc-linux-gnu/bin/../lib/gcc/nios2-elf/4.1.2/../../../../nios2-elf/lib/mno-hw-mul/libc.a(lib_a-makebuf.o)
                0x08020dd0                __smakebuf_r
 .text          0x08020f64       0x28 /package/eda/altera/altera13.0sp1/nios2eds/bin/gnu/H-i686-pc-linux-gnu/bin/../lib/gcc/nios2-elf/4.1.2/../../../../nios2-elf/lib/mno-hw-mul/libc.a(lib_a-malloc.o)
                0x08020f64                free
                0x08020f78                malloc
 .text          0x08020f8c      0x740 /package/eda/altera/altera13.0sp1/nios2eds/bin/gnu/H-i686-pc-linux-gnu/bin/../lib/gcc/nios2-elf/4.1.2/../../../../nios2-elf/lib/mno-hw-mul/libc.a(lib_a-mallocr.o)
                0x08020f8c                _malloc_r
 .text          0x080216cc       0xa0 /package/eda/altera/altera13.0sp1/nios2eds/bin/gnu/H-i686-pc-linux-gnu/bin/../lib/gcc/nios2-elf/4.1.2/../../../../nios2-elf/lib/mno-hw-mul/libc.a(lib_a-memcpy.o)
                0x080216cc                memcpy
 .text          0x0802176c       0x98 /package/eda/altera/altera13.0sp1/nios2eds/bin/gnu/H-i686-pc-linux-gnu/bin/../lib/gcc/nios2-elf/4.1.2/../../../../nios2-elf/lib/mno-hw-mul/libc.a(lib_a-memset.o)
                0x0802176c                memset
 .text          0x08021804       0x78 /package/eda/altera/altera13.0sp1/nios2eds/bin/gnu/H-i686-pc-linux-gnu/bin/../lib/gcc/nios2-elf/4.1.2/../../../../nios2-elf/lib/mno-hw-mul/libc.a(lib_a-openr.o)
                0x08021804                _open_r
 .text          0x0802187c       0x78 /package/eda/altera/altera13.0sp1/nios2eds/bin/gnu/H-i686-pc-linux-gnu/bin/../lib/gcc/nios2-elf/4.1.2/../../../../nios2-elf/lib/mno-hw-mul/libc.a(lib_a-printf.o)
                0x0802187c                printf
                0x080218c0                _printf_r
 .text          0x080218f4      0x1ec /package/eda/altera/altera13.0sp1/nios2eds/bin/gnu/H-i686-pc-linux-gnu/bin/../lib/gcc/nios2-elf/4.1.2/../../../../nios2-elf/lib/mno-hw-mul/libc.a(lib_a-putc.o)
                0x080218f4                putc
                0x080219f8                _putc_r
 .text          0x08021ae0       0xb4 /package/eda/altera/altera13.0sp1/nios2eds/bin/gnu/H-i686-pc-linux-gnu/bin/../lib/gcc/nios2-elf/4.1.2/../../../../nios2-elf/lib/mno-hw-mul/libc.a(lib_a-puts.o)
                0x08021ae0                _puts_r
                0x08021b80                puts
 .text          0x08021b94      0x1e0 /package/eda/altera/altera13.0sp1/nios2eds/bin/gnu/H-i686-pc-linux-gnu/bin/../lib/gcc/nios2-elf/4.1.2/../../../../nios2-elf/lib/mno-hw-mul/libc.a(lib_a-refill.o)
                0x08021b94                __srefill_r
 .text          0x08021d74       0x60 /package/eda/altera/altera13.0sp1/nios2eds/bin/gnu/H-i686-pc-linux-gnu/bin/../lib/gcc/nios2-elf/4.1.2/../../../../nios2-elf/lib/mno-hw-mul/libc.a(lib_a-rget.o)
                0x08021d74                __srget_r
                0x08021dc0                __srget
 .text          0x08021dd4       0x70 /package/eda/altera/altera13.0sp1/nios2eds/bin/gnu/H-i686-pc-linux-gnu/bin/../lib/gcc/nios2-elf/4.1.2/../../../../nios2-elf/lib/mno-hw-mul/libc.a(lib_a-sbrkr.o)
                0x08021dd4                _sbrk_r
 .text          0x08021e44       0xd4 /package/eda/altera/altera13.0sp1/nios2eds/bin/gnu/H-i686-pc-linux-gnu/bin/../lib/gcc/nios2-elf/4.1.2/../../../../nios2-elf/lib/mno-hw-mul/libc.a(lib_a-sprintf.o)
                0x08021e44                sprintf
                0x08021eb8                _sprintf_r
 .text          0x08021f18      0x114 /package/eda/altera/altera13.0sp1/nios2eds/bin/gnu/H-i686-pc-linux-gnu/bin/../lib/gcc/nios2-elf/4.1.2/../../../../nios2-elf/lib/mno-hw-mul/libc.a(lib_a-sscanf.o)
                0x08021f20                _sscanf_r
                0x08021fa8                sscanf
 .text          0x0802202c      0x14c /package/eda/altera/altera13.0sp1/nios2eds/bin/gnu/H-i686-pc-linux-gnu/bin/../lib/gcc/nios2-elf/4.1.2/../../../../nios2-elf/lib/mno-hw-mul/libc.a(lib_a-stdio.o)
                0x0802202c                __sclose
                0x08022034                __sseek
                0x0802209c                __swrite
                0x08022118                __sread
 .text          0x08022178       0x14 /package/eda/altera/altera13.0sp1/nios2eds/bin/gnu/H-i686-pc-linux-gnu/bin/../lib/gcc/nios2-elf/4.1.2/../../../../nios2-elf/lib/mno-hw-mul/libc.a(lib_a-strdup.o)
                0x08022178                strdup
 .text          0x0802218c       0x68 /package/eda/altera/altera13.0sp1/nios2eds/bin/gnu/H-i686-pc-linux-gnu/bin/../lib/gcc/nios2-elf/4.1.2/../../../../nios2-elf/lib/mno-hw-mul/libc.a(lib_a-strdup_r.o)
                0x0802218c                _strdup_r
 .text          0x080221f4       0x74 /package/eda/altera/altera13.0sp1/nios2eds/bin/gnu/H-i686-pc-linux-gnu/bin/../lib/gcc/nios2-elf/4.1.2/../../../../nios2-elf/lib/mno-hw-mul/libc.a(lib_a-strlen.o)
                0x080221f4                strlen
 .text          0x08022268       0xf0 /package/eda/altera/altera13.0sp1/nios2eds/bin/gnu/H-i686-pc-linux-gnu/bin/../lib/gcc/nios2-elf/4.1.2/../../../../nios2-elf/lib/mno-hw-mul/libc.a(lib_a-strncmp.o)
                0x08022268                strncmp
 .text          0x08022358     0x1f40 /package/eda/altera/altera13.0sp1/nios2eds/bin/gnu/H-i686-pc-linux-gnu/bin/../lib/gcc/nios2-elf/4.1.2/../../../../nios2-elf/lib/mno-hw-mul/libc.a(lib_a-vfprintf.o)
                0x080223b0                ___vfprintf_internal_r
                0x08024274                __vfprintf_internal
 .text          0x08024298     0x1788 /package/eda/altera/altera13.0sp1/nios2eds/bin/gnu/H-i686-pc-linux-gnu/bin/../lib/gcc/nios2-elf/4.1.2/../../../../nios2-elf/lib/mno-hw-mul/libc.a(lib_a-vfscanf.o)
                0x08024298                __svfscanf_r
                0x08025920                __svfscanf
                0x08025944                _vfscanf_r
                0x080259ac                vfscanf
 .text          0x08025a20      0x14c /package/eda/altera/altera13.0sp1/nios2eds/bin/gnu/H-i686-pc-linux-gnu/bin/../lib/gcc/nios2-elf/4.1.2/../../../../nios2-elf/lib/mno-hw-mul/libc.a(lib_a-wbuf.o)
                0x08025a20                __swbuf_r
                0x08025b50                __swbuf
 .text          0x08025b6c       0x78 /package/eda/altera/altera13.0sp1/nios2eds/bin/gnu/H-i686-pc-linux-gnu/bin/../lib/gcc/nios2-elf/4.1.2/../../../../nios2-elf/lib/mno-hw-mul/libc.a(lib_a-writer.o)
                0x08025b6c                _write_r
 .text          0x08025be4      0x13c /package/eda/altera/altera13.0sp1/nios2eds/bin/gnu/H-i686-pc-linux-gnu/bin/../lib/gcc/nios2-elf/4.1.2/../../../../nios2-elf/lib/mno-hw-mul/libc.a(lib_a-wsetup.o)
                0x08025be4                __swsetup_r
 .text          0x08025d20      0x1b4 /package/eda/altera/altera13.0sp1/nios2eds/bin/gnu/H-i686-pc-linux-gnu/bin/../lib/gcc/nios2-elf/4.1.2/../../../../nios2-elf/lib/mno-hw-mul/libc.a(lib_a-__call_atexit.o)
                0x08025d24                __call_exitprocs
 .text          0x08025ed4       0x70 /package/eda/altera/altera13.0sp1/nios2eds/bin/gnu/H-i686-pc-linux-gnu/bin/../lib/gcc/nios2-elf/4.1.2/../../../../nios2-elf/lib/mno-hw-mul/libc.a(lib_a-closer.o)
                0x08025ed4                _close_r
 .text          0x08025f44     0x17f8 /package/eda/altera/altera13.0sp1/nios2eds/bin/gnu/H-i686-pc-linux-gnu/bin/../lib/gcc/nios2-elf/4.1.2/../../../../nios2-elf/lib/mno-hw-mul/libc.a(lib_a-dtoa.o)
                0x08026188                _dtoa_r
 .text          0x0802773c        0x0 /package/eda/altera/altera13.0sp1/nios2eds/bin/gnu/H-i686-pc-linux-gnu/bin/../lib/gcc/nios2-elf/4.1.2/../../../../nios2-elf/lib/mno-hw-mul/libc.a(lib_a-environ.o)
 .text          0x0802773c       0xa0 /package/eda/altera/altera13.0sp1/nios2eds/bin/gnu/H-i686-pc-linux-gnu/bin/../lib/gcc/nios2-elf/4.1.2/../../../../nios2-elf/lib/mno-hw-mul/libc.a(lib_a-flags.o)
                0x0802773c                __sflags
 .text          0x080277dc      0x49c /package/eda/altera/altera13.0sp1/nios2eds/bin/gnu/H-i686-pc-linux-gnu/bin/../lib/gcc/nios2-elf/4.1.2/../../../../nios2-elf/lib/mno-hw-mul/libc.a(lib_a-fvwrite.o)
                0x080277dc                __sfvwrite_r
 .text          0x08027c78       0x70 /package/eda/altera/altera13.0sp1/nios2eds/bin/gnu/H-i686-pc-linux-gnu/bin/../lib/gcc/nios2-elf/4.1.2/../../../../nios2-elf/lib/mno-hw-mul/libc.a(lib_a-isattyr.o)
                0x08027c78                _isatty_r
 .text          0x08027ce8       0x2c /package/eda/altera/altera13.0sp1/nios2eds/bin/gnu/H-i686-pc-linux-gnu/bin/../lib/gcc/nios2-elf/4.1.2/../../../../nios2-elf/lib/mno-hw-mul/libc.a(lib_a-iswspace.o)
                0x08027ce8                iswspace
 .text          0x08027d14       0xc4 /package/eda/altera/altera13.0sp1/nios2eds/bin/gnu/H-i686-pc-linux-gnu/bin/../lib/gcc/nios2-elf/4.1.2/../../../../nios2-elf/lib/mno-hw-mul/libc.a(lib_a-locale.o)
                0x08027d14                __locale_charset
                0x08027d1c                _localeconv_r
                0x08027d28                localeconv
                0x08027d38                _setlocale_r
                0x08027dbc                setlocale
 .text          0x08027dd8       0x78 /package/eda/altera/altera13.0sp1/nios2eds/bin/gnu/H-i686-pc-linux-gnu/bin/../lib/gcc/nios2-elf/4.1.2/../../../../nios2-elf/lib/mno-hw-mul/libc.a(lib_a-lseekr.o)
                0x08027dd8                _lseek_r
 .text          0x08027e50       0xc0 /package/eda/altera/altera13.0sp1/nios2eds/bin/gnu/H-i686-pc-linux-gnu/bin/../lib/gcc/nios2-elf/4.1.2/../../../../nios2-elf/lib/mno-hw-mul/libc.a(lib_a-mbrtowc.o)
                0x08027e50                _mbrtowc_r
                0x08027ed0                mbrtowc
 .text          0x08027f10       0x40 /package/eda/altera/altera13.0sp1/nios2eds/bin/gnu/H-i686-pc-linux-gnu/bin/../lib/gcc/nios2-elf/4.1.2/../../../../nios2-elf/lib/mno-hw-mul/libc.a(lib_a-mbtowc_r.o)
                0x08027f10                _mbtowc_r
 .text          0x08027f50       0xe4 /package/eda/altera/altera13.0sp1/nios2eds/bin/gnu/H-i686-pc-linux-gnu/bin/../lib/gcc/nios2-elf/4.1.2/../../../../nios2-elf/lib/mno-hw-mul/libc.a(lib_a-memchr.o)
                0x08027f50                memchr
 .text          0x08028034       0xe0 /package/eda/altera/altera13.0sp1/nios2eds/bin/gnu/H-i686-pc-linux-gnu/bin/../lib/gcc/nios2-elf/4.1.2/../../../../nios2-elf/lib/mno-hw-mul/libc.a(lib_a-memmove.o)
                0x08028034                memmove
 .text          0x08028114     0x108c /package/eda/altera/altera13.0sp1/nios2eds/bin/gnu/H-i686-pc-linux-gnu/bin/../lib/gcc/nios2-elf/4.1.2/../../../../nios2-elf/lib/mno-hw-mul/libc.a(lib_a-mprec.o)
                0x08028114                _Bfree
                0x0802813c                __hi0bits
                0x080281ac                __lo0bits
                0x08028270                __mcmp
                0x080282d0                __ulp
                0x08028350                __b2d
                0x08028470                __ratio
                0x08028520                _mprec_log10
                0x080285b4                __copybits
                0x0802860c                __any_on
                0x08028694                _Balloc
                0x08028750                __d2b
                0x080288cc                __mdiff
                0x08028a58                __lshift
                0x08028ba4                __multiply
                0x08028df8                __i2b
                0x08028e34                __multadd
                0x08028f60                __pow5mult
                0x08029080                __s2b
 .text          0x080291a0       0x78 /package/eda/altera/altera13.0sp1/nios2eds/bin/gnu/H-i686-pc-linux-gnu/bin/../lib/gcc/nios2-elf/4.1.2/../../../../nios2-elf/lib/mno-hw-mul/libc.a(lib_a-readr.o)
                0x080291a0                _read_r
 .text          0x08029218      0x5f4 /package/eda/altera/altera13.0sp1/nios2eds/bin/gnu/H-i686-pc-linux-gnu/bin/../lib/gcc/nios2-elf/4.1.2/../../../../nios2-elf/lib/mno-hw-mul/libc.a(lib_a-reallocr.o)
                0x08029218                _realloc_r
 .text          0x0802980c       0x40 /package/eda/altera/altera13.0sp1/nios2eds/bin/gnu/H-i686-pc-linux-gnu/bin/../lib/gcc/nios2-elf/4.1.2/../../../../nios2-elf/lib/mno-hw-mul/libc.a(lib_a-s_isinfd.o)
                0x0802980c                __isinfd
 .text          0x0802984c       0x30 /package/eda/altera/altera13.0sp1/nios2eds/bin/gnu/H-i686-pc-linux-gnu/bin/../lib/gcc/nios2-elf/4.1.2/../../../../nios2-elf/lib/mno-hw-mul/libc.a(lib_a-s_isnand.o)
                0x0802984c                __isnand
 .text          0x0802987c       0xc0 /package/eda/altera/altera13.0sp1/nios2eds/bin/gnu/H-i686-pc-linux-gnu/bin/../lib/gcc/nios2-elf/4.1.2/../../../../nios2-elf/lib/mno-hw-mul/libc.a(lib_a-sccl.o)
                0x0802987c                __sccl
 .text          0x0802993c        0x8 /package/eda/altera/altera13.0sp1/nios2eds/bin/gnu/H-i686-pc-linux-gnu/bin/../lib/gcc/nios2-elf/4.1.2/../../../../nios2-elf/lib/mno-hw-mul/libc.a(lib_a-sf_nan.o)
                0x0802993c                nanf
 .text          0x08029944       0xbc /package/eda/altera/altera13.0sp1/nios2eds/bin/gnu/H-i686-pc-linux-gnu/bin/../lib/gcc/nios2-elf/4.1.2/../../../../nios2-elf/lib/mno-hw-mul/libc.a(lib_a-strcmp.o)
                0x08029944                strcmp
 .text          0x08029a00     0x1754 /package/eda/altera/altera13.0sp1/nios2eds/bin/gnu/H-i686-pc-linux-gnu/bin/../lib/gcc/nios2-elf/4.1.2/../../../../nios2-elf/lib/mno-hw-mul/libc.a(lib_a-strtod.o)
                0x08029a48                _strtod_r
                0x0802b014                strtof
                0x0802b138                strtod
 .text          0x0802b154      0x274 /package/eda/altera/altera13.0sp1/nios2eds/bin/gnu/H-i686-pc-linux-gnu/bin/../lib/gcc/nios2-elf/4.1.2/../../../../nios2-elf/lib/mno-hw-mul/libc.a(lib_a-strtol.o)
                0x0802b154                _strtol_r
                0x0802b3a4                strtol
 .text          0x0802b3c8      0x318 /package/eda/altera/altera13.0sp1/nios2eds/bin/gnu/H-i686-pc-linux-gnu/bin/../lib/gcc/nios2-elf/4.1.2/../../../../nios2-elf/lib/mno-hw-mul/libc.a(lib_a-strtoll_r.o)
                0x0802b3c8                _strtoll_r
 .text          0x0802b6e0      0x264 /package/eda/altera/altera13.0sp1/nios2eds/bin/gnu/H-i686-pc-linux-gnu/bin/../lib/gcc/nios2-elf/4.1.2/../../../../nios2-elf/lib/mno-hw-mul/libc.a(lib_a-strtoul.o)
                0x0802b6e0                _strtoul_r
                0x0802b920                strtoul
 .text          0x0802b944      0x2f0 /package/eda/altera/altera13.0sp1/nios2eds/bin/gnu/H-i686-pc-linux-gnu/bin/../lib/gcc/nios2-elf/4.1.2/../../../../nios2-elf/lib/mno-hw-mul/libc.a(lib_a-strtoull_r.o)
                0x0802b944                _strtoull_r
 .text          0x0802bc34      0x294 /package/eda/altera/altera13.0sp1/nios2eds/bin/gnu/H-i686-pc-linux-gnu/bin/../lib/gcc/nios2-elf/4.1.2/../../../../nios2-elf/lib/mno-hw-mul/libc.a(lib_a-ungetc.o)
                0x0802bc34                __submore
                0x0802bd10                _ungetc_r
                0x0802beac                ungetc
 .text          0x0802bec8       0xc8 /package/eda/altera/altera13.0sp1/nios2eds/bin/gnu/H-i686-pc-linux-gnu/bin/../lib/gcc/nios2-elf/4.1.2/../../../../nios2-elf/lib/mno-hw-mul/libc.a(lib_a-callocr.o)
                0x0802bec8                _calloc_r
 .text          0x0802bf90      0x938 /package/eda/altera/altera13.0sp1/nios2eds/bin/gnu/H-i686-pc-linux-gnu/bin/../lib/gcc/nios2-elf/4.1.2/../../../../nios2-elf/lib/mno-hw-mul/libc.a(lib_a-gdtoa-gethex.o)
                0x0802bfb4                __hexdig_init
                0x0802c0cc                __gethex
 .text          0x0802c8c8      0x294 /package/eda/altera/altera13.0sp1/nios2eds/bin/gnu/H-i686-pc-linux-gnu/bin/../lib/gcc/nios2-elf/4.1.2/../../../../nios2-elf/lib/mno-hw-mul/libc.a(lib_a-gdtoa-hexnan.o)
                0x0802c914                __hexnan
 .text          0x0802cb5c       0xa4 /package/eda/altera/altera13.0sp1/nios2eds/bin/gnu/H-i686-pc-linux-gnu/bin/../lib/gcc/nios2-elf/4.1.2/mno-hw-mul/libgcc.a(_fixunsdfsi.o)
                0x0802cb5c                __fixunsdfsi
 .text          0x0802cc00      0x66c /package/eda/altera/altera13.0sp1/nios2eds/bin/gnu/H-i686-pc-linux-gnu/bin/../lib/gcc/nios2-elf/4.1.2/mno-hw-mul/libgcc.a(_udivdi3.o)
                0x0802cc00                __udivdi3
 .text          0x0802d26c      0x660 /package/eda/altera/altera13.0sp1/nios2eds/bin/gnu/H-i686-pc-linux-gnu/bin/../lib/gcc/nios2-elf/4.1.2/mno-hw-mul/libgcc.a(_umoddi3.o)
                0x0802d26c                __umoddi3
 .text          0x0802d8cc       0x78 /package/eda/altera/altera13.0sp1/nios2eds/bin/gnu/H-i686-pc-linux-gnu/bin/../lib/gcc/nios2-elf/4.1.2/mno-hw-mul/libgcc.a(_ne_sf.o)
                0x0802d8cc                __nesf2
 .text          0x0802d944       0x78 /package/eda/altera/altera13.0sp1/nios2eds/bin/gnu/H-i686-pc-linux-gnu/bin/../lib/gcc/nios2-elf/4.1.2/mno-hw-mul/libgcc.a(_gt_sf.o)
                0x0802d944                __gtsf2
 .text          0x0802d9bc       0x78 /package/eda/altera/altera13.0sp1/nios2eds/bin/gnu/H-i686-pc-linux-gnu/bin/../lib/gcc/nios2-elf/4.1.2/mno-hw-mul/libgcc.a(_lt_sf.o)
                0x0802d9bc                __ltsf2
 .text          0x0802da34      0x504 /package/eda/altera/altera13.0sp1/nios2eds/bin/gnu/H-i686-pc-linux-gnu/bin/../lib/gcc/nios2-elf/4.1.2/mno-hw-mul/libgcc.a(_addsub_df.o)
                0x0802de44                __subdf3
                0x0802dec4                __adddf3
 .text          0x0802df38       0x88 /package/eda/altera/altera13.0sp1/nios2eds/bin/gnu/H-i686-pc-linux-gnu/bin/../lib/gcc/nios2-elf/4.1.2/mno-hw-mul/libgcc.a(_eq_df.o)
                0x0802df38                __eqdf2
 .text          0x0802dfc0       0x88 /package/eda/altera/altera13.0sp1/nios2eds/bin/gnu/H-i686-pc-linux-gnu/bin/../lib/gcc/nios2-elf/4.1.2/mno-hw-mul/libgcc.a(_ne_df.o)
                0x0802dfc0                __nedf2
 .text          0x0802e048       0x88 /package/eda/altera/altera13.0sp1/nios2eds/bin/gnu/H-i686-pc-linux-gnu/bin/../lib/gcc/nios2-elf/4.1.2/mno-hw-mul/libgcc.a(_gt_df.o)
                0x0802e048                __gtdf2
 .text          0x0802e0d0       0x88 /package/eda/altera/altera13.0sp1/nios2eds/bin/gnu/H-i686-pc-linux-gnu/bin/../lib/gcc/nios2-elf/4.1.2/mno-hw-mul/libgcc.a(_ge_df.o)
                0x0802e0d0                __gedf2
 .text          0x0802e158       0x88 /package/eda/altera/altera13.0sp1/nios2eds/bin/gnu/H-i686-pc-linux-gnu/bin/../lib/gcc/nios2-elf/4.1.2/mno-hw-mul/libgcc.a(_lt_df.o)
                0x0802e158                __ltdf2
 .text          0x0802e1e0       0x88 /package/eda/altera/altera13.0sp1/nios2eds/bin/gnu/H-i686-pc-linux-gnu/bin/../lib/gcc/nios2-elf/4.1.2/mno-hw-mul/libgcc.a(_le_df.o)
                0x0802e1e0                __ledf2
 .text          0x0802e268       0xf8 /package/eda/altera/altera13.0sp1/nios2eds/bin/gnu/H-i686-pc-linux-gnu/bin/../lib/gcc/nios2-elf/4.1.2/mno-hw-mul/libgcc.a(_si_to_df.o)
                0x0802e268                __floatsidf
 .text          0x0802e360       0xd8 /package/eda/altera/altera13.0sp1/nios2eds/bin/gnu/H-i686-pc-linux-gnu/bin/../lib/gcc/nios2-elf/4.1.2/mno-hw-mul/libgcc.a(_df_to_si.o)
                0x0802e360                __fixdfsi
 .text          0x0802e438       0xa8 /package/eda/altera/altera13.0sp1/nios2eds/bin/gnu/H-i686-pc-linux-gnu/bin/../lib/gcc/nios2-elf/4.1.2/mno-hw-mul/libgcc.a(_fpcmp_parts_sf.o)
                0x0802e438                __fpcmp_parts_f
 .text          0x0802e4e0       0xc8 /package/eda/altera/altera13.0sp1/nios2eds/bin/gnu/H-i686-pc-linux-gnu/bin/../lib/gcc/nios2-elf/4.1.2/mno-hw-mul/libgcc.a(_fpcmp_parts_df.o)
                0x0802e4e0                __fpcmp_parts_d
 .text          0x0802e5a8       0xf4 ../demo_board_bsp//libhal_bsp.a(alt_close.o)
                0x0802e5a8                close
 .text          0x0802e69c        0x8 ../demo_board_bsp//libhal_bsp.a(alt_dev.o)
 .text          0x0802e6a4        0x8 ../demo_board_bsp//libhal_bsp.a(alt_env_lock.o)
                0x0802e6a4                __env_lock
                0x0802e6a8                __env_unlock
 .text          0x0802e6ac        0x0 ../demo_board_bsp//libhal_bsp.a(alt_errno.o)
 .text          0x0802e6ac       0x14 ../demo_board_bsp//libhal_bsp.a(alt_exit.o)
                0x0802e6ac                _exit
 .text          0x0802e6c0       0xac ../demo_board_bsp//libhal_bsp.a(alt_fstat.o)
                0x0802e6c0                fstat
 .text          0x0802e76c       0xa4 ../demo_board_bsp//libhal_bsp.a(alt_isatty.o)
                0x0802e76c                isatty
 .text          0x0802e810       0xb4 ../demo_board_bsp//libhal_bsp.a(alt_load.o)
                0x0802e810                alt_load
 .text          0x0802e8c4       0xbc ../demo_board_bsp//libhal_bsp.a(alt_lseek.o)
                0x0802e8c4                lseek
 .text          0x0802e980       0x60 ../demo_board_bsp//libhal_bsp.a(alt_main.o)
                0x0802e980                alt_main
 .text          0x0802e9e0        0x8 ../demo_board_bsp//libhal_bsp.a(alt_malloc_lock.o)
                0x0802e9e0                __malloc_lock
                0x0802e9e4                __malloc_unlock
 .text          0x0802e9e8      0x18c ../demo_board_bsp//libhal_bsp.a(alt_open.o)
                0x0802e9e8                open
 .text          0x0802eb74      0x140 ../demo_board_bsp//libhal_bsp.a(alt_read.o)
                0x0802eb74                read
 .text          0x0802ecb4       0x5c ../demo_board_bsp//libhal_bsp.a(alt_release_fd.o)
                0x0802ecb4                alt_release_fd
 .text          0x0802ed10       0x54 ../demo_board_bsp//libhal_bsp.a(alt_sbrk.o)
                0x0802ed10                sbrk
 .text          0x0802ed64      0x13c ../demo_board_bsp//libhal_bsp.a(alt_write.o)
                0x0802ed64                write
 .text          0x0802eea0      0x160 ../demo_board_bsp//libhal_bsp.a(alt_sys_init.o)
                0x0802eea0                alt_irq_init
                0x0802eec0                alt_sys_init
 .text          0x0802f000      0x580 ../demo_board_bsp//libhal_bsp.a(altera_avalon_cfi_flash.o)
                0x0802f000                alt_flash_cfi_get_info
                0x0802f038                alt_flash_program_block
                0x0802f2c4                alt_write_value_to_flash
                0x0802f35c                alt_flash_cfi_read
                0x0802f388                alt_flash_cfi_write
                0x0802f518                alt_flash_cfi_init
 .text          0x0802f580      0xc28 ../demo_board_bsp//libhal_bsp.a(altera_avalon_cfi_flash_table.o)
                0x0802f580                alt_set_flash_width_func
                0x0802f6b0                alt_set_flash_algorithm_func
                0x0802f720                alt_read_query_entry_8bit
                0x0802f734                alt_read_query_entry_16bit
                0x0802f74c                alt_read_query_entry_32bit
                0x0802f768                alt_write_native_32bit
                0x0802f770                alt_write_flash_command_32bit_device_32bit_mode
                0x0802f788                alt_write_native_16bit
                0x0802f794                alt_write_flash_command_32bit_device_16bit_mode
                0x0802f7ac                alt_write_flash_command_16bit_device_16bit_mode
                0x0802f7c0                alt_write_native_8bit
                0x0802f7cc                alt_write_flash_command_32bit_device_8bit_mode
                0x0802f7e4                alt_write_flash_command_16bit_device_8bit_mode
                0x0802f80c                alt_write_flash_command_8bit_device_8bit_mode
                0x0802f81c                alt_read_cfi_width
                0x0802fce8                alt_check_primary_table
                0x0802fdc0                alt_read_cfi_table
 .text          0x080301a8       0x3c ../demo_board_bsp//libhal_bsp.a(altera_avalon_jtag_uart_fd.o)
                0x080301a8                altera_avalon_jtag_uart_ioctl_fd
                0x080301b4                altera_avalon_jtag_uart_close_fd
                0x080301c4                altera_avalon_jtag_uart_write_fd
                0x080301d4                altera_avalon_jtag_uart_read_fd
 .text          0x080301e4      0x228 ../demo_board_bsp//libhal_bsp.a(altera_avalon_jtag_uart_init.o)
                0x080301e4                altera_avalon_jtag_uart_close
                0x08030284                altera_avalon_jtag_uart_init
 .text          0x0803040c       0x88 ../demo_board_bsp//libhal_bsp.a(altera_avalon_jtag_uart_ioctl.o)
                0x0803040c                altera_avalon_jtag_uart_ioctl
 .text          0x08030494      0x16c ../demo_board_bsp//libhal_bsp.a(altera_avalon_jtag_uart_read.o)
                0x08030494                altera_avalon_jtag_uart_read
 .text          0x08030600      0x184 ../demo_board_bsp//libhal_bsp.a(altera_avalon_jtag_uart_write.o)
                0x08030600                altera_avalon_jtag_uart_write
 .text          0x08030784       0x80 ../demo_board_bsp//libhal_bsp.a(altera_avalon_performance_counter.o)
                0x08030784                alt_get_performance_counter_base
                0x08030790                alt_get_cpu_freq
                0x0803079c                perf_get_num_starts
                0x080307ac                perf_get_section_time
                0x080307dc                perf_get_total_time
 .text          0x08030804      0x97c ../demo_board_bsp//libhal_bsp.a(altera_ro_zipfs.o)
                0x08030804                check_directory_header
                0x08030950                alt_ro_zipfs_fstat
                0x08030a8c                alt_ro_zipfs_check_valid
                0x08030c78                alt_ro_zipfs_open
                0x08030e58                alt_ro_zipfs_seek
                0x08031000                alt_ro_zipfs_read
 .text          0x08031180      0xd0c ../demo_board_bsp//libhal_bsp.a(altera_up_avalon_video_pixel_buffer_dma.o)
                0x08031180                helper_plot_pixel
                0x08031250                alt_up_pixel_buffer_dma_draw_vline
                0x08031434                alt_up_pixel_buffer_dma_draw_hline
                0x08031604                alt_up_pixel_buffer_dma_draw_rectangle
                0x080316d0                alt_up_pixel_buffer_dma_draw_box
                0x0803194c                alt_up_pixel_buffer_dma_clear_screen
                0x08031a14                alt_up_pixel_buffer_dma_swap_buffers
                0x08031a38                alt_up_pixel_buffer_dma_draw
                0x08031b2c                alt_up_pixel_buffer_dma_check_swap_buffers_status
                0x08031b3c                alt_up_pixel_buffer_dma_change_back_buffer_address
                0x08031b64                alt_up_pixel_buffer_dma_open_dev
                0x08031b70                alt_up_pixel_buffer_dma_draw_line
 .text          0x08031e8c      0x1ec ../demo_board_bsp//libhal_bsp.a(perf_print_formatted_report.o)
                0x08031e8c                perf_print_formatted_report
 .text          0x08032078       0x94 ../demo_board_bsp//libhal_bsp.a(alt_alarm_start.o)
                0x08032078                alt_alarm_start
 .text          0x0803210c        0x4 ../demo_board_bsp//libhal_bsp.a(alt_dcache_flush.o)
                0x0803210c                alt_dcache_flush
 .text          0x08032110        0x4 ../demo_board_bsp//libhal_bsp.a(alt_dcache_flush_all.o)
                0x08032110                alt_dcache_flush_all
 .text          0x08032114       0x7c ../demo_board_bsp//libhal_bsp.a(alt_dev_llist_insert.o)
                0x08032114                alt_dev_llist_insert
 .text          0x08032190       0x4c ../demo_board_bsp//libhal_bsp.a(alt_do_ctors.o)
                0x08032190                _do_ctors
 .text          0x080321dc       0x4c ../demo_board_bsp//libhal_bsp.a(alt_do_dtors.o)
                0x080321dc                _do_dtors
 .text          0x08032228       0x94 ../demo_board_bsp//libhal_bsp.a(alt_find_dev.o)
                0x08032228                alt_find_dev
 .text          0x080322bc       0xb0 ../demo_board_bsp//libhal_bsp.a(alt_find_file.o)
                0x080322bc                alt_find_file
 .text          0x0803236c       0x60 ../demo_board_bsp//libhal_bsp.a(alt_flash_dev.o)
                0x0803236c                alt_flash_close_dev
                0x08032380                alt_flash_open_dev
 .text          0x080323cc       0x38 ../demo_board_bsp//libhal_bsp.a(alt_fs_reg.o)
                0x080323cc                alt_fs_reg
 .text          0x08032404       0x60 ../demo_board_bsp//libhal_bsp.a(alt_get_fd.o)
                0x08032404                alt_get_fd
 .text          0x08032464        0x4 ../demo_board_bsp//libhal_bsp.a(alt_icache_flush_all.o)
                0x08032464                alt_icache_flush_all
 .text          0x08032468       0x9c ../demo_board_bsp//libhal_bsp.a(alt_iic.o)
                0x08032468                alt_ic_irq_enabled
                0x08032480                alt_ic_irq_enable
                0x080324c0                alt_ic_irq_disable
                0x08032500                alt_ic_isr_register
 .text          0x08032504       0x88 ../demo_board_bsp//libhal_bsp.a(alt_iic_isr_register.o)
                0x08032504                alt_iic_isr_register
 .text          0x0803258c      0x14c ../demo_board_bsp//libhal_bsp.a(alt_io_redirect.o)
                0x0803258c                alt_io_redirect
 .text          0x080326d8        0x0 ../demo_board_bsp//libhal_bsp.a(alt_irq_entry.o)
 .text          0x080326d8        0x0 ../demo_board_bsp//libhal_bsp.a(alt_irq_handler.o)
 .text          0x080326d8        0x0 ../demo_board_bsp//libhal_bsp.a(alt_irq_vars.o)
 .text          0x080326d8      0x11c ../demo_board_bsp//libhal_bsp.a(alt_tick.o)
                0x080326d8                alt_alarm_stop
                0x0803270c                alt_tick
 .text          0x080327f4        0x8 ../demo_board_bsp//libhal_bsp.a(altera_nios2_qsys_irq.o)
                0x080327f4                altera_nios2_qsys_irq_init
 .text          0x080327fc      0x2ec ../demo_board_bsp//libhal_bsp.a(altera_avalon_cfi_flash_amd.o)
                0x080327fc                alt_erase_block_amd
                0x08032978                alt_program_amd
 .text          0x08032ae8      0x330 ../demo_board_bsp//libhal_bsp.a(altera_avalon_cfi_flash_intel.o)
                0x08032bf0                alt_erase_block_intel
                0x08032cf4                alt_program_intel
 .text          0x08032e18        0x0 ../demo_board_bsp//libhal_bsp.a(alt_exception_entry.o)
 .text          0x08032e18        0x4 ../demo_board_bsp//libhal_bsp.a(alt_usleep.o)
                0x08032e18                usleep
 .text          0x08032e1c       0xa4 ../demo_board_bsp//libhal_bsp.a(alt_busy_sleep.o)
                0x08032e1c                alt_busy_sleep
 .text          0x08032ec0       0x14 /package/eda/altera/altera13.0sp1/nios2eds/bin/gnu/H-i686-pc-linux-gnu/bin/../lib/gcc/nios2-elf/4.1.2/../../../../nios2-elf/lib/mno-hw-mul/libc.a(lib_a-atexit.o)
                0x08032ec0                atexit
 .text          0x08032ed4       0x74 /package/eda/altera/altera13.0sp1/nios2eds/bin/gnu/H-i686-pc-linux-gnu/bin/../lib/gcc/nios2-elf/4.1.2/../../../../nios2-elf/lib/mno-hw-mul/libc.a(lib_a-memcmp.o)
                0x08032ed4                memcmp
 .text          0x08032f48      0x134 /package/eda/altera/altera13.0sp1/nios2eds/bin/gnu/H-i686-pc-linux-gnu/bin/../lib/gcc/nios2-elf/4.1.2/../../../../nios2-elf/lib/mno-hw-mul/libc.a(lib_a-__atexit.o)
                0x08032f48                __register_exitproc
 .text          0x0803307c       0x88 /package/eda/altera/altera13.0sp1/nios2eds/bin/gnu/H-i686-pc-linux-gnu/bin/../lib/gcc/nios2-elf/4.1.2/mno-hw-mul/libgcc.a(_floatundidf.o)
                0x0803307c                __floatundidf
 .text          0x08033104        0x0 /package/eda/altera/altera13.0sp1/nios2eds/bin/gnu/H-i686-pc-linux-gnu/bin/../lib/gcc/nios2-elf/4.1.2/mno-hw-mul/libgcc.a(lib2-divtable.o)
 *(.gnu.warning.*)
 *(.fini)
                0x08033104                PROVIDE (__etext, ABSOLUTE (.))
                0x08033104                PROVIDE (_etext, ABSOLUTE (.))
                0x08033104                PROVIDE (etext, ABSOLUTE (.))
 *(.eh_frame_hdr)
                0x08033104                . = ALIGN (0x4)
                0x08033104                PROVIDE (__preinit_array_start, ABSOLUTE (.))
 *(.preinit_array)
                0x08033104                PROVIDE (__preinit_array_end, ABSOLUTE (.))
                0x08033104                PROVIDE (__init_array_start, ABSOLUTE (.))
 *(.init_array)
                0x08033104                PROVIDE (__init_array_end, ABSOLUTE (.))
                0x08033104                PROVIDE (__fini_array_start, ABSOLUTE (.))
 *(.fini_array)
                0x08033104                PROVIDE (__fini_array_end, ABSOLUTE (.))
 *(.eh_frame)
 *(.gcc_except_table)
 *(.dynamic)
                0x08033104                PROVIDE (__CTOR_LIST__, ABSOLUTE (.))
 *(.ctors)
 *(SORT(.ctors.*))
 .ctors.65535   0x08033104        0x4 /package/eda/altera/altera13.0sp1/nios2eds/bin/gnu/H-i686-pc-linux-gnu/bin/../lib/gcc/nios2-elf/4.1.2/../../../../nios2-elf/lib/mno-hw-mul/libc.a(lib_a-__call_atexit.o)
                0x08033108                PROVIDE (__CTOR_END__, ABSOLUTE (.))
                0x08033108                PROVIDE (__DTOR_LIST__, ABSOLUTE (.))
 *(.dtors)
 *(SORT(.dtors.*))
                0x08033108                PROVIDE (__DTOR_END__, ABSOLUTE (.))
 *(.jcr)
                0x08033108                . = ALIGN (0x4)

.rodata         0x08033108     0x30ac
                0x08033108                PROVIDE (__ram_rodata_start, ABSOLUTE (.))
                0x08033108                . = ALIGN (0x4)
 *(.rodata .rodata.* .gnu.linkonce.r.*)
 .rodata.str1.4
                0x08033108      0xcbb obj/default/djpeg.o
                                0xcd4 (size before relaxing)
 *fill*         0x08033dc3        0x1 00
 .rodata        0x08033dc4       0xb0 obj/default/djpeg.o
 .rodata        0x08033e74       0xc0 obj/default/jcdctmgr.o
 .rodata        0x08033f34      0x3a0 obj/default/jcparam.o
 .rodata        0x080342d4       0xc0 obj/default/jddctmgr.o
 .rodata        0x08034394       0x80 obj/default/jdhuff.o
 .rodata        0x08034414       0x80 obj/default/jdphuff.o
 .rodata.str1.4
                0x08034494     0x115b obj/default/jerror.o
                               0x1190 (size before relaxing)
 *fill*         0x080355ef        0x1 00
 .rodata        0x080355f0      0x1e4 obj/default/jerror.o
                0x080355f0                jpeg_std_message_table
 .rodata.str1.4
                0x080357d4        0x8 obj/default/jmemmgr.o
                                 0x10 (size before relaxing)
 .rodata        0x080357dc      0x10c obj/default/jquant1.o
 .rodata        0x080358e8      0x140 obj/default/jutils.o
                0x080358e8                jpeg_natural_order
 .rodata.str1.4
                0x08035a28       0x1f obj/default/wrppm.o
                                 0x20 (size before relaxing)
 *fill*         0x08035a47        0x1 00
 .rodata        0x08035a48       0x10 /package/eda/altera/altera13.0sp1/nios2eds/bin/gnu/H-i686-pc-linux-gnu/bin/../lib/gcc/nios2-elf/4.1.2/mno-hw-mul/libgcc.a(_thenan_sf.o)
                0x08035a48                __thenan_sf
 .rodata        0x08035a58       0x14 /package/eda/altera/altera13.0sp1/nios2eds/bin/gnu/H-i686-pc-linux-gnu/bin/../lib/gcc/nios2-elf/4.1.2/mno-hw-mul/libgcc.a(_thenan_df.o)
                0x08035a58                __thenan_df
 .rodata        0x08035a6c      0x100 /package/eda/altera/altera13.0sp1/nios2eds/bin/gnu/H-i686-pc-linux-gnu/bin/../lib/gcc/nios2-elf/4.1.2/mno-hw-mul/libgcc.a(_clz.o)
                0x08035a6c                __clz_tab
 .rodata        0x08035b6c      0x281 /package/eda/altera/altera13.0sp1/nios2eds/bin/gnu/H-i686-pc-linux-gnu/bin/../lib/gcc/nios2-elf/4.1.2/../../../../nios2-elf/lib/mno-hw-mul/libc.a(lib_a-ctype_.o)
                0x08035b6c                _ctype_
 *fill*         0x08035ded        0x3 00
 .rodata.str1.4
                0x08035df0        0x2 /package/eda/altera/altera13.0sp1/nios2eds/bin/gnu/H-i686-pc-linux-gnu/bin/../lib/gcc/nios2-elf/4.1.2/../../../../nios2-elf/lib/mno-hw-mul/libc.a(lib_a-impure.o)
                                  0x4 (size before relaxing)
 .rodata.str1.4
                0x00000000        0x2 /package/eda/altera/altera13.0sp1/nios2eds/bin/gnu/H-i686-pc-linux-gnu/bin/../lib/gcc/nios2-elf/4.1.2/../../../../nios2-elf/lib/mno-hw-mul/libc.a(lib_a-puts.o)
                                  0x4 (size before relaxing)
 *fill*         0x08035df2        0x2 00
 .rodata.str1.4
                0x08035df4       0x5a /package/eda/altera/altera13.0sp1/nios2eds/bin/gnu/H-i686-pc-linux-gnu/bin/../lib/gcc/nios2-elf/4.1.2/../../../../nios2-elf/lib/mno-hw-mul/libc.a(lib_a-vfprintf.o)
                                 0x60 (size before relaxing)
 .rodata        0x08035e4e       0x20 /package/eda/altera/altera13.0sp1/nios2eds/bin/gnu/H-i686-pc-linux-gnu/bin/../lib/gcc/nios2-elf/4.1.2/../../../../nios2-elf/lib/mno-hw-mul/libc.a(lib_a-vfprintf.o)
 *fill*         0x08035e6e        0x2 00
 .rodata.str1.4
                0x08035e70        0x5 /package/eda/altera/altera13.0sp1/nios2eds/bin/gnu/H-i686-pc-linux-gnu/bin/../lib/gcc/nios2-elf/4.1.2/../../../../nios2-elf/lib/mno-hw-mul/libc.a(lib_a-vfscanf.o)
                                  0x8 (size before relaxing)
 *fill*         0x08035e75        0x1 00
 .rodata        0x08035e76       0x22 /package/eda/altera/altera13.0sp1/nios2eds/bin/gnu/H-i686-pc-linux-gnu/bin/../lib/gcc/nios2-elf/4.1.2/../../../../nios2-elf/lib/mno-hw-mul/libc.a(lib_a-vfscanf.o)
 .rodata.str1.4
                0x08035e98       0x10 /package/eda/altera/altera13.0sp1/nios2eds/bin/gnu/H-i686-pc-linux-gnu/bin/../lib/gcc/nios2-elf/4.1.2/../../../../nios2-elf/lib/mno-hw-mul/libc.a(lib_a-dtoa.o)
                                 0x14 (size before relaxing)
 .rodata.str1.4
                0x08035ea8        0xf /package/eda/altera/altera13.0sp1/nios2eds/bin/gnu/H-i686-pc-linux-gnu/bin/../lib/gcc/nios2-elf/4.1.2/../../../../nios2-elf/lib/mno-hw-mul/libc.a(lib_a-locale.o)
                                 0x18 (size before relaxing)
 *fill*         0x08035eb7        0x1 00
 .rodata        0x08035eb8       0x30 /package/eda/altera/altera13.0sp1/nios2eds/bin/gnu/H-i686-pc-linux-gnu/bin/../lib/gcc/nios2-elf/4.1.2/../../../../nios2-elf/lib/mno-hw-mul/libc.a(lib_a-locale.o)
 .rodata.str1.4
                0x00000000        0x4 /package/eda/altera/altera13.0sp1/nios2eds/bin/gnu/H-i686-pc-linux-gnu/bin/../lib/gcc/nios2-elf/4.1.2/../../../../nios2-elf/lib/mno-hw-mul/libc.a(lib_a-mbrtowc.o)
 .rodata        0x08035ee8      0x124 /package/eda/altera/altera13.0sp1/nios2eds/bin/gnu/H-i686-pc-linux-gnu/bin/../lib/gcc/nios2-elf/4.1.2/../../../../nios2-elf/lib/mno-hw-mul/libc.a(lib_a-mprec.o)
                0x08035ee8                __mprec_tens
                0x08035fb0                __mprec_bigtens
                0x08035fd8                __mprec_tinytens
 .rodata.str1.4
                0x0803600c        0xf /package/eda/altera/altera13.0sp1/nios2eds/bin/gnu/H-i686-pc-linux-gnu/bin/../lib/gcc/nios2-elf/4.1.2/../../../../nios2-elf/lib/mno-hw-mul/libc.a(lib_a-strtod.o)
                                 0x10 (size before relaxing)
 *fill*         0x0803601b        0x1 00
 .rodata        0x0803601c       0x28 /package/eda/altera/altera13.0sp1/nios2eds/bin/gnu/H-i686-pc-linux-gnu/bin/../lib/gcc/nios2-elf/4.1.2/../../../../nios2-elf/lib/mno-hw-mul/libc.a(lib_a-strtod.o)
 .rodata.str1.4
                0x08036044       0x1b /package/eda/altera/altera13.0sp1/nios2eds/bin/gnu/H-i686-pc-linux-gnu/bin/../lib/gcc/nios2-elf/4.1.2/../../../../nios2-elf/lib/mno-hw-mul/libc.a(lib_a-gdtoa-gethex.o)
                                 0x1c (size before relaxing)
 *fill*         0x0803605f        0x1 00
 .rodata.str1.4
                0x08036060        0xa ../demo_board_bsp//libhal_bsp.a(alt_dev.o)
                                  0xc (size before relaxing)
 *fill*         0x0803606a        0x2 00
 .rodata.str1.4
                0x0803606c       0x11 ../demo_board_bsp//libhal_bsp.a(alt_main.o)
                                 0x14 (size before relaxing)
 *fill*         0x0803607d        0x3 00
 .rodata.str1.4
                0x08036080       0x31 ../demo_board_bsp//libhal_bsp.a(alt_sys_init.o)
                                 0x68 (size before relaxing)
 *fill*         0x080360b1        0x3 00
 .rodata.str1.4
                0x080360b4      0x100 ../demo_board_bsp//libhal_bsp.a(perf_print_formatted_report.o)
 *(.rodata1)
                0x080361b4                . = ALIGN (0x4)
                0x080361b4                PROVIDE (__ram_rodata_end, ABSOLUTE (.))
                0x08033108                PROVIDE (__flash_rodata_start, LOADADDR (.rodata))

.rwdata         0x080361b4     0x1d00 load address 0x08037eb4
                0x080361b4                PROVIDE (__ram_rwdata_start, ABSOLUTE (.))
                0x080361b4                . = ALIGN (0x4)
 *(.got.plt)
 *(.got)
 *(.data1)
 *(.data .data.* .gnu.linkonce.d.*)
 .data          0x080361b4        0x0 ../demo_board_bsp//obj/HAL/src/crt0.o
 .data          0x080361b4        0x0 obj/default/cdjpeg.o
 .data          0x080361b4        0x0 obj/default/djpeg.o
 .data          0x080361b4        0x0 obj/default/jcapimin.o
 .data          0x080361b4        0x0 obj/default/jcapistd.o
 .data          0x080361b4        0x0 obj/default/jccoefct.o
 .data          0x080361b4        0x0 obj/default/jccolor.o
 .data          0x080361b4        0x0 obj/default/jcdctmgr.o
 .data          0x080361b4        0x0 obj/default/jchuff.o
 .data          0x080361b4        0x0 obj/default/jcinit.o
 .data          0x080361b4        0x0 obj/default/jcmainct.o
 .data          0x080361b4        0x0 obj/default/jcmarker.o
 .data          0x080361b4        0x0 obj/default/jcmaster.o
 .data          0x080361b4        0x0 obj/default/jcomapi.o
 .data          0x080361b4        0x0 obj/default/jcparam.o
 .data          0x080361b4        0x0 obj/default/jcphuff.o
 .data          0x080361b4        0x0 obj/default/jcprepct.o
 .data          0x080361b4        0x0 obj/default/jcsample.o
 .data          0x080361b4        0x0 obj/default/jctrans.o
 .data          0x080361b4        0x0 obj/default/jdapimin.o
 .data          0x080361b4        0x0 obj/default/jdapistd.o
 .data          0x080361b4        0x0 obj/default/jdatadst.o
 .data          0x080361b4        0x0 obj/default/jdatasrc.o
 .data          0x080361b4        0x0 obj/default/jdcoefct.o
 .data          0x080361b4        0x0 obj/default/jdcolor.o
 .data          0x080361b4        0x0 obj/default/jddctmgr.o
 .data          0x080361b4        0x0 obj/default/jdhuff.o
 .data          0x080361b4        0x0 obj/default/jdinput.o
 .data          0x080361b4        0x0 obj/default/jdmainct.o
 .data          0x080361b4        0x0 obj/default/jdmarker.o
 .data          0x080361b4        0x0 obj/default/jdmaster.o
 .data          0x080361b4        0x0 obj/default/jdmerge.o
 .data          0x080361b4        0x0 obj/default/jdphuff.o
 .data          0x080361b4        0x0 obj/default/jdpostct.o
 .data          0x080361b4        0x0 obj/default/jdsample.o
 .data          0x080361b4        0x0 obj/default/jdtrans.o
 .data          0x080361b4        0x0 obj/default/jerror.o
 .data          0x080361b4        0x0 obj/default/jfdctflt.o
 .data          0x080361b4        0x0 obj/default/jfdctfst.o
 .data          0x080361b4        0x0 obj/default/jfdctint.o
 .data          0x080361b4        0x0 obj/default/jidctflt.o
 .data          0x080361b4        0x0 obj/default/jidctfst.o
 .data          0x080361b4        0x0 obj/default/jidctint.o
 .data          0x080361b4        0x0 obj/default/jidctred.o
 .data          0x080361b4        0x0 obj/default/jmemmgr.o
 .data          0x080361b4        0x0 obj/default/jmemnobs.o
 .data          0x080361b4        0x0 obj/default/jquant1.o
 .data          0x080361b4        0x0 obj/default/jquant2.o
 .data          0x080361b4        0x0 obj/default/jutils.o
 .data          0x080361b4        0x0 obj/default/rdcolmap.o
 .data          0x080361b4        0x0 obj/default/wrbmp.o
 .data          0x080361b4        0x0 obj/default/wrgif.o
 .data          0x080361b4        0x0 obj/default/wrppm.o
 .data          0x080361b4        0x0 obj/default/wrrle.o
 .data          0x080361b4        0x0 obj/default/wrtarga.o
 .data          0x080361b4        0x0 /package/eda/altera/altera13.0sp1/nios2eds/bin/gnu/H-i686-pc-linux-gnu/bin/../lib/gcc/nios2-elf/4.1.2/mno-hw-mul/libgcc.a(_addsub_sf.o)
 .data          0x080361b4        0x0 /package/eda/altera/altera13.0sp1/nios2eds/bin/gnu/H-i686-pc-linux-gnu/bin/../lib/gcc/nios2-elf/4.1.2/mno-hw-mul/libgcc.a(_mul_sf.o)
 .data          0x080361b4        0x0 /package/eda/altera/altera13.0sp1/nios2eds/bin/gnu/H-i686-pc-linux-gnu/bin/../lib/gcc/nios2-elf/4.1.2/mno-hw-mul/libgcc.a(_si_to_sf.o)
 .data          0x080361b4        0x0 /package/eda/altera/altera13.0sp1/nios2eds/bin/gnu/H-i686-pc-linux-gnu/bin/../lib/gcc/nios2-elf/4.1.2/mno-hw-mul/libgcc.a(_sf_to_si.o)
 .data          0x080361b4        0x0 /package/eda/altera/altera13.0sp1/nios2eds/bin/gnu/H-i686-pc-linux-gnu/bin/../lib/gcc/nios2-elf/4.1.2/mno-hw-mul/libgcc.a(_thenan_sf.o)
 .data          0x080361b4        0x0 /package/eda/altera/altera13.0sp1/nios2eds/bin/gnu/H-i686-pc-linux-gnu/bin/../lib/gcc/nios2-elf/4.1.2/mno-hw-mul/libgcc.a(_mul_df.o)
 .data          0x080361b4        0x0 /package/eda/altera/altera13.0sp1/nios2eds/bin/gnu/H-i686-pc-linux-gnu/bin/../lib/gcc/nios2-elf/4.1.2/mno-hw-mul/libgcc.a(_div_df.o)
 .data          0x080361b4        0x0 /package/eda/altera/altera13.0sp1/nios2eds/bin/gnu/H-i686-pc-linux-gnu/bin/../lib/gcc/nios2-elf/4.1.2/mno-hw-mul/libgcc.a(_df_to_sf.o)
 .data          0x080361b4        0x0 /package/eda/altera/altera13.0sp1/nios2eds/bin/gnu/H-i686-pc-linux-gnu/bin/../lib/gcc/nios2-elf/4.1.2/mno-hw-mul/libgcc.a(_thenan_df.o)
 .data          0x080361b4        0x0 /package/eda/altera/altera13.0sp1/nios2eds/bin/gnu/H-i686-pc-linux-gnu/bin/../lib/gcc/nios2-elf/4.1.2/mno-hw-mul/libgcc.a(_usi_to_df.o)
 .data          0x080361b4        0x0 /package/eda/altera/altera13.0sp1/nios2eds/bin/gnu/H-i686-pc-linux-gnu/bin/../lib/gcc/nios2-elf/4.1.2/mno-hw-mul/libgcc.a(lib2-divmod.o)
 .data          0x080361b4        0x0 /package/eda/altera/altera13.0sp1/nios2eds/bin/gnu/H-i686-pc-linux-gnu/bin/../lib/gcc/nios2-elf/4.1.2/mno-hw-mul/libgcc.a(lib2-mul.o)
 .data          0x080361b4        0x0 /package/eda/altera/altera13.0sp1/nios2eds/bin/gnu/H-i686-pc-linux-gnu/bin/../lib/gcc/nios2-elf/4.1.2/mno-hw-mul/libgcc.a(_muldi3.o)
 .data          0x080361b4        0x0 /package/eda/altera/altera13.0sp1/nios2eds/bin/gnu/H-i686-pc-linux-gnu/bin/../lib/gcc/nios2-elf/4.1.2/mno-hw-mul/libgcc.a(_clzsi2.o)
 .data          0x080361b4        0x0 /package/eda/altera/altera13.0sp1/nios2eds/bin/gnu/H-i686-pc-linux-gnu/bin/../lib/gcc/nios2-elf/4.1.2/mno-hw-mul/libgcc.a(_pack_sf.o)
 .data          0x080361b4        0x0 /package/eda/altera/altera13.0sp1/nios2eds/bin/gnu/H-i686-pc-linux-gnu/bin/../lib/gcc/nios2-elf/4.1.2/mno-hw-mul/libgcc.a(_unpack_sf.o)
 .data          0x080361b4        0x0 /package/eda/altera/altera13.0sp1/nios2eds/bin/gnu/H-i686-pc-linux-gnu/bin/../lib/gcc/nios2-elf/4.1.2/mno-hw-mul/libgcc.a(_make_sf.o)
 .data          0x080361b4        0x0 /package/eda/altera/altera13.0sp1/nios2eds/bin/gnu/H-i686-pc-linux-gnu/bin/../lib/gcc/nios2-elf/4.1.2/mno-hw-mul/libgcc.a(_pack_df.o)
 .data          0x080361b4        0x0 /package/eda/altera/altera13.0sp1/nios2eds/bin/gnu/H-i686-pc-linux-gnu/bin/../lib/gcc/nios2-elf/4.1.2/mno-hw-mul/libgcc.a(_unpack_df.o)
 .data          0x080361b4        0x0 /package/eda/altera/altera13.0sp1/nios2eds/bin/gnu/H-i686-pc-linux-gnu/bin/../lib/gcc/nios2-elf/4.1.2/mno-hw-mul/libgcc.a(_clz.o)
 .data          0x080361b4        0x0 /package/eda/altera/altera13.0sp1/nios2eds/bin/gnu/H-i686-pc-linux-gnu/bin/../lib/gcc/nios2-elf/4.1.2/../../../../nios2-elf/lib/mno-hw-mul/libc.a(lib_a-ctype_.o)
 .data          0x080361b4        0x0 /package/eda/altera/altera13.0sp1/nios2eds/bin/gnu/H-i686-pc-linux-gnu/bin/../lib/gcc/nios2-elf/4.1.2/../../../../nios2-elf/lib/mno-hw-mul/libc.a(lib_a-exit.o)
 .data          0x080361b4        0x0 /package/eda/altera/altera13.0sp1/nios2eds/bin/gnu/H-i686-pc-linux-gnu/bin/../lib/gcc/nios2-elf/4.1.2/../../../../nios2-elf/lib/mno-hw-mul/libc.a(lib_a-fclose.o)
 .data          0x080361b4        0x0 /package/eda/altera/altera13.0sp1/nios2eds/bin/gnu/H-i686-pc-linux-gnu/bin/../lib/gcc/nios2-elf/4.1.2/../../../../nios2-elf/lib/mno-hw-mul/libc.a(lib_a-fflush.o)
 .data          0x080361b4        0x0 /package/eda/altera/altera13.0sp1/nios2eds/bin/gnu/H-i686-pc-linux-gnu/bin/../lib/gcc/nios2-elf/4.1.2/../../../../nios2-elf/lib/mno-hw-mul/libc.a(lib_a-findfp.o)
 .data          0x080361b4        0x0 /package/eda/altera/altera13.0sp1/nios2eds/bin/gnu/H-i686-pc-linux-gnu/bin/../lib/gcc/nios2-elf/4.1.2/../../../../nios2-elf/lib/mno-hw-mul/libc.a(lib_a-fopen.o)
 .data          0x080361b4        0x0 /package/eda/altera/altera13.0sp1/nios2eds/bin/gnu/H-i686-pc-linux-gnu/bin/../lib/gcc/nios2-elf/4.1.2/../../../../nios2-elf/lib/mno-hw-mul/libc.a(lib_a-fprintf.o)
 .data          0x080361b4        0x0 /package/eda/altera/altera13.0sp1/nios2eds/bin/gnu/H-i686-pc-linux-gnu/bin/../lib/gcc/nios2-elf/4.1.2/../../../../nios2-elf/lib/mno-hw-mul/libc.a(lib_a-fputc.o)
 .data          0x080361b4        0x0 /package/eda/altera/altera13.0sp1/nios2eds/bin/gnu/H-i686-pc-linux-gnu/bin/../lib/gcc/nios2-elf/4.1.2/../../../../nios2-elf/lib/mno-hw-mul/libc.a(lib_a-fread.o)
 .data          0x080361b4        0x0 /package/eda/altera/altera13.0sp1/nios2eds/bin/gnu/H-i686-pc-linux-gnu/bin/../lib/gcc/nios2-elf/4.1.2/../../../../nios2-elf/lib/mno-hw-mul/libc.a(lib_a-freer.o)
 .data          0x080361b4        0x0 /package/eda/altera/altera13.0sp1/nios2eds/bin/gnu/H-i686-pc-linux-gnu/bin/../lib/gcc/nios2-elf/4.1.2/../../../../nios2-elf/lib/mno-hw-mul/libc.a(lib_a-fseek.o)
 .data          0x080361b4        0x0 /package/eda/altera/altera13.0sp1/nios2eds/bin/gnu/H-i686-pc-linux-gnu/bin/../lib/gcc/nios2-elf/4.1.2/../../../../nios2-elf/lib/mno-hw-mul/libc.a(lib_a-fstatr.o)
 .data          0x080361b4        0x0 /package/eda/altera/altera13.0sp1/nios2eds/bin/gnu/H-i686-pc-linux-gnu/bin/../lib/gcc/nios2-elf/4.1.2/../../../../nios2-elf/lib/mno-hw-mul/libc.a(lib_a-fwalk.o)
 .data          0x080361b4        0x0 /package/eda/altera/altera13.0sp1/nios2eds/bin/gnu/H-i686-pc-linux-gnu/bin/../lib/gcc/nios2-elf/4.1.2/../../../../nios2-elf/lib/mno-hw-mul/libc.a(lib_a-fwrite.o)
 .data          0x080361b4        0x0 /package/eda/altera/altera13.0sp1/nios2eds/bin/gnu/H-i686-pc-linux-gnu/bin/../lib/gcc/nios2-elf/4.1.2/../../../../nios2-elf/lib/mno-hw-mul/libc.a(lib_a-getc.o)
 .data          0x080361b4        0x0 /package/eda/altera/altera13.0sp1/nios2eds/bin/gnu/H-i686-pc-linux-gnu/bin/../lib/gcc/nios2-elf/4.1.2/../../../../nios2-elf/lib/mno-hw-mul/libc.a(lib_a-getenv.o)
 .data          0x080361b4        0x0 /package/eda/altera/altera13.0sp1/nios2eds/bin/gnu/H-i686-pc-linux-gnu/bin/../lib/gcc/nios2-elf/4.1.2/../../../../nios2-elf/lib/mno-hw-mul/libc.a(lib_a-getenv_r.o)
 .data          0x080361b4      0x400 /package/eda/altera/altera13.0sp1/nios2eds/bin/gnu/H-i686-pc-linux-gnu/bin/../lib/gcc/nios2-elf/4.1.2/../../../../nios2-elf/lib/mno-hw-mul/libc.a(lib_a-impure.o)
 .data          0x080365b4        0x0 /package/eda/altera/altera13.0sp1/nios2eds/bin/gnu/H-i686-pc-linux-gnu/bin/../lib/gcc/nios2-elf/4.1.2/../../../../nios2-elf/lib/mno-hw-mul/libc.a(lib_a-int_errno.o)
 .data          0x080365b4        0x0 /package/eda/altera/altera13.0sp1/nios2eds/bin/gnu/H-i686-pc-linux-gnu/bin/../lib/gcc/nios2-elf/4.1.2/../../../../nios2-elf/lib/mno-hw-mul/libc.a(lib_a-makebuf.o)
 .data          0x080365b4        0x0 /package/eda/altera/altera13.0sp1/nios2eds/bin/gnu/H-i686-pc-linux-gnu/bin/../lib/gcc/nios2-elf/4.1.2/../../../../nios2-elf/lib/mno-hw-mul/libc.a(lib_a-malloc.o)
 .data          0x080365b4      0x408 /package/eda/altera/altera13.0sp1/nios2eds/bin/gnu/H-i686-pc-linux-gnu/bin/../lib/gcc/nios2-elf/4.1.2/../../../../nios2-elf/lib/mno-hw-mul/libc.a(lib_a-mallocr.o)
                0x080365b4                __malloc_av_
 .data          0x080369bc        0x0 /package/eda/altera/altera13.0sp1/nios2eds/bin/gnu/H-i686-pc-linux-gnu/bin/../lib/gcc/nios2-elf/4.1.2/../../../../nios2-elf/lib/mno-hw-mul/libc.a(lib_a-memcpy.o)
 .data          0x080369bc        0x0 /package/eda/altera/altera13.0sp1/nios2eds/bin/gnu/H-i686-pc-linux-gnu/bin/../lib/gcc/nios2-elf/4.1.2/../../../../nios2-elf/lib/mno-hw-mul/libc.a(lib_a-memset.o)
 .data          0x080369bc        0x0 /package/eda/altera/altera13.0sp1/nios2eds/bin/gnu/H-i686-pc-linux-gnu/bin/../lib/gcc/nios2-elf/4.1.2/../../../../nios2-elf/lib/mno-hw-mul/libc.a(lib_a-openr.o)
 .data          0x080369bc        0x0 /package/eda/altera/altera13.0sp1/nios2eds/bin/gnu/H-i686-pc-linux-gnu/bin/../lib/gcc/nios2-elf/4.1.2/../../../../nios2-elf/lib/mno-hw-mul/libc.a(lib_a-printf.o)
 .data          0x080369bc        0x0 /package/eda/altera/altera13.0sp1/nios2eds/bin/gnu/H-i686-pc-linux-gnu/bin/../lib/gcc/nios2-elf/4.1.2/../../../../nios2-elf/lib/mno-hw-mul/libc.a(lib_a-putc.o)
 .data          0x080369bc        0x0 /package/eda/altera/altera13.0sp1/nios2eds/bin/gnu/H-i686-pc-linux-gnu/bin/../lib/gcc/nios2-elf/4.1.2/../../../../nios2-elf/lib/mno-hw-mul/libc.a(lib_a-puts.o)
 .data          0x080369bc        0x0 /package/eda/altera/altera13.0sp1/nios2eds/bin/gnu/H-i686-pc-linux-gnu/bin/../lib/gcc/nios2-elf/4.1.2/../../../../nios2-elf/lib/mno-hw-mul/libc.a(lib_a-refill.o)
 .data          0x080369bc        0x0 /package/eda/altera/altera13.0sp1/nios2eds/bin/gnu/H-i686-pc-linux-gnu/bin/../lib/gcc/nios2-elf/4.1.2/../../../../nios2-elf/lib/mno-hw-mul/libc.a(lib_a-rget.o)
 .data          0x080369bc        0x0 /package/eda/altera/altera13.0sp1/nios2eds/bin/gnu/H-i686-pc-linux-gnu/bin/../lib/gcc/nios2-elf/4.1.2/../../../../nios2-elf/lib/mno-hw-mul/libc.a(lib_a-sbrkr.o)
 .data          0x080369bc        0x0 /package/eda/altera/altera13.0sp1/nios2eds/bin/gnu/H-i686-pc-linux-gnu/bin/../lib/gcc/nios2-elf/4.1.2/../../../../nios2-elf/lib/mno-hw-mul/libc.a(lib_a-sprintf.o)
 .data          0x080369bc        0x0 /package/eda/altera/altera13.0sp1/nios2eds/bin/gnu/H-i686-pc-linux-gnu/bin/../lib/gcc/nios2-elf/4.1.2/../../../../nios2-elf/lib/mno-hw-mul/libc.a(lib_a-sscanf.o)
 .data          0x080369bc        0x0 /package/eda/altera/altera13.0sp1/nios2eds/bin/gnu/H-i686-pc-linux-gnu/bin/../lib/gcc/nios2-elf/4.1.2/../../../../nios2-elf/lib/mno-hw-mul/libc.a(lib_a-stdio.o)
 .data          0x080369bc        0x0 /package/eda/altera/altera13.0sp1/nios2eds/bin/gnu/H-i686-pc-linux-gnu/bin/../lib/gcc/nios2-elf/4.1.2/../../../../nios2-elf/lib/mno-hw-mul/libc.a(lib_a-strdup.o)
 .data          0x080369bc        0x0 /package/eda/altera/altera13.0sp1/nios2eds/bin/gnu/H-i686-pc-linux-gnu/bin/../lib/gcc/nios2-elf/4.1.2/../../../../nios2-elf/lib/mno-hw-mul/libc.a(lib_a-strdup_r.o)
 .data          0x080369bc        0x0 /package/eda/altera/altera13.0sp1/nios2eds/bin/gnu/H-i686-pc-linux-gnu/bin/../lib/gcc/nios2-elf/4.1.2/../../../../nios2-elf/lib/mno-hw-mul/libc.a(lib_a-strlen.o)
 .data          0x080369bc        0x0 /package/eda/altera/altera13.0sp1/nios2eds/bin/gnu/H-i686-pc-linux-gnu/bin/../lib/gcc/nios2-elf/4.1.2/../../../../nios2-elf/lib/mno-hw-mul/libc.a(lib_a-strncmp.o)
 .data          0x080369bc        0x0 /package/eda/altera/altera13.0sp1/nios2eds/bin/gnu/H-i686-pc-linux-gnu/bin/../lib/gcc/nios2-elf/4.1.2/../../../../nios2-elf/lib/mno-hw-mul/libc.a(lib_a-vfprintf.o)
 .data          0x080369bc        0x0 /package/eda/altera/altera13.0sp1/nios2eds/bin/gnu/H-i686-pc-linux-gnu/bin/../lib/gcc/nios2-elf/4.1.2/../../../../nios2-elf/lib/mno-hw-mul/libc.a(lib_a-vfscanf.o)
 .data          0x080369bc        0x0 /package/eda/altera/altera13.0sp1/nios2eds/bin/gnu/H-i686-pc-linux-gnu/bin/../lib/gcc/nios2-elf/4.1.2/../../../../nios2-elf/lib/mno-hw-mul/libc.a(lib_a-wbuf.o)
 .data          0x080369bc        0x0 /package/eda/altera/altera13.0sp1/nios2eds/bin/gnu/H-i686-pc-linux-gnu/bin/../lib/gcc/nios2-elf/4.1.2/../../../../nios2-elf/lib/mno-hw-mul/libc.a(lib_a-writer.o)
 .data          0x080369bc        0x0 /package/eda/altera/altera13.0sp1/nios2eds/bin/gnu/H-i686-pc-linux-gnu/bin/../lib/gcc/nios2-elf/4.1.2/../../../../nios2-elf/lib/mno-hw-mul/libc.a(lib_a-wsetup.o)
 .data          0x080369bc        0x0 /package/eda/altera/altera13.0sp1/nios2eds/bin/gnu/H-i686-pc-linux-gnu/bin/../lib/gcc/nios2-elf/4.1.2/../../../../nios2-elf/lib/mno-hw-mul/libc.a(lib_a-__call_atexit.o)
 .data          0x080369bc        0x0 /package/eda/altera/altera13.0sp1/nios2eds/bin/gnu/H-i686-pc-linux-gnu/bin/../lib/gcc/nios2-elf/4.1.2/../../../../nios2-elf/lib/mno-hw-mul/libc.a(lib_a-closer.o)
 .data          0x080369bc        0x0 /package/eda/altera/altera13.0sp1/nios2eds/bin/gnu/H-i686-pc-linux-gnu/bin/../lib/gcc/nios2-elf/4.1.2/../../../../nios2-elf/lib/mno-hw-mul/libc.a(lib_a-dtoa.o)
 .data          0x080369bc        0x0 /package/eda/altera/altera13.0sp1/nios2eds/bin/gnu/H-i686-pc-linux-gnu/bin/../lib/gcc/nios2-elf/4.1.2/../../../../nios2-elf/lib/mno-hw-mul/libc.a(lib_a-environ.o)
 .data          0x080369bc        0x0 /package/eda/altera/altera13.0sp1/nios2eds/bin/gnu/H-i686-pc-linux-gnu/bin/../lib/gcc/nios2-elf/4.1.2/../../../../nios2-elf/lib/mno-hw-mul/libc.a(lib_a-flags.o)
 .data          0x080369bc        0x0 /package/eda/altera/altera13.0sp1/nios2eds/bin/gnu/H-i686-pc-linux-gnu/bin/../lib/gcc/nios2-elf/4.1.2/../../../../nios2-elf/lib/mno-hw-mul/libc.a(lib_a-fvwrite.o)
 .data          0x080369bc        0x0 /package/eda/altera/altera13.0sp1/nios2eds/bin/gnu/H-i686-pc-linux-gnu/bin/../lib/gcc/nios2-elf/4.1.2/../../../../nios2-elf/lib/mno-hw-mul/libc.a(lib_a-isattyr.o)
 .data          0x080369bc        0x0 /package/eda/altera/altera13.0sp1/nios2eds/bin/gnu/H-i686-pc-linux-gnu/bin/../lib/gcc/nios2-elf/4.1.2/../../../../nios2-elf/lib/mno-hw-mul/libc.a(lib_a-iswspace.o)
 .data          0x080369bc        0xc /package/eda/altera/altera13.0sp1/nios2eds/bin/gnu/H-i686-pc-linux-gnu/bin/../lib/gcc/nios2-elf/4.1.2/../../../../nios2-elf/lib/mno-hw-mul/libc.a(lib_a-locale.o)
                0x080369bc                __lc_ctype
 .data          0x080369c8        0x0 /package/eda/altera/altera13.0sp1/nios2eds/bin/gnu/H-i686-pc-linux-gnu/bin/../lib/gcc/nios2-elf/4.1.2/../../../../nios2-elf/lib/mno-hw-mul/libc.a(lib_a-lseekr.o)
 .data          0x080369c8        0x0 /package/eda/altera/altera13.0sp1/nios2eds/bin/gnu/H-i686-pc-linux-gnu/bin/../lib/gcc/nios2-elf/4.1.2/../../../../nios2-elf/lib/mno-hw-mul/libc.a(lib_a-mbrtowc.o)
 .data          0x080369c8        0x0 /package/eda/altera/altera13.0sp1/nios2eds/bin/gnu/H-i686-pc-linux-gnu/bin/../lib/gcc/nios2-elf/4.1.2/../../../../nios2-elf/lib/mno-hw-mul/libc.a(lib_a-mbtowc_r.o)
 .data          0x080369c8        0x0 /package/eda/altera/altera13.0sp1/nios2eds/bin/gnu/H-i686-pc-linux-gnu/bin/../lib/gcc/nios2-elf/4.1.2/../../../../nios2-elf/lib/mno-hw-mul/libc.a(lib_a-memchr.o)
 .data          0x080369c8        0x0 /package/eda/altera/altera13.0sp1/nios2eds/bin/gnu/H-i686-pc-linux-gnu/bin/../lib/gcc/nios2-elf/4.1.2/../../../../nios2-elf/lib/mno-hw-mul/libc.a(lib_a-memmove.o)
 .data          0x080369c8        0x0 /package/eda/altera/altera13.0sp1/nios2eds/bin/gnu/H-i686-pc-linux-gnu/bin/../lib/gcc/nios2-elf/4.1.2/../../../../nios2-elf/lib/mno-hw-mul/libc.a(lib_a-mprec.o)
 .data          0x080369c8        0x0 /package/eda/altera/altera13.0sp1/nios2eds/bin/gnu/H-i686-pc-linux-gnu/bin/../lib/gcc/nios2-elf/4.1.2/../../../../nios2-elf/lib/mno-hw-mul/libc.a(lib_a-readr.o)
 .data          0x080369c8        0x0 /package/eda/altera/altera13.0sp1/nios2eds/bin/gnu/H-i686-pc-linux-gnu/bin/../lib/gcc/nios2-elf/4.1.2/../../../../nios2-elf/lib/mno-hw-mul/libc.a(lib_a-reallocr.o)
 .data          0x080369c8        0x0 /package/eda/altera/altera13.0sp1/nios2eds/bin/gnu/H-i686-pc-linux-gnu/bin/../lib/gcc/nios2-elf/4.1.2/../../../../nios2-elf/lib/mno-hw-mul/libc.a(lib_a-s_isinfd.o)
 .data          0x080369c8        0x0 /package/eda/altera/altera13.0sp1/nios2eds/bin/gnu/H-i686-pc-linux-gnu/bin/../lib/gcc/nios2-elf/4.1.2/../../../../nios2-elf/lib/mno-hw-mul/libc.a(lib_a-s_isnand.o)
 .data          0x080369c8        0x0 /package/eda/altera/altera13.0sp1/nios2eds/bin/gnu/H-i686-pc-linux-gnu/bin/../lib/gcc/nios2-elf/4.1.2/../../../../nios2-elf/lib/mno-hw-mul/libc.a(lib_a-sccl.o)
 .data          0x080369c8        0x0 /package/eda/altera/altera13.0sp1/nios2eds/bin/gnu/H-i686-pc-linux-gnu/bin/../lib/gcc/nios2-elf/4.1.2/../../../../nios2-elf/lib/mno-hw-mul/libc.a(lib_a-sf_nan.o)
 .data          0x080369c8        0x0 /package/eda/altera/altera13.0sp1/nios2eds/bin/gnu/H-i686-pc-linux-gnu/bin/../lib/gcc/nios2-elf/4.1.2/../../../../nios2-elf/lib/mno-hw-mul/libc.a(lib_a-strcmp.o)
 .data          0x080369c8       0x28 /package/eda/altera/altera13.0sp1/nios2eds/bin/gnu/H-i686-pc-linux-gnu/bin/../lib/gcc/nios2-elf/4.1.2/../../../../nios2-elf/lib/mno-hw-mul/libc.a(lib_a-strtod.o)
 .data          0x080369f0        0x0 /package/eda/altera/altera13.0sp1/nios2eds/bin/gnu/H-i686-pc-linux-gnu/bin/../lib/gcc/nios2-elf/4.1.2/../../../../nios2-elf/lib/mno-hw-mul/libc.a(lib_a-strtol.o)
 .data          0x080369f0        0x0 /package/eda/altera/altera13.0sp1/nios2eds/bin/gnu/H-i686-pc-linux-gnu/bin/../lib/gcc/nios2-elf/4.1.2/../../../../nios2-elf/lib/mno-hw-mul/libc.a(lib_a-strtoll_r.o)
 .data          0x080369f0        0x0 /package/eda/altera/altera13.0sp1/nios2eds/bin/gnu/H-i686-pc-linux-gnu/bin/../lib/gcc/nios2-elf/4.1.2/../../../../nios2-elf/lib/mno-hw-mul/libc.a(lib_a-strtoul.o)
 .data          0x080369f0        0x0 /package/eda/altera/altera13.0sp1/nios2eds/bin/gnu/H-i686-pc-linux-gnu/bin/../lib/gcc/nios2-elf/4.1.2/../../../../nios2-elf/lib/mno-hw-mul/libc.a(lib_a-strtoull_r.o)
 .data          0x080369f0        0x0 /package/eda/altera/altera13.0sp1/nios2eds/bin/gnu/H-i686-pc-linux-gnu/bin/../lib/gcc/nios2-elf/4.1.2/../../../../nios2-elf/lib/mno-hw-mul/libc.a(lib_a-ungetc.o)
 .data          0x080369f0        0x0 /package/eda/altera/altera13.0sp1/nios2eds/bin/gnu/H-i686-pc-linux-gnu/bin/../lib/gcc/nios2-elf/4.1.2/../../../../nios2-elf/lib/mno-hw-mul/libc.a(lib_a-callocr.o)
 .data          0x080369f0        0x0 /package/eda/altera/altera13.0sp1/nios2eds/bin/gnu/H-i686-pc-linux-gnu/bin/../lib/gcc/nios2-elf/4.1.2/../../../../nios2-elf/lib/mno-hw-mul/libc.a(lib_a-gdtoa-gethex.o)
 .data          0x080369f0        0x0 /package/eda/altera/altera13.0sp1/nios2eds/bin/gnu/H-i686-pc-linux-gnu/bin/../lib/gcc/nios2-elf/4.1.2/../../../../nios2-elf/lib/mno-hw-mul/libc.a(lib_a-gdtoa-hexnan.o)
 .data          0x080369f0        0x0 /package/eda/altera/altera13.0sp1/nios2eds/bin/gnu/H-i686-pc-linux-gnu/bin/../lib/gcc/nios2-elf/4.1.2/mno-hw-mul/libgcc.a(_fixunsdfsi.o)
 .data          0x080369f0        0x0 /package/eda/altera/altera13.0sp1/nios2eds/bin/gnu/H-i686-pc-linux-gnu/bin/../lib/gcc/nios2-elf/4.1.2/mno-hw-mul/libgcc.a(_udivdi3.o)
 .data          0x080369f0        0x0 /package/eda/altera/altera13.0sp1/nios2eds/bin/gnu/H-i686-pc-linux-gnu/bin/../lib/gcc/nios2-elf/4.1.2/mno-hw-mul/libgcc.a(_umoddi3.o)
 .data          0x080369f0        0x0 /package/eda/altera/altera13.0sp1/nios2eds/bin/gnu/H-i686-pc-linux-gnu/bin/../lib/gcc/nios2-elf/4.1.2/mno-hw-mul/libgcc.a(_ne_sf.o)
 .data          0x080369f0        0x0 /package/eda/altera/altera13.0sp1/nios2eds/bin/gnu/H-i686-pc-linux-gnu/bin/../lib/gcc/nios2-elf/4.1.2/mno-hw-mul/libgcc.a(_gt_sf.o)
 .data          0x080369f0        0x0 /package/eda/altera/altera13.0sp1/nios2eds/bin/gnu/H-i686-pc-linux-gnu/bin/../lib/gcc/nios2-elf/4.1.2/mno-hw-mul/libgcc.a(_lt_sf.o)
 .data          0x080369f0        0x0 /package/eda/altera/altera13.0sp1/nios2eds/bin/gnu/H-i686-pc-linux-gnu/bin/../lib/gcc/nios2-elf/4.1.2/mno-hw-mul/libgcc.a(_addsub_df.o)
 .data          0x080369f0        0x0 /package/eda/altera/altera13.0sp1/nios2eds/bin/gnu/H-i686-pc-linux-gnu/bin/../lib/gcc/nios2-elf/4.1.2/mno-hw-mul/libgcc.a(_eq_df.o)
 .data          0x080369f0        0x0 /package/eda/altera/altera13.0sp1/nios2eds/bin/gnu/H-i686-pc-linux-gnu/bin/../lib/gcc/nios2-elf/4.1.2/mno-hw-mul/libgcc.a(_ne_df.o)
 .data          0x080369f0        0x0 /package/eda/altera/altera13.0sp1/nios2eds/bin/gnu/H-i686-pc-linux-gnu/bin/../lib/gcc/nios2-elf/4.1.2/mno-hw-mul/libgcc.a(_gt_df.o)
 .data          0x080369f0        0x0 /package/eda/altera/altera13.0sp1/nios2eds/bin/gnu/H-i686-pc-linux-gnu/bin/../lib/gcc/nios2-elf/4.1.2/mno-hw-mul/libgcc.a(_ge_df.o)
 .data          0x080369f0        0x0 /package/eda/altera/altera13.0sp1/nios2eds/bin/gnu/H-i686-pc-linux-gnu/bin/../lib/gcc/nios2-elf/4.1.2/mno-hw-mul/libgcc.a(_lt_df.o)
 .data          0x080369f0        0x0 /package/eda/altera/altera13.0sp1/nios2eds/bin/gnu/H-i686-pc-linux-gnu/bin/../lib/gcc/nios2-elf/4.1.2/mno-hw-mul/libgcc.a(_le_df.o)
 .data          0x080369f0        0x0 /package/eda/altera/altera13.0sp1/nios2eds/bin/gnu/H-i686-pc-linux-gnu/bin/../lib/gcc/nios2-elf/4.1.2/mno-hw-mul/libgcc.a(_si_to_df.o)
 .data          0x080369f0        0x0 /package/eda/altera/altera13.0sp1/nios2eds/bin/gnu/H-i686-pc-linux-gnu/bin/../lib/gcc/nios2-elf/4.1.2/mno-hw-mul/libgcc.a(_df_to_si.o)
 .data          0x080369f0        0x0 /package/eda/altera/altera13.0sp1/nios2eds/bin/gnu/H-i686-pc-linux-gnu/bin/../lib/gcc/nios2-elf/4.1.2/mno-hw-mul/libgcc.a(_fpcmp_parts_sf.o)
 .data          0x080369f0        0x0 /package/eda/altera/altera13.0sp1/nios2eds/bin/gnu/H-i686-pc-linux-gnu/bin/../lib/gcc/nios2-elf/4.1.2/mno-hw-mul/libgcc.a(_fpcmp_parts_df.o)
 .data          0x080369f0        0x0 ../demo_board_bsp//libhal_bsp.a(alt_close.o)
 .data          0x080369f0      0x1a8 ../demo_board_bsp//libhal_bsp.a(alt_dev.o)
                0x080369f0                alt_dev_null
                0x08036a18                alt_fd_list
 .data          0x08036b98        0x0 ../demo_board_bsp//libhal_bsp.a(alt_env_lock.o)
 .data          0x08036b98        0x0 ../demo_board_bsp//libhal_bsp.a(alt_errno.o)
 .data          0x08036b98        0x0 ../demo_board_bsp//libhal_bsp.a(alt_exit.o)
 .data          0x08036b98        0x0 ../demo_board_bsp//libhal_bsp.a(alt_fstat.o)
 .data          0x08036b98        0x0 ../demo_board_bsp//libhal_bsp.a(alt_isatty.o)
 .data          0x08036b98        0x0 ../demo_board_bsp//libhal_bsp.a(alt_load.o)
 .data          0x08036b98        0x0 ../demo_board_bsp//libhal_bsp.a(alt_lseek.o)
 .data          0x08036b98        0x0 ../demo_board_bsp//libhal_bsp.a(alt_main.o)
 .data          0x08036b98        0x0 ../demo_board_bsp//libhal_bsp.a(alt_malloc_lock.o)
 .data          0x08036b98        0x0 ../demo_board_bsp//libhal_bsp.a(alt_open.o)
 .data          0x08036b98        0x0 ../demo_board_bsp//libhal_bsp.a(alt_read.o)
 .data          0x08036b98        0x0 ../demo_board_bsp//libhal_bsp.a(alt_release_fd.o)
 .data          0x08036b98        0x0 ../demo_board_bsp//libhal_bsp.a(alt_sbrk.o)
 .data          0x08036b98        0x0 ../demo_board_bsp//libhal_bsp.a(alt_write.o)
 .data          0x08036b98     0x11bc ../demo_board_bsp//libhal_bsp.a(alt_sys_init.o)
 .data          0x08037d54        0x0 ../demo_board_bsp//libhal_bsp.a(altera_avalon_cfi_flash.o)
 .data          0x08037d54        0x0 ../demo_board_bsp//libhal_bsp.a(altera_avalon_cfi_flash_table.o)
 .data          0x08037d54        0x0 ../demo_board_bsp//libhal_bsp.a(altera_avalon_jtag_uart_fd.o)
 .data          0x08037d54        0x0 ../demo_board_bsp//libhal_bsp.a(altera_avalon_jtag_uart_init.o)
 .data          0x08037d54        0x0 ../demo_board_bsp//libhal_bsp.a(altera_avalon_jtag_uart_ioctl.o)
 .data          0x08037d54        0x0 ../demo_board_bsp//libhal_bsp.a(altera_avalon_jtag_uart_read.o)
 .data          0x08037d54        0x0 ../demo_board_bsp//libhal_bsp.a(altera_avalon_jtag_uart_write.o)
 .data          0x08037d54        0x0 ../demo_board_bsp//libhal_bsp.a(altera_avalon_performance_counter.o)
 .data          0x08037d54        0x0 ../demo_board_bsp//libhal_bsp.a(altera_ro_zipfs.o)
 .data          0x08037d54        0x0 ../demo_board_bsp//libhal_bsp.a(altera_up_avalon_video_pixel_buffer_dma.o)
 .data          0x08037d54        0x0 ../demo_board_bsp//libhal_bsp.a(perf_print_formatted_report.o)
 .data          0x08037d54        0x0 ../demo_board_bsp//libhal_bsp.a(alt_alarm_start.o)
 .data          0x08037d54        0x0 ../demo_board_bsp//libhal_bsp.a(alt_dcache_flush.o)
 .data          0x08037d54        0x0 ../demo_board_bsp//libhal_bsp.a(alt_dcache_flush_all.o)
 .data          0x08037d54        0x0 ../demo_board_bsp//libhal_bsp.a(alt_dev_llist_insert.o)
 .data          0x08037d54        0x0 ../demo_board_bsp//libhal_bsp.a(alt_do_ctors.o)
 .data          0x08037d54        0x0 ../demo_board_bsp//libhal_bsp.a(alt_do_dtors.o)
 .data          0x08037d54        0x0 ../demo_board_bsp//libhal_bsp.a(alt_find_dev.o)
 .data          0x08037d54        0x0 ../demo_board_bsp//libhal_bsp.a(alt_find_file.o)
 .data          0x08037d54        0x0 ../demo_board_bsp//libhal_bsp.a(alt_flash_dev.o)
 .data          0x08037d54        0x0 ../demo_board_bsp//libhal_bsp.a(alt_fs_reg.o)
 .data          0x08037d54        0x0 ../demo_board_bsp//libhal_bsp.a(alt_get_fd.o)
 .data          0x08037d54        0x0 ../demo_board_bsp//libhal_bsp.a(alt_icache_flush_all.o)
 .data          0x08037d54        0x0 ../demo_board_bsp//libhal_bsp.a(alt_iic.o)
 .data          0x08037d54        0x0 ../demo_board_bsp//libhal_bsp.a(alt_iic_isr_register.o)
 .data          0x08037d54        0x0 ../demo_board_bsp//libhal_bsp.a(alt_io_redirect.o)
 .data          0x08037d54        0x0 ../demo_board_bsp//libhal_bsp.a(alt_irq_entry.o)
 .data          0x08037d54        0x0 ../demo_board_bsp//libhal_bsp.a(alt_irq_handler.o)
 .data          0x08037d54        0x0 ../demo_board_bsp//libhal_bsp.a(alt_irq_vars.o)
 .data          0x08037d54        0x0 ../demo_board_bsp//libhal_bsp.a(alt_tick.o)
 .data          0x08037d54        0x0 ../demo_board_bsp//libhal_bsp.a(altera_nios2_qsys_irq.o)
 .data          0x08037d54        0x0 ../demo_board_bsp//libhal_bsp.a(altera_avalon_cfi_flash_amd.o)
 .data          0x08037d54        0x0 ../demo_board_bsp//libhal_bsp.a(altera_avalon_cfi_flash_intel.o)
 .data          0x08037d54        0x0 ../demo_board_bsp//libhal_bsp.a(alt_exception_entry.o)
 .data          0x08037d54        0x0 ../demo_board_bsp//libhal_bsp.a(alt_usleep.o)
 .data          0x08037d54        0x0 ../demo_board_bsp//libhal_bsp.a(alt_busy_sleep.o)
 .data          0x08037d54        0x0 /package/eda/altera/altera13.0sp1/nios2eds/bin/gnu/H-i686-pc-linux-gnu/bin/../lib/gcc/nios2-elf/4.1.2/../../../../nios2-elf/lib/mno-hw-mul/libc.a(lib_a-atexit.o)
 .data          0x08037d54        0x0 /package/eda/altera/altera13.0sp1/nios2eds/bin/gnu/H-i686-pc-linux-gnu/bin/../lib/gcc/nios2-elf/4.1.2/../../../../nios2-elf/lib/mno-hw-mul/libc.a(lib_a-memcmp.o)
 .data          0x08037d54        0x0 /package/eda/altera/altera13.0sp1/nios2eds/bin/gnu/H-i686-pc-linux-gnu/bin/../lib/gcc/nios2-elf/4.1.2/../../../../nios2-elf/lib/mno-hw-mul/libc.a(lib_a-__atexit.o)
 .data          0x08037d54        0x0 /package/eda/altera/altera13.0sp1/nios2eds/bin/gnu/H-i686-pc-linux-gnu/bin/../lib/gcc/nios2-elf/4.1.2/mno-hw-mul/libgcc.a(_floatundidf.o)
 .data          0x08037d54      0x100 /package/eda/altera/altera13.0sp1/nios2eds/bin/gnu/H-i686-pc-linux-gnu/bin/../lib/gcc/nios2-elf/4.1.2/mno-hw-mul/libgcc.a(lib2-divtable.o)
                0x08037d54                __divsi3_table
                0x0803fe54                _gp = ABSOLUTE ((. + 0x8000))
                0x0803fe54                PROVIDE (gp, _gp)
 *(.rwdata .rwdata.*)
 *(.sdata .sdata.* .gnu.linkonce.s.*)
 .sdata         0x08037e54       0x10 obj/default/jmemmgr.o
 .sdata         0x08037e64        0x4 /package/eda/altera/altera13.0sp1/nios2eds/bin/gnu/H-i686-pc-linux-gnu/bin/../lib/gcc/nios2-elf/4.1.2/../../../../nios2-elf/lib/mno-hw-mul/libc.a(lib_a-ctype_.o)
                0x08037e64                __ctype_ptr
 .sdata         0x08037e68        0x8 /package/eda/altera/altera13.0sp1/nios2eds/bin/gnu/H-i686-pc-linux-gnu/bin/../lib/gcc/nios2-elf/4.1.2/../../../../nios2-elf/lib/mno-hw-mul/libc.a(lib_a-impure.o)
                0x08037e68                _impure_ptr
                0x08037e6c                _global_impure_ptr
 .sdata         0x08037e70        0x8 /package/eda/altera/altera13.0sp1/nios2eds/bin/gnu/H-i686-pc-linux-gnu/bin/../lib/gcc/nios2-elf/4.1.2/../../../../nios2-elf/lib/mno-hw-mul/libc.a(lib_a-mallocr.o)
                0x08037e70                __malloc_trim_threshold
                0x08037e74                __malloc_sbrk_base
 .sdata         0x08037e78        0x4 /package/eda/altera/altera13.0sp1/nios2eds/bin/gnu/H-i686-pc-linux-gnu/bin/../lib/gcc/nios2-elf/4.1.2/../../../../nios2-elf/lib/mno-hw-mul/libc.a(lib_a-environ.o)
                0x08037e78                environ
 .sdata         0x08037e7c        0x8 /package/eda/altera/altera13.0sp1/nios2eds/bin/gnu/H-i686-pc-linux-gnu/bin/../lib/gcc/nios2-elf/4.1.2/../../../../nios2-elf/lib/mno-hw-mul/libc.a(lib_a-locale.o)
                0x08037e7c                __mb_cur_max
 .sdata         0x08037e84       0x14 ../demo_board_bsp//libhal_bsp.a(alt_dev.o)
                0x08037e84                alt_fs_list
                0x08037e8c                alt_dev_list
                0x08037e94                alt_max_fd
 .sdata         0x08037e98        0x4 ../demo_board_bsp//libhal_bsp.a(alt_errno.o)
                0x08037e98                alt_errno
 .sdata         0x08037e9c        0x4 ../demo_board_bsp//libhal_bsp.a(alt_sbrk.o)
 .sdata         0x08037ea0        0x8 ../demo_board_bsp//libhal_bsp.a(alt_flash_dev.o)
                0x08037ea0                alt_flash_dev_list
 .sdata         0x08037ea8        0x4 ../demo_board_bsp//libhal_bsp.a(alt_irq_vars.o)
                0x08037ea8                alt_priority_mask
 .sdata         0x08037eac        0x8 ../demo_board_bsp//libhal_bsp.a(alt_tick.o)
                0x08037eac                alt_alarm_list
 *(.sdata2 .sdata2.* .gnu.linkonce.s2.*)
                0x08037eb4                . = ALIGN (0x4)
                0x08037eb4                _edata = ABSOLUTE (.)
                0x08037eb4                PROVIDE (edata, ABSOLUTE (.))
                0x08037eb4                PROVIDE (__ram_rwdata_end, ABSOLUTE (.))
                0x08037eb4                PROVIDE (__flash_rwdata_start, LOADADDR (.rwdata))

.bss            0x08039bb4      0x400
                0x08039bb4                __bss_start = ABSOLUTE (.)
                0x08039bb4                PROVIDE (__sbss_start, ABSOLUTE (.))
                0x08039bb4                PROVIDE (___sbss_start, ABSOLUTE (.))
 *(.dynsbss)
 *(.sbss .sbss.* .gnu.linkonce.sb.*)
 .sbss          0x08039bb4       0x10 obj/default/djpeg.o
 .sbss          0x08039bc4        0x4 /package/eda/altera/altera13.0sp1/nios2eds/bin/gnu/H-i686-pc-linux-gnu/bin/../lib/gcc/nios2-elf/4.1.2/../../../../nios2-elf/lib/mno-hw-mul/libc.a(lib_a-int_errno.o)
                0x08039bc4                errno
 .sbss          0x08039bc8        0xc /package/eda/altera/altera13.0sp1/nios2eds/bin/gnu/H-i686-pc-linux-gnu/bin/../lib/gcc/nios2-elf/4.1.2/../../../../nios2-elf/lib/mno-hw-mul/libc.a(lib_a-mallocr.o)
                0x08039bc8                __malloc_top_pad
                0x08039bcc                __malloc_max_sbrked_mem
                0x08039bd0                __malloc_max_total_mem
 .sbss          0x08039bd4        0x4 /package/eda/altera/altera13.0sp1/nios2eds/bin/gnu/H-i686-pc-linux-gnu/bin/../lib/gcc/nios2-elf/4.1.2/../../../../nios2-elf/lib/mno-hw-mul/libc.a(lib_a-environ.o)
 .sbss          0x08039bd8        0xc /package/eda/altera/altera13.0sp1/nios2eds/bin/gnu/H-i686-pc-linux-gnu/bin/../lib/gcc/nios2-elf/4.1.2/../../../../nios2-elf/lib/mno-hw-mul/libc.a(lib_a-locale.o)
                0x08039bd8                __nlocale_changed
                0x08039bdc                __mlocale_changed
                0x08039be0                _PathLocale
 .sbss          0x08039be4        0xc ../demo_board_bsp//libhal_bsp.a(alt_main.o)
                0x08039be4                alt_argc
                0x08039be8                alt_argv
                0x08039bec                alt_envp
 .sbss          0x08039bf0        0x4 ../demo_board_bsp//libhal_bsp.a(alt_irq_vars.o)
                0x08039bf0                alt_irq_active
 .sbss          0x08039bf4        0x8 ../demo_board_bsp//libhal_bsp.a(alt_tick.o)
                0x08039bf4                _alt_tick_rate
                0x08039bf8                _alt_nticks
 *(.sbss2 .sbss2.* .gnu.linkonce.sb2.*)
 *(.scommon)
                0x08039bfc                PROVIDE (__sbss_end, ABSOLUTE (.))
                0x08039bfc                PROVIDE (___sbss_end, ABSOLUTE (.))
 *(.dynbss)
 *(.bss .bss.* .gnu.linkonce.b.*)
 .bss           0x08039bfc        0x0 ../demo_board_bsp//obj/HAL/src/crt0.o
 .bss           0x08039bfc        0x0 obj/default/cdjpeg.o
 .bss           0x08039bfc        0x0 obj/default/djpeg.o
 .bss           0x08039bfc        0x0 obj/default/jcapimin.o
 .bss           0x08039bfc        0x0 obj/default/jcapistd.o
 .bss           0x08039bfc        0x0 obj/default/jccoefct.o
 .bss           0x08039bfc        0x0 obj/default/jccolor.o
 .bss           0x08039bfc        0x0 obj/default/jcdctmgr.o
 .bss           0x08039bfc        0x0 obj/default/jchuff.o
 .bss           0x08039bfc        0x0 obj/default/jcinit.o
 .bss           0x08039bfc        0x0 obj/default/jcmainct.o
 .bss           0x08039bfc        0x0 obj/default/jcmarker.o
 .bss           0x08039bfc        0x0 obj/default/jcmaster.o
 .bss           0x08039bfc        0x0 obj/default/jcomapi.o
 .bss           0x08039bfc        0x0 obj/default/jcparam.o
 .bss           0x08039bfc        0x0 obj/default/jcphuff.o
 .bss           0x08039bfc        0x0 obj/default/jcprepct.o
 .bss           0x08039bfc        0x0 obj/default/jcsample.o
 .bss           0x08039bfc        0x0 obj/default/jctrans.o
 .bss           0x08039bfc        0x0 obj/default/jdapimin.o
 .bss           0x08039bfc        0x0 obj/default/jdapistd.o
 .bss           0x08039bfc        0x0 obj/default/jdatadst.o
 .bss           0x08039bfc        0x0 obj/default/jdatasrc.o
 .bss           0x08039bfc        0x0 obj/default/jdcoefct.o
 .bss           0x08039bfc        0x0 obj/default/jdcolor.o
 .bss           0x08039bfc        0x0 obj/default/jddctmgr.o
 .bss           0x08039bfc        0x0 obj/default/jdhuff.o
 .bss           0x08039bfc        0x0 obj/default/jdinput.o
 .bss           0x08039bfc        0x0 obj/default/jdmainct.o
 .bss           0x08039bfc        0x0 obj/default/jdmarker.o
 .bss           0x08039bfc        0x0 obj/default/jdmaster.o
 .bss           0x08039bfc        0x0 obj/default/jdmerge.o
 .bss           0x08039bfc        0x0 obj/default/jdphuff.o
 .bss           0x08039bfc        0x0 obj/default/jdpostct.o
 .bss           0x08039bfc        0x0 obj/default/jdsample.o
 .bss           0x08039bfc        0x0 obj/default/jdtrans.o
 .bss           0x08039bfc        0x0 obj/default/jerror.o
 .bss           0x08039bfc        0x0 obj/default/jfdctflt.o
 .bss           0x08039bfc        0x0 obj/default/jfdctfst.o
 .bss           0x08039bfc        0x0 obj/default/jfdctint.o
 .bss           0x08039bfc        0x0 obj/default/jidctflt.o
 .bss           0x08039bfc        0x0 obj/default/jidctfst.o
 .bss           0x08039bfc        0x0 obj/default/jidctint.o
 .bss           0x08039bfc        0x0 obj/default/jidctred.o
 .bss           0x08039bfc        0x0 obj/default/jmemmgr.o
 .bss           0x08039bfc        0x0 obj/default/jmemnobs.o
 .bss           0x08039bfc        0x0 obj/default/jquant1.o
 .bss           0x08039bfc        0x0 obj/default/jquant2.o
 .bss           0x08039bfc        0x0 obj/default/jutils.o
 .bss           0x08039bfc        0x0 obj/default/rdcolmap.o
 .bss           0x08039bfc        0x0 obj/default/wrbmp.o
 .bss           0x08039bfc        0x0 obj/default/wrgif.o
 .bss           0x08039bfc        0x0 obj/default/wrppm.o
 .bss           0x08039bfc        0x0 obj/default/wrrle.o
 .bss           0x08039bfc        0x0 obj/default/wrtarga.o
 .bss           0x08039bfc        0x0 /package/eda/altera/altera13.0sp1/nios2eds/bin/gnu/H-i686-pc-linux-gnu/bin/../lib/gcc/nios2-elf/4.1.2/mno-hw-mul/libgcc.a(_addsub_sf.o)
 .bss           0x08039bfc        0x0 /package/eda/altera/altera13.0sp1/nios2eds/bin/gnu/H-i686-pc-linux-gnu/bin/../lib/gcc/nios2-elf/4.1.2/mno-hw-mul/libgcc.a(_mul_sf.o)
 .bss           0x08039bfc        0x0 /package/eda/altera/altera13.0sp1/nios2eds/bin/gnu/H-i686-pc-linux-gnu/bin/../lib/gcc/nios2-elf/4.1.2/mno-hw-mul/libgcc.a(_si_to_sf.o)
 .bss           0x08039bfc        0x0 /package/eda/altera/altera13.0sp1/nios2eds/bin/gnu/H-i686-pc-linux-gnu/bin/../lib/gcc/nios2-elf/4.1.2/mno-hw-mul/libgcc.a(_sf_to_si.o)
 .bss           0x08039bfc        0x0 /package/eda/altera/altera13.0sp1/nios2eds/bin/gnu/H-i686-pc-linux-gnu/bin/../lib/gcc/nios2-elf/4.1.2/mno-hw-mul/libgcc.a(_thenan_sf.o)
 .bss           0x08039bfc        0x0 /package/eda/altera/altera13.0sp1/nios2eds/bin/gnu/H-i686-pc-linux-gnu/bin/../lib/gcc/nios2-elf/4.1.2/mno-hw-mul/libgcc.a(_mul_df.o)
 .bss           0x08039bfc        0x0 /package/eda/altera/altera13.0sp1/nios2eds/bin/gnu/H-i686-pc-linux-gnu/bin/../lib/gcc/nios2-elf/4.1.2/mno-hw-mul/libgcc.a(_div_df.o)
 .bss           0x08039bfc        0x0 /package/eda/altera/altera13.0sp1/nios2eds/bin/gnu/H-i686-pc-linux-gnu/bin/../lib/gcc/nios2-elf/4.1.2/mno-hw-mul/libgcc.a(_df_to_sf.o)
 .bss           0x08039bfc        0x0 /package/eda/altera/altera13.0sp1/nios2eds/bin/gnu/H-i686-pc-linux-gnu/bin/../lib/gcc/nios2-elf/4.1.2/mno-hw-mul/libgcc.a(_thenan_df.o)
 .bss           0x08039bfc        0x0 /package/eda/altera/altera13.0sp1/nios2eds/bin/gnu/H-i686-pc-linux-gnu/bin/../lib/gcc/nios2-elf/4.1.2/mno-hw-mul/libgcc.a(_usi_to_df.o)
 .bss           0x08039bfc        0x0 /package/eda/altera/altera13.0sp1/nios2eds/bin/gnu/H-i686-pc-linux-gnu/bin/../lib/gcc/nios2-elf/4.1.2/mno-hw-mul/libgcc.a(lib2-divmod.o)
 .bss           0x08039bfc        0x0 /package/eda/altera/altera13.0sp1/nios2eds/bin/gnu/H-i686-pc-linux-gnu/bin/../lib/gcc/nios2-elf/4.1.2/mno-hw-mul/libgcc.a(lib2-mul.o)
 .bss           0x08039bfc        0x0 /package/eda/altera/altera13.0sp1/nios2eds/bin/gnu/H-i686-pc-linux-gnu/bin/../lib/gcc/nios2-elf/4.1.2/mno-hw-mul/libgcc.a(_muldi3.o)
 .bss           0x08039bfc        0x0 /package/eda/altera/altera13.0sp1/nios2eds/bin/gnu/H-i686-pc-linux-gnu/bin/../lib/gcc/nios2-elf/4.1.2/mno-hw-mul/libgcc.a(_clzsi2.o)
 .bss           0x08039bfc        0x0 /package/eda/altera/altera13.0sp1/nios2eds/bin/gnu/H-i686-pc-linux-gnu/bin/../lib/gcc/nios2-elf/4.1.2/mno-hw-mul/libgcc.a(_pack_sf.o)
 .bss           0x08039bfc        0x0 /package/eda/altera/altera13.0sp1/nios2eds/bin/gnu/H-i686-pc-linux-gnu/bin/../lib/gcc/nios2-elf/4.1.2/mno-hw-mul/libgcc.a(_unpack_sf.o)
 .bss           0x08039bfc        0x0 /package/eda/altera/altera13.0sp1/nios2eds/bin/gnu/H-i686-pc-linux-gnu/bin/../lib/gcc/nios2-elf/4.1.2/mno-hw-mul/libgcc.a(_make_sf.o)
 .bss           0x08039bfc        0x0 /package/eda/altera/altera13.0sp1/nios2eds/bin/gnu/H-i686-pc-linux-gnu/bin/../lib/gcc/nios2-elf/4.1.2/mno-hw-mul/libgcc.a(_pack_df.o)
 .bss           0x08039bfc        0x0 /package/eda/altera/altera13.0sp1/nios2eds/bin/gnu/H-i686-pc-linux-gnu/bin/../lib/gcc/nios2-elf/4.1.2/mno-hw-mul/libgcc.a(_unpack_df.o)
 .bss           0x08039bfc        0x0 /package/eda/altera/altera13.0sp1/nios2eds/bin/gnu/H-i686-pc-linux-gnu/bin/../lib/gcc/nios2-elf/4.1.2/mno-hw-mul/libgcc.a(_clz.o)
 .bss           0x08039bfc        0x0 /package/eda/altera/altera13.0sp1/nios2eds/bin/gnu/H-i686-pc-linux-gnu/bin/../lib/gcc/nios2-elf/4.1.2/../../../../nios2-elf/lib/mno-hw-mul/libc.a(lib_a-ctype_.o)
 .bss           0x08039bfc        0x0 /package/eda/altera/altera13.0sp1/nios2eds/bin/gnu/H-i686-pc-linux-gnu/bin/../lib/gcc/nios2-elf/4.1.2/../../../../nios2-elf/lib/mno-hw-mul/libc.a(lib_a-exit.o)
 .bss           0x08039bfc        0x0 /package/eda/altera/altera13.0sp1/nios2eds/bin/gnu/H-i686-pc-linux-gnu/bin/../lib/gcc/nios2-elf/4.1.2/../../../../nios2-elf/lib/mno-hw-mul/libc.a(lib_a-fclose.o)
 .bss           0x08039bfc        0x0 /package/eda/altera/altera13.0sp1/nios2eds/bin/gnu/H-i686-pc-linux-gnu/bin/../lib/gcc/nios2-elf/4.1.2/../../../../nios2-elf/lib/mno-hw-mul/libc.a(lib_a-fflush.o)
 .bss           0x08039bfc        0x0 /package/eda/altera/altera13.0sp1/nios2eds/bin/gnu/H-i686-pc-linux-gnu/bin/../lib/gcc/nios2-elf/4.1.2/../../../../nios2-elf/lib/mno-hw-mul/libc.a(lib_a-findfp.o)
 .bss           0x08039bfc        0x0 /package/eda/altera/altera13.0sp1/nios2eds/bin/gnu/H-i686-pc-linux-gnu/bin/../lib/gcc/nios2-elf/4.1.2/../../../../nios2-elf/lib/mno-hw-mul/libc.a(lib_a-fopen.o)
 .bss           0x08039bfc        0x0 /package/eda/altera/altera13.0sp1/nios2eds/bin/gnu/H-i686-pc-linux-gnu/bin/../lib/gcc/nios2-elf/4.1.2/../../../../nios2-elf/lib/mno-hw-mul/libc.a(lib_a-fprintf.o)
 .bss           0x08039bfc        0x0 /package/eda/altera/altera13.0sp1/nios2eds/bin/gnu/H-i686-pc-linux-gnu/bin/../lib/gcc/nios2-elf/4.1.2/../../../../nios2-elf/lib/mno-hw-mul/libc.a(lib_a-fputc.o)
 .bss           0x08039bfc        0x0 /package/eda/altera/altera13.0sp1/nios2eds/bin/gnu/H-i686-pc-linux-gnu/bin/../lib/gcc/nios2-elf/4.1.2/../../../../nios2-elf/lib/mno-hw-mul/libc.a(lib_a-fread.o)
 .bss           0x08039bfc        0x0 /package/eda/altera/altera13.0sp1/nios2eds/bin/gnu/H-i686-pc-linux-gnu/bin/../lib/gcc/nios2-elf/4.1.2/../../../../nios2-elf/lib/mno-hw-mul/libc.a(lib_a-freer.o)
 .bss           0x08039bfc        0x0 /package/eda/altera/altera13.0sp1/nios2eds/bin/gnu/H-i686-pc-linux-gnu/bin/../lib/gcc/nios2-elf/4.1.2/../../../../nios2-elf/lib/mno-hw-mul/libc.a(lib_a-fseek.o)
 .bss           0x08039bfc        0x0 /package/eda/altera/altera13.0sp1/nios2eds/bin/gnu/H-i686-pc-linux-gnu/bin/../lib/gcc/nios2-elf/4.1.2/../../../../nios2-elf/lib/mno-hw-mul/libc.a(lib_a-fstatr.o)
 .bss           0x08039bfc        0x0 /package/eda/altera/altera13.0sp1/nios2eds/bin/gnu/H-i686-pc-linux-gnu/bin/../lib/gcc/nios2-elf/4.1.2/../../../../nios2-elf/lib/mno-hw-mul/libc.a(lib_a-fwalk.o)
 .bss           0x08039bfc        0x0 /package/eda/altera/altera13.0sp1/nios2eds/bin/gnu/H-i686-pc-linux-gnu/bin/../lib/gcc/nios2-elf/4.1.2/../../../../nios2-elf/lib/mno-hw-mul/libc.a(lib_a-fwrite.o)
 .bss           0x08039bfc        0x0 /package/eda/altera/altera13.0sp1/nios2eds/bin/gnu/H-i686-pc-linux-gnu/bin/../lib/gcc/nios2-elf/4.1.2/../../../../nios2-elf/lib/mno-hw-mul/libc.a(lib_a-getc.o)
 .bss           0x08039bfc        0x0 /package/eda/altera/altera13.0sp1/nios2eds/bin/gnu/H-i686-pc-linux-gnu/bin/../lib/gcc/nios2-elf/4.1.2/../../../../nios2-elf/lib/mno-hw-mul/libc.a(lib_a-getenv.o)
 .bss           0x08039bfc        0x0 /package/eda/altera/altera13.0sp1/nios2eds/bin/gnu/H-i686-pc-linux-gnu/bin/../lib/gcc/nios2-elf/4.1.2/../../../../nios2-elf/lib/mno-hw-mul/libc.a(lib_a-getenv_r.o)
 .bss           0x08039bfc        0x0 /package/eda/altera/altera13.0sp1/nios2eds/bin/gnu/H-i686-pc-linux-gnu/bin/../lib/gcc/nios2-elf/4.1.2/../../../../nios2-elf/lib/mno-hw-mul/libc.a(lib_a-impure.o)
 .bss           0x08039bfc        0x0 /package/eda/altera/altera13.0sp1/nios2eds/bin/gnu/H-i686-pc-linux-gnu/bin/../lib/gcc/nios2-elf/4.1.2/../../../../nios2-elf/lib/mno-hw-mul/libc.a(lib_a-int_errno.o)
 .bss           0x08039bfc        0x0 /package/eda/altera/altera13.0sp1/nios2eds/bin/gnu/H-i686-pc-linux-gnu/bin/../lib/gcc/nios2-elf/4.1.2/../../../../nios2-elf/lib/mno-hw-mul/libc.a(lib_a-makebuf.o)
 .bss           0x08039bfc        0x0 /package/eda/altera/altera13.0sp1/nios2eds/bin/gnu/H-i686-pc-linux-gnu/bin/../lib/gcc/nios2-elf/4.1.2/../../../../nios2-elf/lib/mno-hw-mul/libc.a(lib_a-malloc.o)
 .bss           0x08039bfc       0x28 /package/eda/altera/altera13.0sp1/nios2eds/bin/gnu/H-i686-pc-linux-gnu/bin/../lib/gcc/nios2-elf/4.1.2/../../../../nios2-elf/lib/mno-hw-mul/libc.a(lib_a-mallocr.o)
                0x08039bfc                __malloc_current_mallinfo
 .bss           0x08039c24        0x0 /package/eda/altera/altera13.0sp1/nios2eds/bin/gnu/H-i686-pc-linux-gnu/bin/../lib/gcc/nios2-elf/4.1.2/../../../../nios2-elf/lib/mno-hw-mul/libc.a(lib_a-memcpy.o)
 .bss           0x08039c24        0x0 /package/eda/altera/altera13.0sp1/nios2eds/bin/gnu/H-i686-pc-linux-gnu/bin/../lib/gcc/nios2-elf/4.1.2/../../../../nios2-elf/lib/mno-hw-mul/libc.a(lib_a-memset.o)
 .bss           0x08039c24        0x0 /package/eda/altera/altera13.0sp1/nios2eds/bin/gnu/H-i686-pc-linux-gnu/bin/../lib/gcc/nios2-elf/4.1.2/../../../../nios2-elf/lib/mno-hw-mul/libc.a(lib_a-openr.o)
 .bss           0x08039c24        0x0 /package/eda/altera/altera13.0sp1/nios2eds/bin/gnu/H-i686-pc-linux-gnu/bin/../lib/gcc/nios2-elf/4.1.2/../../../../nios2-elf/lib/mno-hw-mul/libc.a(lib_a-printf.o)
 .bss           0x08039c24        0x0 /package/eda/altera/altera13.0sp1/nios2eds/bin/gnu/H-i686-pc-linux-gnu/bin/../lib/gcc/nios2-elf/4.1.2/../../../../nios2-elf/lib/mno-hw-mul/libc.a(lib_a-putc.o)
 .bss           0x08039c24        0x0 /package/eda/altera/altera13.0sp1/nios2eds/bin/gnu/H-i686-pc-linux-gnu/bin/../lib/gcc/nios2-elf/4.1.2/../../../../nios2-elf/lib/mno-hw-mul/libc.a(lib_a-puts.o)
 .bss           0x08039c24        0x0 /package/eda/altera/altera13.0sp1/nios2eds/bin/gnu/H-i686-pc-linux-gnu/bin/../lib/gcc/nios2-elf/4.1.2/../../../../nios2-elf/lib/mno-hw-mul/libc.a(lib_a-refill.o)
 .bss           0x08039c24        0x0 /package/eda/altera/altera13.0sp1/nios2eds/bin/gnu/H-i686-pc-linux-gnu/bin/../lib/gcc/nios2-elf/4.1.2/../../../../nios2-elf/lib/mno-hw-mul/libc.a(lib_a-rget.o)
 .bss           0x08039c24        0x0 /package/eda/altera/altera13.0sp1/nios2eds/bin/gnu/H-i686-pc-linux-gnu/bin/../lib/gcc/nios2-elf/4.1.2/../../../../nios2-elf/lib/mno-hw-mul/libc.a(lib_a-sbrkr.o)
 .bss           0x08039c24        0x0 /package/eda/altera/altera13.0sp1/nios2eds/bin/gnu/H-i686-pc-linux-gnu/bin/../lib/gcc/nios2-elf/4.1.2/../../../../nios2-elf/lib/mno-hw-mul/libc.a(lib_a-sprintf.o)
 .bss           0x08039c24        0x0 /package/eda/altera/altera13.0sp1/nios2eds/bin/gnu/H-i686-pc-linux-gnu/bin/../lib/gcc/nios2-elf/4.1.2/../../../../nios2-elf/lib/mno-hw-mul/libc.a(lib_a-sscanf.o)
 .bss           0x08039c24        0x0 /package/eda/altera/altera13.0sp1/nios2eds/bin/gnu/H-i686-pc-linux-gnu/bin/../lib/gcc/nios2-elf/4.1.2/../../../../nios2-elf/lib/mno-hw-mul/libc.a(lib_a-stdio.o)
 .bss           0x08039c24        0x0 /package/eda/altera/altera13.0sp1/nios2eds/bin/gnu/H-i686-pc-linux-gnu/bin/../lib/gcc/nios2-elf/4.1.2/../../../../nios2-elf/lib/mno-hw-mul/libc.a(lib_a-strdup.o)
 .bss           0x08039c24        0x0 /package/eda/altera/altera13.0sp1/nios2eds/bin/gnu/H-i686-pc-linux-gnu/bin/../lib/gcc/nios2-elf/4.1.2/../../../../nios2-elf/lib/mno-hw-mul/libc.a(lib_a-strdup_r.o)
 .bss           0x08039c24        0x0 /package/eda/altera/altera13.0sp1/nios2eds/bin/gnu/H-i686-pc-linux-gnu/bin/../lib/gcc/nios2-elf/4.1.2/../../../../nios2-elf/lib/mno-hw-mul/libc.a(lib_a-strlen.o)
 .bss           0x08039c24        0x0 /package/eda/altera/altera13.0sp1/nios2eds/bin/gnu/H-i686-pc-linux-gnu/bin/../lib/gcc/nios2-elf/4.1.2/../../../../nios2-elf/lib/mno-hw-mul/libc.a(lib_a-strncmp.o)
 .bss           0x08039c24        0x0 /package/eda/altera/altera13.0sp1/nios2eds/bin/gnu/H-i686-pc-linux-gnu/bin/../lib/gcc/nios2-elf/4.1.2/../../../../nios2-elf/lib/mno-hw-mul/libc.a(lib_a-vfprintf.o)
 .bss           0x08039c24        0x0 /package/eda/altera/altera13.0sp1/nios2eds/bin/gnu/H-i686-pc-linux-gnu/bin/../lib/gcc/nios2-elf/4.1.2/../../../../nios2-elf/lib/mno-hw-mul/libc.a(lib_a-vfscanf.o)
 .bss           0x08039c24        0x0 /package/eda/altera/altera13.0sp1/nios2eds/bin/gnu/H-i686-pc-linux-gnu/bin/../lib/gcc/nios2-elf/4.1.2/../../../../nios2-elf/lib/mno-hw-mul/libc.a(lib_a-wbuf.o)
 .bss           0x08039c24        0x0 /package/eda/altera/altera13.0sp1/nios2eds/bin/gnu/H-i686-pc-linux-gnu/bin/../lib/gcc/nios2-elf/4.1.2/../../../../nios2-elf/lib/mno-hw-mul/libc.a(lib_a-writer.o)
 .bss           0x08039c24        0x0 /package/eda/altera/altera13.0sp1/nios2eds/bin/gnu/H-i686-pc-linux-gnu/bin/../lib/gcc/nios2-elf/4.1.2/../../../../nios2-elf/lib/mno-hw-mul/libc.a(lib_a-wsetup.o)
 .bss           0x08039c24        0x0 /package/eda/altera/altera13.0sp1/nios2eds/bin/gnu/H-i686-pc-linux-gnu/bin/../lib/gcc/nios2-elf/4.1.2/../../../../nios2-elf/lib/mno-hw-mul/libc.a(lib_a-__call_atexit.o)
 .bss           0x08039c24        0x0 /package/eda/altera/altera13.0sp1/nios2eds/bin/gnu/H-i686-pc-linux-gnu/bin/../lib/gcc/nios2-elf/4.1.2/../../../../nios2-elf/lib/mno-hw-mul/libc.a(lib_a-closer.o)
 .bss           0x08039c24        0x0 /package/eda/altera/altera13.0sp1/nios2eds/bin/gnu/H-i686-pc-linux-gnu/bin/../lib/gcc/nios2-elf/4.1.2/../../../../nios2-elf/lib/mno-hw-mul/libc.a(lib_a-dtoa.o)
 .bss           0x08039c24        0x0 /package/eda/altera/altera13.0sp1/nios2eds/bin/gnu/H-i686-pc-linux-gnu/bin/../lib/gcc/nios2-elf/4.1.2/../../../../nios2-elf/lib/mno-hw-mul/libc.a(lib_a-environ.o)
 .bss           0x08039c24        0x0 /package/eda/altera/altera13.0sp1/nios2eds/bin/gnu/H-i686-pc-linux-gnu/bin/../lib/gcc/nios2-elf/4.1.2/../../../../nios2-elf/lib/mno-hw-mul/libc.a(lib_a-flags.o)
 .bss           0x08039c24        0x0 /package/eda/altera/altera13.0sp1/nios2eds/bin/gnu/H-i686-pc-linux-gnu/bin/../lib/gcc/nios2-elf/4.1.2/../../../../nios2-elf/lib/mno-hw-mul/libc.a(lib_a-fvwrite.o)
 .bss           0x08039c24        0x0 /package/eda/altera/altera13.0sp1/nios2eds/bin/gnu/H-i686-pc-linux-gnu/bin/../lib/gcc/nios2-elf/4.1.2/../../../../nios2-elf/lib/mno-hw-mul/libc.a(lib_a-isattyr.o)
 .bss           0x08039c24        0x0 /package/eda/altera/altera13.0sp1/nios2eds/bin/gnu/H-i686-pc-linux-gnu/bin/../lib/gcc/nios2-elf/4.1.2/../../../../nios2-elf/lib/mno-hw-mul/libc.a(lib_a-iswspace.o)
 .bss           0x08039c24        0x0 /package/eda/altera/altera13.0sp1/nios2eds/bin/gnu/H-i686-pc-linux-gnu/bin/../lib/gcc/nios2-elf/4.1.2/../../../../nios2-elf/lib/mno-hw-mul/libc.a(lib_a-locale.o)
 .bss           0x08039c24        0x0 /package/eda/altera/altera13.0sp1/nios2eds/bin/gnu/H-i686-pc-linux-gnu/bin/../lib/gcc/nios2-elf/4.1.2/../../../../nios2-elf/lib/mno-hw-mul/libc.a(lib_a-lseekr.o)
 .bss           0x08039c24        0x0 /package/eda/altera/altera13.0sp1/nios2eds/bin/gnu/H-i686-pc-linux-gnu/bin/../lib/gcc/nios2-elf/4.1.2/../../../../nios2-elf/lib/mno-hw-mul/libc.a(lib_a-mbrtowc.o)
 .bss           0x08039c24        0x0 /package/eda/altera/altera13.0sp1/nios2eds/bin/gnu/H-i686-pc-linux-gnu/bin/../lib/gcc/nios2-elf/4.1.2/../../../../nios2-elf/lib/mno-hw-mul/libc.a(lib_a-mbtowc_r.o)
 .bss           0x08039c24        0x0 /package/eda/altera/altera13.0sp1/nios2eds/bin/gnu/H-i686-pc-linux-gnu/bin/../lib/gcc/nios2-elf/4.1.2/../../../../nios2-elf/lib/mno-hw-mul/libc.a(lib_a-memchr.o)
 .bss           0x08039c24        0x0 /package/eda/altera/altera13.0sp1/nios2eds/bin/gnu/H-i686-pc-linux-gnu/bin/../lib/gcc/nios2-elf/4.1.2/../../../../nios2-elf/lib/mno-hw-mul/libc.a(lib_a-memmove.o)
 .bss           0x08039c24        0x0 /package/eda/altera/altera13.0sp1/nios2eds/bin/gnu/H-i686-pc-linux-gnu/bin/../lib/gcc/nios2-elf/4.1.2/../../../../nios2-elf/lib/mno-hw-mul/libc.a(lib_a-mprec.o)
 .bss           0x08039c24        0x0 /package/eda/altera/altera13.0sp1/nios2eds/bin/gnu/H-i686-pc-linux-gnu/bin/../lib/gcc/nios2-elf/4.1.2/../../../../nios2-elf/lib/mno-hw-mul/libc.a(lib_a-readr.o)
 .bss           0x08039c24        0x0 /package/eda/altera/altera13.0sp1/nios2eds/bin/gnu/H-i686-pc-linux-gnu/bin/../lib/gcc/nios2-elf/4.1.2/../../../../nios2-elf/lib/mno-hw-mul/libc.a(lib_a-reallocr.o)
 .bss           0x08039c24        0x0 /package/eda/altera/altera13.0sp1/nios2eds/bin/gnu/H-i686-pc-linux-gnu/bin/../lib/gcc/nios2-elf/4.1.2/../../../../nios2-elf/lib/mno-hw-mul/libc.a(lib_a-s_isinfd.o)
 .bss           0x08039c24        0x0 /package/eda/altera/altera13.0sp1/nios2eds/bin/gnu/H-i686-pc-linux-gnu/bin/../lib/gcc/nios2-elf/4.1.2/../../../../nios2-elf/lib/mno-hw-mul/libc.a(lib_a-s_isnand.o)
 .bss           0x08039c24        0x0 /package/eda/altera/altera13.0sp1/nios2eds/bin/gnu/H-i686-pc-linux-gnu/bin/../lib/gcc/nios2-elf/4.1.2/../../../../nios2-elf/lib/mno-hw-mul/libc.a(lib_a-sccl.o)
 .bss           0x08039c24        0x0 /package/eda/altera/altera13.0sp1/nios2eds/bin/gnu/H-i686-pc-linux-gnu/bin/../lib/gcc/nios2-elf/4.1.2/../../../../nios2-elf/lib/mno-hw-mul/libc.a(lib_a-sf_nan.o)
 .bss           0x08039c24        0x0 /package/eda/altera/altera13.0sp1/nios2eds/bin/gnu/H-i686-pc-linux-gnu/bin/../lib/gcc/nios2-elf/4.1.2/../../../../nios2-elf/lib/mno-hw-mul/libc.a(lib_a-strcmp.o)
 .bss           0x08039c24        0x0 /package/eda/altera/altera13.0sp1/nios2eds/bin/gnu/H-i686-pc-linux-gnu/bin/../lib/gcc/nios2-elf/4.1.2/../../../../nios2-elf/lib/mno-hw-mul/libc.a(lib_a-strtod.o)
 .bss           0x08039c24        0x0 /package/eda/altera/altera13.0sp1/nios2eds/bin/gnu/H-i686-pc-linux-gnu/bin/../lib/gcc/nios2-elf/4.1.2/../../../../nios2-elf/lib/mno-hw-mul/libc.a(lib_a-strtol.o)
 .bss           0x08039c24        0x0 /package/eda/altera/altera13.0sp1/nios2eds/bin/gnu/H-i686-pc-linux-gnu/bin/../lib/gcc/nios2-elf/4.1.2/../../../../nios2-elf/lib/mno-hw-mul/libc.a(lib_a-strtoll_r.o)
 .bss           0x08039c24        0x0 /package/eda/altera/altera13.0sp1/nios2eds/bin/gnu/H-i686-pc-linux-gnu/bin/../lib/gcc/nios2-elf/4.1.2/../../../../nios2-elf/lib/mno-hw-mul/libc.a(lib_a-strtoul.o)
 .bss           0x08039c24        0x0 /package/eda/altera/altera13.0sp1/nios2eds/bin/gnu/H-i686-pc-linux-gnu/bin/../lib/gcc/nios2-elf/4.1.2/../../../../nios2-elf/lib/mno-hw-mul/libc.a(lib_a-strtoull_r.o)
 .bss           0x08039c24        0x0 /package/eda/altera/altera13.0sp1/nios2eds/bin/gnu/H-i686-pc-linux-gnu/bin/../lib/gcc/nios2-elf/4.1.2/../../../../nios2-elf/lib/mno-hw-mul/libc.a(lib_a-ungetc.o)
 .bss           0x08039c24        0x0 /package/eda/altera/altera13.0sp1/nios2eds/bin/gnu/H-i686-pc-linux-gnu/bin/../lib/gcc/nios2-elf/4.1.2/../../../../nios2-elf/lib/mno-hw-mul/libc.a(lib_a-callocr.o)
 .bss           0x08039c24        0x0 /package/eda/altera/altera13.0sp1/nios2eds/bin/gnu/H-i686-pc-linux-gnu/bin/../lib/gcc/nios2-elf/4.1.2/../../../../nios2-elf/lib/mno-hw-mul/libc.a(lib_a-gdtoa-gethex.o)
 .bss           0x08039c24        0x0 /package/eda/altera/altera13.0sp1/nios2eds/bin/gnu/H-i686-pc-linux-gnu/bin/../lib/gcc/nios2-elf/4.1.2/../../../../nios2-elf/lib/mno-hw-mul/libc.a(lib_a-gdtoa-hexnan.o)
 .bss           0x08039c24        0x0 /package/eda/altera/altera13.0sp1/nios2eds/bin/gnu/H-i686-pc-linux-gnu/bin/../lib/gcc/nios2-elf/4.1.2/mno-hw-mul/libgcc.a(_fixunsdfsi.o)
 .bss           0x08039c24        0x0 /package/eda/altera/altera13.0sp1/nios2eds/bin/gnu/H-i686-pc-linux-gnu/bin/../lib/gcc/nios2-elf/4.1.2/mno-hw-mul/libgcc.a(_udivdi3.o)
 .bss           0x08039c24        0x0 /package/eda/altera/altera13.0sp1/nios2eds/bin/gnu/H-i686-pc-linux-gnu/bin/../lib/gcc/nios2-elf/4.1.2/mno-hw-mul/libgcc.a(_umoddi3.o)
 .bss           0x08039c24        0x0 /package/eda/altera/altera13.0sp1/nios2eds/bin/gnu/H-i686-pc-linux-gnu/bin/../lib/gcc/nios2-elf/4.1.2/mno-hw-mul/libgcc.a(_ne_sf.o)
 .bss           0x08039c24        0x0 /package/eda/altera/altera13.0sp1/nios2eds/bin/gnu/H-i686-pc-linux-gnu/bin/../lib/gcc/nios2-elf/4.1.2/mno-hw-mul/libgcc.a(_gt_sf.o)
 .bss           0x08039c24        0x0 /package/eda/altera/altera13.0sp1/nios2eds/bin/gnu/H-i686-pc-linux-gnu/bin/../lib/gcc/nios2-elf/4.1.2/mno-hw-mul/libgcc.a(_lt_sf.o)
 .bss           0x08039c24        0x0 /package/eda/altera/altera13.0sp1/nios2eds/bin/gnu/H-i686-pc-linux-gnu/bin/../lib/gcc/nios2-elf/4.1.2/mno-hw-mul/libgcc.a(_addsub_df.o)
 .bss           0x08039c24        0x0 /package/eda/altera/altera13.0sp1/nios2eds/bin/gnu/H-i686-pc-linux-gnu/bin/../lib/gcc/nios2-elf/4.1.2/mno-hw-mul/libgcc.a(_eq_df.o)
 .bss           0x08039c24        0x0 /package/eda/altera/altera13.0sp1/nios2eds/bin/gnu/H-i686-pc-linux-gnu/bin/../lib/gcc/nios2-elf/4.1.2/mno-hw-mul/libgcc.a(_ne_df.o)
 .bss           0x08039c24        0x0 /package/eda/altera/altera13.0sp1/nios2eds/bin/gnu/H-i686-pc-linux-gnu/bin/../lib/gcc/nios2-elf/4.1.2/mno-hw-mul/libgcc.a(_gt_df.o)
 .bss           0x08039c24        0x0 /package/eda/altera/altera13.0sp1/nios2eds/bin/gnu/H-i686-pc-linux-gnu/bin/../lib/gcc/nios2-elf/4.1.2/mno-hw-mul/libgcc.a(_ge_df.o)
 .bss           0x08039c24        0x0 /package/eda/altera/altera13.0sp1/nios2eds/bin/gnu/H-i686-pc-linux-gnu/bin/../lib/gcc/nios2-elf/4.1.2/mno-hw-mul/libgcc.a(_lt_df.o)
 .bss           0x08039c24        0x0 /package/eda/altera/altera13.0sp1/nios2eds/bin/gnu/H-i686-pc-linux-gnu/bin/../lib/gcc/nios2-elf/4.1.2/mno-hw-mul/libgcc.a(_le_df.o)
 .bss           0x08039c24        0x0 /package/eda/altera/altera13.0sp1/nios2eds/bin/gnu/H-i686-pc-linux-gnu/bin/../lib/gcc/nios2-elf/4.1.2/mno-hw-mul/libgcc.a(_si_to_df.o)
 .bss           0x08039c24        0x0 /package/eda/altera/altera13.0sp1/nios2eds/bin/gnu/H-i686-pc-linux-gnu/bin/../lib/gcc/nios2-elf/4.1.2/mno-hw-mul/libgcc.a(_df_to_si.o)
 .bss           0x08039c24        0x0 /package/eda/altera/altera13.0sp1/nios2eds/bin/gnu/H-i686-pc-linux-gnu/bin/../lib/gcc/nios2-elf/4.1.2/mno-hw-mul/libgcc.a(_fpcmp_parts_sf.o)
 .bss           0x08039c24        0x0 /package/eda/altera/altera13.0sp1/nios2eds/bin/gnu/H-i686-pc-linux-gnu/bin/../lib/gcc/nios2-elf/4.1.2/mno-hw-mul/libgcc.a(_fpcmp_parts_df.o)
 .bss           0x08039c24        0x0 ../demo_board_bsp//libhal_bsp.a(alt_close.o)
 .bss           0x08039c24        0x0 ../demo_board_bsp//libhal_bsp.a(alt_dev.o)
 .bss           0x08039c24        0x0 ../demo_board_bsp//libhal_bsp.a(alt_env_lock.o)
 .bss           0x08039c24        0x0 ../demo_board_bsp//libhal_bsp.a(alt_errno.o)
 .bss           0x08039c24        0x0 ../demo_board_bsp//libhal_bsp.a(alt_exit.o)
 .bss           0x08039c24        0x0 ../demo_board_bsp//libhal_bsp.a(alt_fstat.o)
 .bss           0x08039c24        0x0 ../demo_board_bsp//libhal_bsp.a(alt_isatty.o)
 .bss           0x08039c24        0x0 ../demo_board_bsp//libhal_bsp.a(alt_load.o)
 .bss           0x08039c24        0x0 ../demo_board_bsp//libhal_bsp.a(alt_lseek.o)
 .bss           0x08039c24        0x0 ../demo_board_bsp//libhal_bsp.a(alt_main.o)
 .bss           0x08039c24        0x0 ../demo_board_bsp//libhal_bsp.a(alt_malloc_lock.o)
 .bss           0x08039c24        0x0 ../demo_board_bsp//libhal_bsp.a(alt_open.o)
 .bss           0x08039c24        0x0 ../demo_board_bsp//libhal_bsp.a(alt_read.o)
 .bss           0x08039c24        0x0 ../demo_board_bsp//libhal_bsp.a(alt_release_fd.o)
 .bss           0x08039c24        0x0 ../demo_board_bsp//libhal_bsp.a(alt_sbrk.o)
 .bss           0x08039c24        0x0 ../demo_board_bsp//libhal_bsp.a(alt_write.o)
 .bss           0x08039c24        0x0 ../demo_board_bsp//libhal_bsp.a(alt_sys_init.o)
 .bss           0x08039c24        0x0 ../demo_board_bsp//libhal_bsp.a(altera_avalon_cfi_flash.o)
 .bss           0x08039c24        0x0 ../demo_board_bsp//libhal_bsp.a(altera_avalon_cfi_flash_table.o)
 .bss           0x08039c24        0x0 ../demo_board_bsp//libhal_bsp.a(altera_avalon_jtag_uart_fd.o)
 .bss           0x08039c24        0x0 ../demo_board_bsp//libhal_bsp.a(altera_avalon_jtag_uart_init.o)
 .bss           0x08039c24        0x0 ../demo_board_bsp//libhal_bsp.a(altera_avalon_jtag_uart_ioctl.o)
 .bss           0x08039c24        0x0 ../demo_board_bsp//libhal_bsp.a(altera_avalon_jtag_uart_read.o)
 .bss           0x08039c24        0x0 ../demo_board_bsp//libhal_bsp.a(altera_avalon_jtag_uart_write.o)
 .bss           0x08039c24        0x0 ../demo_board_bsp//libhal_bsp.a(altera_avalon_performance_counter.o)
 .bss           0x08039c24        0x0 ../demo_board_bsp//libhal_bsp.a(altera_ro_zipfs.o)
 .bss           0x08039c24        0x0 ../demo_board_bsp//libhal_bsp.a(altera_up_avalon_video_pixel_buffer_dma.o)
 .bss           0x08039c24        0x0 ../demo_board_bsp//libhal_bsp.a(perf_print_formatted_report.o)
 .bss           0x08039c24        0x0 ../demo_board_bsp//libhal_bsp.a(alt_alarm_start.o)
 .bss           0x08039c24        0x0 ../demo_board_bsp//libhal_bsp.a(alt_dcache_flush.o)
 .bss           0x08039c24        0x0 ../demo_board_bsp//libhal_bsp.a(alt_dcache_flush_all.o)
 .bss           0x08039c24        0x0 ../demo_board_bsp//libhal_bsp.a(alt_dev_llist_insert.o)
 .bss           0x08039c24        0x0 ../demo_board_bsp//libhal_bsp.a(alt_do_ctors.o)
 .bss           0x08039c24        0x0 ../demo_board_bsp//libhal_bsp.a(alt_do_dtors.o)
 .bss           0x08039c24        0x0 ../demo_board_bsp//libhal_bsp.a(alt_find_dev.o)
 .bss           0x08039c24        0x0 ../demo_board_bsp//libhal_bsp.a(alt_find_file.o)
 .bss           0x08039c24        0x0 ../demo_board_bsp//libhal_bsp.a(alt_flash_dev.o)
 .bss           0x08039c24        0x0 ../demo_board_bsp//libhal_bsp.a(alt_fs_reg.o)
 .bss           0x08039c24        0x0 ../demo_board_bsp//libhal_bsp.a(alt_get_fd.o)
 .bss           0x08039c24        0x0 ../demo_board_bsp//libhal_bsp.a(alt_icache_flush_all.o)
 .bss           0x08039c24        0x0 ../demo_board_bsp//libhal_bsp.a(alt_iic.o)
 .bss           0x08039c24        0x0 ../demo_board_bsp//libhal_bsp.a(alt_iic_isr_register.o)
 .bss           0x08039c24        0x0 ../demo_board_bsp//libhal_bsp.a(alt_io_redirect.o)
 .bss           0x08039c24        0x0 ../demo_board_bsp//libhal_bsp.a(alt_irq_entry.o)
 .bss           0x08039c24        0x0 ../demo_board_bsp//libhal_bsp.a(alt_irq_handler.o)
 .bss           0x08039c24        0x0 ../demo_board_bsp//libhal_bsp.a(alt_irq_vars.o)
 .bss           0x08039c24        0x0 ../demo_board_bsp//libhal_bsp.a(alt_tick.o)
 .bss           0x08039c24        0x0 ../demo_board_bsp//libhal_bsp.a(altera_nios2_qsys_irq.o)
 .bss           0x08039c24        0x0 ../demo_board_bsp//libhal_bsp.a(altera_avalon_cfi_flash_amd.o)
 .bss           0x08039c24        0x0 ../demo_board_bsp//libhal_bsp.a(altera_avalon_cfi_flash_intel.o)
 .bss           0x08039c24        0x0 ../demo_board_bsp//libhal_bsp.a(alt_exception_entry.o)
 .bss           0x08039c24        0x0 ../demo_board_bsp//libhal_bsp.a(alt_usleep.o)
 .bss           0x08039c24        0x0 ../demo_board_bsp//libhal_bsp.a(alt_busy_sleep.o)
 .bss           0x08039c24        0x0 /package/eda/altera/altera13.0sp1/nios2eds/bin/gnu/H-i686-pc-linux-gnu/bin/../lib/gcc/nios2-elf/4.1.2/../../../../nios2-elf/lib/mno-hw-mul/libc.a(lib_a-atexit.o)
 .bss           0x08039c24        0x0 /package/eda/altera/altera13.0sp1/nios2eds/bin/gnu/H-i686-pc-linux-gnu/bin/../lib/gcc/nios2-elf/4.1.2/../../../../nios2-elf/lib/mno-hw-mul/libc.a(lib_a-memcmp.o)
 .bss           0x08039c24        0x0 /package/eda/altera/altera13.0sp1/nios2eds/bin/gnu/H-i686-pc-linux-gnu/bin/../lib/gcc/nios2-elf/4.1.2/../../../../nios2-elf/lib/mno-hw-mul/libc.a(lib_a-__atexit.o)
 .bss           0x08039c24        0x0 /package/eda/altera/altera13.0sp1/nios2eds/bin/gnu/H-i686-pc-linux-gnu/bin/../lib/gcc/nios2-elf/4.1.2/mno-hw-mul/libgcc.a(_floatundidf.o)
 .bss           0x08039c24        0x0 /package/eda/altera/altera13.0sp1/nios2eds/bin/gnu/H-i686-pc-linux-gnu/bin/../lib/gcc/nios2-elf/4.1.2/mno-hw-mul/libgcc.a(lib2-divtable.o)
 *(COMMON)
 COMMON         0x08039c24      0x100 /package/eda/altera/altera13.0sp1/nios2eds/bin/gnu/H-i686-pc-linux-gnu/bin/../lib/gcc/nios2-elf/4.1.2/../../../../nios2-elf/lib/mno-hw-mul/libc.a(lib_a-gdtoa-gethex.o)
                0x08039c24                __hexdig
 COMMON         0x08039d24      0x100 ../demo_board_bsp//libhal_bsp.a(alt_irq_handler.o)
                0x08039d24                alt_irq
 COMMON         0x08039e24      0x190 /package/eda/altera/altera13.0sp1/nios2eds/bin/gnu/H-i686-pc-linux-gnu/bin/../lib/gcc/nios2-elf/4.1.2/../../../../nios2-elf/lib/mno-hw-mul/libc.a(lib_a-atexit.o)
                0x08039e24                _atexit0
                0x08039fb4                . = ALIGN (0x4)
                0x08039fb4                __bss_end = ABSOLUTE (.)

.new_sdram_controller_0
                0x08039fb4        0x0
                0x08039fb4                PROVIDE (_alt_partition_new_sdram_controller_0_start, ABSOLUTE (.))
 *(.new_sdram_controller_0. new_sdram_controller_0.*)
                0x08039fb4                . = ALIGN (0x4)
                0x08039fb4                PROVIDE (_alt_partition_new_sdram_controller_0_end, ABSOLUTE (.))
                0x08039fb4                _end = ABSOLUTE (.)
                0x08039fb4                end = ABSOLUTE (.)
                0x08039fb4                __alt_stack_base = ABSOLUTE (.)
                0x08039fb4                PROVIDE (_alt_partition_new_sdram_controller_0_load_addr, LOADADDR (.new_sdram_controller_0))

.generic_tristate_controller_0
                0x10000000        0x0 load address 0x08039fb4
                0x10000000                PROVIDE (_alt_partition_generic_tristate_controller_0_start, ABSOLUTE (.))
 *(.generic_tristate_controller_0. generic_tristate_controller_0.*)
                0x10000000                . = ALIGN (0x4)
                0x10000000                PROVIDE (_alt_partition_generic_tristate_controller_0_end, ABSOLUTE (.))
                0x08039fb4                PROVIDE (_alt_partition_generic_tristate_controller_0_load_addr, LOADADDR (.generic_tristate_controller_0))

.stab
 *(.stab)

.stabstr
 *(.stabstr)

.stab.excl
 *(.stab.excl)

.stab.exclstr
 *(.stab.exclstr)

.stab.index
 *(.stab.index)

.stab.indexstr
 *(.stab.indexstr)

.comment        0x00000000       0x26
 *(.comment)
 .comment       0x00000000       0x26 obj/default/cdjpeg.o
                                 0x27 (size before relaxing)
 .comment       0x00000000       0x27 obj/default/djpeg.o
 .comment       0x00000000       0x27 obj/default/jcapimin.o
 .comment       0x00000000       0x27 obj/default/jcapistd.o
 .comment       0x00000000       0x27 obj/default/jccoefct.o
 .comment       0x00000000       0x27 obj/default/jccolor.o
 .comment       0x00000000       0x27 obj/default/jcdctmgr.o
 .comment       0x00000000       0x27 obj/default/jchuff.o
 .comment       0x00000000       0x27 obj/default/jcinit.o
 .comment       0x00000000       0x27 obj/default/jcmainct.o
 .comment       0x00000000       0x27 obj/default/jcmarker.o
 .comment       0x00000000       0x27 obj/default/jcmaster.o
 .comment       0x00000000       0x27 obj/default/jcomapi.o
 .comment       0x00000000       0x27 obj/default/jcparam.o
 .comment       0x00000000       0x27 obj/default/jcphuff.o
 .comment       0x00000000       0x27 obj/default/jcprepct.o
 .comment       0x00000000       0x27 obj/default/jcsample.o
 .comment       0x00000000       0x27 obj/default/jctrans.o
 .comment       0x00000000       0x27 obj/default/jdapimin.o
 .comment       0x00000000       0x27 obj/default/jdapistd.o
 .comment       0x00000000       0x27 obj/default/jdatadst.o
 .comment       0x00000000       0x27 obj/default/jdatasrc.o
 .comment       0x00000000       0x27 obj/default/jdcoefct.o
 .comment       0x00000000       0x27 obj/default/jdcolor.o
 .comment       0x00000000       0x27 obj/default/jddctmgr.o
 .comment       0x00000000       0x27 obj/default/jdhuff.o
 .comment       0x00000000       0x27 obj/default/jdinput.o
 .comment       0x00000000       0x27 obj/default/jdmainct.o
 .comment       0x00000000       0x27 obj/default/jdmarker.o
 .comment       0x00000000       0x27 obj/default/jdmaster.o
 .comment       0x00000000       0x27 obj/default/jdmerge.o
 .comment       0x00000000       0x27 obj/default/jdphuff.o
 .comment       0x00000000       0x27 obj/default/jdpostct.o
 .comment       0x00000000       0x27 obj/default/jdsample.o
 .comment       0x00000000       0x27 obj/default/jdtrans.o
 .comment       0x00000000       0x27 obj/default/jerror.o
 .comment       0x00000000       0x27 obj/default/jfdctflt.o
 .comment       0x00000000       0x27 obj/default/jfdctfst.o
 .comment       0x00000000       0x27 obj/default/jfdctint.o
 .comment       0x00000000       0x27 obj/default/jidctflt.o
 .comment       0x00000000       0x27 obj/default/jidctfst.o
 .comment       0x00000000       0x27 obj/default/jidctint.o
 .comment       0x00000000       0x27 obj/default/jidctred.o
 .comment       0x00000000       0x27 obj/default/jmemmgr.o
 .comment       0x00000000       0x27 obj/default/jmemnobs.o
 .comment       0x00000000       0x27 obj/default/jquant1.o
 .comment       0x00000000       0x27 obj/default/jquant2.o
 .comment       0x00000000       0x27 obj/default/jutils.o
 .comment       0x00000000       0x27 obj/default/rdcolmap.o
 .comment       0x00000000       0x27 obj/default/wrbmp.o
 .comment       0x00000000       0x27 obj/default/wrgif.o
 .comment       0x00000000       0x27 obj/default/wrppm.o
 .comment       0x00000000       0x27 obj/default/wrrle.o
 .comment       0x00000000       0x27 obj/default/wrtarga.o
 .comment       0x00000000       0x27 /package/eda/altera/altera13.0sp1/nios2eds/bin/gnu/H-i686-pc-linux-gnu/bin/../lib/gcc/nios2-elf/4.1.2/mno-hw-mul/libgcc.a(_addsub_sf.o)
 .comment       0x00000000       0x27 /package/eda/altera/altera13.0sp1/nios2eds/bin/gnu/H-i686-pc-linux-gnu/bin/../lib/gcc/nios2-elf/4.1.2/mno-hw-mul/libgcc.a(_mul_sf.o)
 .comment       0x00000000       0x27 /package/eda/altera/altera13.0sp1/nios2eds/bin/gnu/H-i686-pc-linux-gnu/bin/../lib/gcc/nios2-elf/4.1.2/mno-hw-mul/libgcc.a(_si_to_sf.o)
 .comment       0x00000000       0x27 /package/eda/altera/altera13.0sp1/nios2eds/bin/gnu/H-i686-pc-linux-gnu/bin/../lib/gcc/nios2-elf/4.1.2/mno-hw-mul/libgcc.a(_sf_to_si.o)
 .comment       0x00000000       0x27 /package/eda/altera/altera13.0sp1/nios2eds/bin/gnu/H-i686-pc-linux-gnu/bin/../lib/gcc/nios2-elf/4.1.2/mno-hw-mul/libgcc.a(_thenan_sf.o)
 .comment       0x00000000       0x27 /package/eda/altera/altera13.0sp1/nios2eds/bin/gnu/H-i686-pc-linux-gnu/bin/../lib/gcc/nios2-elf/4.1.2/mno-hw-mul/libgcc.a(_mul_df.o)
 .comment       0x00000000       0x27 /package/eda/altera/altera13.0sp1/nios2eds/bin/gnu/H-i686-pc-linux-gnu/bin/../lib/gcc/nios2-elf/4.1.2/mno-hw-mul/libgcc.a(_div_df.o)
 .comment       0x00000000       0x27 /package/eda/altera/altera13.0sp1/nios2eds/bin/gnu/H-i686-pc-linux-gnu/bin/../lib/gcc/nios2-elf/4.1.2/mno-hw-mul/libgcc.a(_df_to_sf.o)
 .comment       0x00000000       0x27 /package/eda/altera/altera13.0sp1/nios2eds/bin/gnu/H-i686-pc-linux-gnu/bin/../lib/gcc/nios2-elf/4.1.2/mno-hw-mul/libgcc.a(_thenan_df.o)
 .comment       0x00000000       0x27 /package/eda/altera/altera13.0sp1/nios2eds/bin/gnu/H-i686-pc-linux-gnu/bin/../lib/gcc/nios2-elf/4.1.2/mno-hw-mul/libgcc.a(_usi_to_df.o)
 .comment       0x00000000       0x27 /package/eda/altera/altera13.0sp1/nios2eds/bin/gnu/H-i686-pc-linux-gnu/bin/../lib/gcc/nios2-elf/4.1.2/mno-hw-mul/libgcc.a(lib2-divmod.o)
 .comment       0x00000000       0x27 /package/eda/altera/altera13.0sp1/nios2eds/bin/gnu/H-i686-pc-linux-gnu/bin/../lib/gcc/nios2-elf/4.1.2/mno-hw-mul/libgcc.a(lib2-mul.o)
 .comment       0x00000000       0x27 /package/eda/altera/altera13.0sp1/nios2eds/bin/gnu/H-i686-pc-linux-gnu/bin/../lib/gcc/nios2-elf/4.1.2/mno-hw-mul/libgcc.a(_muldi3.o)
 .comment       0x00000000       0x27 /package/eda/altera/altera13.0sp1/nios2eds/bin/gnu/H-i686-pc-linux-gnu/bin/../lib/gcc/nios2-elf/4.1.2/mno-hw-mul/libgcc.a(_clzsi2.o)
 .comment       0x00000000       0x27 /package/eda/altera/altera13.0sp1/nios2eds/bin/gnu/H-i686-pc-linux-gnu/bin/../lib/gcc/nios2-elf/4.1.2/mno-hw-mul/libgcc.a(_pack_sf.o)
 .comment       0x00000000       0x27 /package/eda/altera/altera13.0sp1/nios2eds/bin/gnu/H-i686-pc-linux-gnu/bin/../lib/gcc/nios2-elf/4.1.2/mno-hw-mul/libgcc.a(_unpack_sf.o)
 .comment       0x00000000       0x27 /package/eda/altera/altera13.0sp1/nios2eds/bin/gnu/H-i686-pc-linux-gnu/bin/../lib/gcc/nios2-elf/4.1.2/mno-hw-mul/libgcc.a(_make_sf.o)
 .comment       0x00000000       0x27 /package/eda/altera/altera13.0sp1/nios2eds/bin/gnu/H-i686-pc-linux-gnu/bin/../lib/gcc/nios2-elf/4.1.2/mno-hw-mul/libgcc.a(_pack_df.o)
 .comment       0x00000000       0x27 /package/eda/altera/altera13.0sp1/nios2eds/bin/gnu/H-i686-pc-linux-gnu/bin/../lib/gcc/nios2-elf/4.1.2/mno-hw-mul/libgcc.a(_unpack_df.o)
 .comment       0x00000000       0x27 /package/eda/altera/altera13.0sp1/nios2eds/bin/gnu/H-i686-pc-linux-gnu/bin/../lib/gcc/nios2-elf/4.1.2/mno-hw-mul/libgcc.a(_clz.o)
 .comment       0x00000000       0x27 /package/eda/altera/altera13.0sp1/nios2eds/bin/gnu/H-i686-pc-linux-gnu/bin/../lib/gcc/nios2-elf/4.1.2/../../../../nios2-elf/lib/mno-hw-mul/libc.a(lib_a-ctype_.o)
 .comment       0x00000000       0x27 /package/eda/altera/altera13.0sp1/nios2eds/bin/gnu/H-i686-pc-linux-gnu/bin/../lib/gcc/nios2-elf/4.1.2/../../../../nios2-elf/lib/mno-hw-mul/libc.a(lib_a-exit.o)
 .comment       0x00000000       0x27 /package/eda/altera/altera13.0sp1/nios2eds/bin/gnu/H-i686-pc-linux-gnu/bin/../lib/gcc/nios2-elf/4.1.2/../../../../nios2-elf/lib/mno-hw-mul/libc.a(lib_a-fclose.o)
 .comment       0x00000000       0x27 /package/eda/altera/altera13.0sp1/nios2eds/bin/gnu/H-i686-pc-linux-gnu/bin/../lib/gcc/nios2-elf/4.1.2/../../../../nios2-elf/lib/mno-hw-mul/libc.a(lib_a-fflush.o)
 .comment       0x00000000       0x27 /package/eda/altera/altera13.0sp1/nios2eds/bin/gnu/H-i686-pc-linux-gnu/bin/../lib/gcc/nios2-elf/4.1.2/../../../../nios2-elf/lib/mno-hw-mul/libc.a(lib_a-findfp.o)
 .comment       0x00000000       0x27 /package/eda/altera/altera13.0sp1/nios2eds/bin/gnu/H-i686-pc-linux-gnu/bin/../lib/gcc/nios2-elf/4.1.2/../../../../nios2-elf/lib/mno-hw-mul/libc.a(lib_a-fopen.o)
 .comment       0x00000000       0x27 /package/eda/altera/altera13.0sp1/nios2eds/bin/gnu/H-i686-pc-linux-gnu/bin/../lib/gcc/nios2-elf/4.1.2/../../../../nios2-elf/lib/mno-hw-mul/libc.a(lib_a-fprintf.o)
 .comment       0x00000000       0x27 /package/eda/altera/altera13.0sp1/nios2eds/bin/gnu/H-i686-pc-linux-gnu/bin/../lib/gcc/nios2-elf/4.1.2/../../../../nios2-elf/lib/mno-hw-mul/libc.a(lib_a-fputc.o)
 .comment       0x00000000       0x27 /package/eda/altera/altera13.0sp1/nios2eds/bin/gnu/H-i686-pc-linux-gnu/bin/../lib/gcc/nios2-elf/4.1.2/../../../../nios2-elf/lib/mno-hw-mul/libc.a(lib_a-fread.o)
 .comment       0x00000000       0x27 /package/eda/altera/altera13.0sp1/nios2eds/bin/gnu/H-i686-pc-linux-gnu/bin/../lib/gcc/nios2-elf/4.1.2/../../../../nios2-elf/lib/mno-hw-mul/libc.a(lib_a-freer.o)
 .comment       0x00000000       0x27 /package/eda/altera/altera13.0sp1/nios2eds/bin/gnu/H-i686-pc-linux-gnu/bin/../lib/gcc/nios2-elf/4.1.2/../../../../nios2-elf/lib/mno-hw-mul/libc.a(lib_a-fseek.o)
 .comment       0x00000000       0x27 /package/eda/altera/altera13.0sp1/nios2eds/bin/gnu/H-i686-pc-linux-gnu/bin/../lib/gcc/nios2-elf/4.1.2/../../../../nios2-elf/lib/mno-hw-mul/libc.a(lib_a-fstatr.o)
 .comment       0x00000000       0x27 /package/eda/altera/altera13.0sp1/nios2eds/bin/gnu/H-i686-pc-linux-gnu/bin/../lib/gcc/nios2-elf/4.1.2/../../../../nios2-elf/lib/mno-hw-mul/libc.a(lib_a-fwalk.o)
 .comment       0x00000000       0x27 /package/eda/altera/altera13.0sp1/nios2eds/bin/gnu/H-i686-pc-linux-gnu/bin/../lib/gcc/nios2-elf/4.1.2/../../../../nios2-elf/lib/mno-hw-mul/libc.a(lib_a-fwrite.o)
 .comment       0x00000000       0x27 /package/eda/altera/altera13.0sp1/nios2eds/bin/gnu/H-i686-pc-linux-gnu/bin/../lib/gcc/nios2-elf/4.1.2/../../../../nios2-elf/lib/mno-hw-mul/libc.a(lib_a-getc.o)
 .comment       0x00000000       0x27 /package/eda/altera/altera13.0sp1/nios2eds/bin/gnu/H-i686-pc-linux-gnu/bin/../lib/gcc/nios2-elf/4.1.2/../../../../nios2-elf/lib/mno-hw-mul/libc.a(lib_a-getenv.o)
 .comment       0x00000000       0x27 /package/eda/altera/altera13.0sp1/nios2eds/bin/gnu/H-i686-pc-linux-gnu/bin/../lib/gcc/nios2-elf/4.1.2/../../../../nios2-elf/lib/mno-hw-mul/libc.a(lib_a-getenv_r.o)
 .comment       0x00000000       0x27 /package/eda/altera/altera13.0sp1/nios2eds/bin/gnu/H-i686-pc-linux-gnu/bin/../lib/gcc/nios2-elf/4.1.2/../../../../nios2-elf/lib/mno-hw-mul/libc.a(lib_a-impure.o)
 .comment       0x00000000       0x27 /package/eda/altera/altera13.0sp1/nios2eds/bin/gnu/H-i686-pc-linux-gnu/bin/../lib/gcc/nios2-elf/4.1.2/../../../../nios2-elf/lib/mno-hw-mul/libc.a(lib_a-int_errno.o)
 .comment       0x00000000       0x27 /package/eda/altera/altera13.0sp1/nios2eds/bin/gnu/H-i686-pc-linux-gnu/bin/../lib/gcc/nios2-elf/4.1.2/../../../../nios2-elf/lib/mno-hw-mul/libc.a(lib_a-makebuf.o)
 .comment       0x00000000       0x27 /package/eda/altera/altera13.0sp1/nios2eds/bin/gnu/H-i686-pc-linux-gnu/bin/../lib/gcc/nios2-elf/4.1.2/../../../../nios2-elf/lib/mno-hw-mul/libc.a(lib_a-malloc.o)
 .comment       0x00000000       0x27 /package/eda/altera/altera13.0sp1/nios2eds/bin/gnu/H-i686-pc-linux-gnu/bin/../lib/gcc/nios2-elf/4.1.2/../../../../nios2-elf/lib/mno-hw-mul/libc.a(lib_a-mallocr.o)
 .comment       0x00000000       0x27 /package/eda/altera/altera13.0sp1/nios2eds/bin/gnu/H-i686-pc-linux-gnu/bin/../lib/gcc/nios2-elf/4.1.2/../../../../nios2-elf/lib/mno-hw-mul/libc.a(lib_a-memcpy.o)
 .comment       0x00000000       0x27 /package/eda/altera/altera13.0sp1/nios2eds/bin/gnu/H-i686-pc-linux-gnu/bin/../lib/gcc/nios2-elf/4.1.2/../../../../nios2-elf/lib/mno-hw-mul/libc.a(lib_a-memset.o)
 .comment       0x00000000       0x27 /package/eda/altera/altera13.0sp1/nios2eds/bin/gnu/H-i686-pc-linux-gnu/bin/../lib/gcc/nios2-elf/4.1.2/../../../../nios2-elf/lib/mno-hw-mul/libc.a(lib_a-openr.o)
 .comment       0x00000000       0x27 /package/eda/altera/altera13.0sp1/nios2eds/bin/gnu/H-i686-pc-linux-gnu/bin/../lib/gcc/nios2-elf/4.1.2/../../../../nios2-elf/lib/mno-hw-mul/libc.a(lib_a-printf.o)
 .comment       0x00000000       0x27 /package/eda/altera/altera13.0sp1/nios2eds/bin/gnu/H-i686-pc-linux-gnu/bin/../lib/gcc/nios2-elf/4.1.2/../../../../nios2-elf/lib/mno-hw-mul/libc.a(lib_a-putc.o)
 .comment       0x00000000       0x27 /package/eda/altera/altera13.0sp1/nios2eds/bin/gnu/H-i686-pc-linux-gnu/bin/../lib/gcc/nios2-elf/4.1.2/../../../../nios2-elf/lib/mno-hw-mul/libc.a(lib_a-puts.o)
 .comment       0x00000000       0x27 /package/eda/altera/altera13.0sp1/nios2eds/bin/gnu/H-i686-pc-linux-gnu/bin/../lib/gcc/nios2-elf/4.1.2/../../../../nios2-elf/lib/mno-hw-mul/libc.a(lib_a-refill.o)
 .comment       0x00000000       0x27 /package/eda/altera/altera13.0sp1/nios2eds/bin/gnu/H-i686-pc-linux-gnu/bin/../lib/gcc/nios2-elf/4.1.2/../../../../nios2-elf/lib/mno-hw-mul/libc.a(lib_a-rget.o)
 .comment       0x00000000       0x27 /package/eda/altera/altera13.0sp1/nios2eds/bin/gnu/H-i686-pc-linux-gnu/bin/../lib/gcc/nios2-elf/4.1.2/../../../../nios2-elf/lib/mno-hw-mul/libc.a(lib_a-sbrkr.o)
 .comment       0x00000000       0x27 /package/eda/altera/altera13.0sp1/nios2eds/bin/gnu/H-i686-pc-linux-gnu/bin/../lib/gcc/nios2-elf/4.1.2/../../../../nios2-elf/lib/mno-hw-mul/libc.a(lib_a-sprintf.o)
 .comment       0x00000000       0x27 /package/eda/altera/altera13.0sp1/nios2eds/bin/gnu/H-i686-pc-linux-gnu/bin/../lib/gcc/nios2-elf/4.1.2/../../../../nios2-elf/lib/mno-hw-mul/libc.a(lib_a-sscanf.o)
 .comment       0x00000000       0x27 /package/eda/altera/altera13.0sp1/nios2eds/bin/gnu/H-i686-pc-linux-gnu/bin/../lib/gcc/nios2-elf/4.1.2/../../../../nios2-elf/lib/mno-hw-mul/libc.a(lib_a-stdio.o)
 .comment       0x00000000       0x27 /package/eda/altera/altera13.0sp1/nios2eds/bin/gnu/H-i686-pc-linux-gnu/bin/../lib/gcc/nios2-elf/4.1.2/../../../../nios2-elf/lib/mno-hw-mul/libc.a(lib_a-strdup.o)
 .comment       0x00000000       0x27 /package/eda/altera/altera13.0sp1/nios2eds/bin/gnu/H-i686-pc-linux-gnu/bin/../lib/gcc/nios2-elf/4.1.2/../../../../nios2-elf/lib/mno-hw-mul/libc.a(lib_a-strdup_r.o)
 .comment       0x00000000       0x27 /package/eda/altera/altera13.0sp1/nios2eds/bin/gnu/H-i686-pc-linux-gnu/bin/../lib/gcc/nios2-elf/4.1.2/../../../../nios2-elf/lib/mno-hw-mul/libc.a(lib_a-strlen.o)
 .comment       0x00000000       0x27 /package/eda/altera/altera13.0sp1/nios2eds/bin/gnu/H-i686-pc-linux-gnu/bin/../lib/gcc/nios2-elf/4.1.2/../../../../nios2-elf/lib/mno-hw-mul/libc.a(lib_a-strncmp.o)
 .comment       0x00000000       0x27 /package/eda/altera/altera13.0sp1/nios2eds/bin/gnu/H-i686-pc-linux-gnu/bin/../lib/gcc/nios2-elf/4.1.2/../../../../nios2-elf/lib/mno-hw-mul/libc.a(lib_a-vfprintf.o)
 .comment       0x00000000       0x27 /package/eda/altera/altera13.0sp1/nios2eds/bin/gnu/H-i686-pc-linux-gnu/bin/../lib/gcc/nios2-elf/4.1.2/../../../../nios2-elf/lib/mno-hw-mul/libc.a(lib_a-vfscanf.o)
 .comment       0x00000000       0x27 /package/eda/altera/altera13.0sp1/nios2eds/bin/gnu/H-i686-pc-linux-gnu/bin/../lib/gcc/nios2-elf/4.1.2/../../../../nios2-elf/lib/mno-hw-mul/libc.a(lib_a-wbuf.o)
 .comment       0x00000000       0x27 /package/eda/altera/altera13.0sp1/nios2eds/bin/gnu/H-i686-pc-linux-gnu/bin/../lib/gcc/nios2-elf/4.1.2/../../../../nios2-elf/lib/mno-hw-mul/libc.a(lib_a-writer.o)
 .comment       0x00000000       0x27 /package/eda/altera/altera13.0sp1/nios2eds/bin/gnu/H-i686-pc-linux-gnu/bin/../lib/gcc/nios2-elf/4.1.2/../../../../nios2-elf/lib/mno-hw-mul/libc.a(lib_a-wsetup.o)
 .comment       0x00000000       0x27 /package/eda/altera/altera13.0sp1/nios2eds/bin/gnu/H-i686-pc-linux-gnu/bin/../lib/gcc/nios2-elf/4.1.2/../../../../nios2-elf/lib/mno-hw-mul/libc.a(lib_a-__call_atexit.o)
 .comment       0x00000000       0x27 /package/eda/altera/altera13.0sp1/nios2eds/bin/gnu/H-i686-pc-linux-gnu/bin/../lib/gcc/nios2-elf/4.1.2/../../../../nios2-elf/lib/mno-hw-mul/libc.a(lib_a-closer.o)
 .comment       0x00000000       0x27 /package/eda/altera/altera13.0sp1/nios2eds/bin/gnu/H-i686-pc-linux-gnu/bin/../lib/gcc/nios2-elf/4.1.2/../../../../nios2-elf/lib/mno-hw-mul/libc.a(lib_a-dtoa.o)
 .comment       0x00000000       0x27 /package/eda/altera/altera13.0sp1/nios2eds/bin/gnu/H-i686-pc-linux-gnu/bin/../lib/gcc/nios2-elf/4.1.2/../../../../nios2-elf/lib/mno-hw-mul/libc.a(lib_a-environ.o)
 .comment       0x00000000       0x27 /package/eda/altera/altera13.0sp1/nios2eds/bin/gnu/H-i686-pc-linux-gnu/bin/../lib/gcc/nios2-elf/4.1.2/../../../../nios2-elf/lib/mno-hw-mul/libc.a(lib_a-flags.o)
 .comment       0x00000000       0x27 /package/eda/altera/altera13.0sp1/nios2eds/bin/gnu/H-i686-pc-linux-gnu/bin/../lib/gcc/nios2-elf/4.1.2/../../../../nios2-elf/lib/mno-hw-mul/libc.a(lib_a-fvwrite.o)
 .comment       0x00000000       0x27 /package/eda/altera/altera13.0sp1/nios2eds/bin/gnu/H-i686-pc-linux-gnu/bin/../lib/gcc/nios2-elf/4.1.2/../../../../nios2-elf/lib/mno-hw-mul/libc.a(lib_a-isattyr.o)
 .comment       0x00000000       0x27 /package/eda/altera/altera13.0sp1/nios2eds/bin/gnu/H-i686-pc-linux-gnu/bin/../lib/gcc/nios2-elf/4.1.2/../../../../nios2-elf/lib/mno-hw-mul/libc.a(lib_a-iswspace.o)
 .comment       0x00000000       0x27 /package/eda/altera/altera13.0sp1/nios2eds/bin/gnu/H-i686-pc-linux-gnu/bin/../lib/gcc/nios2-elf/4.1.2/../../../../nios2-elf/lib/mno-hw-mul/libc.a(lib_a-locale.o)
 .comment       0x00000000       0x27 /package/eda/altera/altera13.0sp1/nios2eds/bin/gnu/H-i686-pc-linux-gnu/bin/../lib/gcc/nios2-elf/4.1.2/../../../../nios2-elf/lib/mno-hw-mul/libc.a(lib_a-lseekr.o)
 .comment       0x00000000       0x27 /package/eda/altera/altera13.0sp1/nios2eds/bin/gnu/H-i686-pc-linux-gnu/bin/../lib/gcc/nios2-elf/4.1.2/../../../../nios2-elf/lib/mno-hw-mul/libc.a(lib_a-mbrtowc.o)
 .comment       0x00000000       0x27 /package/eda/altera/altera13.0sp1/nios2eds/bin/gnu/H-i686-pc-linux-gnu/bin/../lib/gcc/nios2-elf/4.1.2/../../../../nios2-elf/lib/mno-hw-mul/libc.a(lib_a-mbtowc_r.o)
 .comment       0x00000000       0x27 /package/eda/altera/altera13.0sp1/nios2eds/bin/gnu/H-i686-pc-linux-gnu/bin/../lib/gcc/nios2-elf/4.1.2/../../../../nios2-elf/lib/mno-hw-mul/libc.a(lib_a-memchr.o)
 .comment       0x00000000       0x27 /package/eda/altera/altera13.0sp1/nios2eds/bin/gnu/H-i686-pc-linux-gnu/bin/../lib/gcc/nios2-elf/4.1.2/../../../../nios2-elf/lib/mno-hw-mul/libc.a(lib_a-memmove.o)
 .comment       0x00000000       0x27 /package/eda/altera/altera13.0sp1/nios2eds/bin/gnu/H-i686-pc-linux-gnu/bin/../lib/gcc/nios2-elf/4.1.2/../../../../nios2-elf/lib/mno-hw-mul/libc.a(lib_a-mprec.o)
 .comment       0x00000000       0x27 /package/eda/altera/altera13.0sp1/nios2eds/bin/gnu/H-i686-pc-linux-gnu/bin/../lib/gcc/nios2-elf/4.1.2/../../../../nios2-elf/lib/mno-hw-mul/libc.a(lib_a-readr.o)
 .comment       0x00000000       0x27 /package/eda/altera/altera13.0sp1/nios2eds/bin/gnu/H-i686-pc-linux-gnu/bin/../lib/gcc/nios2-elf/4.1.2/../../../../nios2-elf/lib/mno-hw-mul/libc.a(lib_a-reallocr.o)
 .comment       0x00000000       0x27 /package/eda/altera/altera13.0sp1/nios2eds/bin/gnu/H-i686-pc-linux-gnu/bin/../lib/gcc/nios2-elf/4.1.2/../../../../nios2-elf/lib/mno-hw-mul/libc.a(lib_a-s_isinfd.o)
 .comment       0x00000000       0x27 /package/eda/altera/altera13.0sp1/nios2eds/bin/gnu/H-i686-pc-linux-gnu/bin/../lib/gcc/nios2-elf/4.1.2/../../../../nios2-elf/lib/mno-hw-mul/libc.a(lib_a-s_isnand.o)
 .comment       0x00000000       0x27 /package/eda/altera/altera13.0sp1/nios2eds/bin/gnu/H-i686-pc-linux-gnu/bin/../lib/gcc/nios2-elf/4.1.2/../../../../nios2-elf/lib/mno-hw-mul/libc.a(lib_a-sccl.o)
 .comment       0x00000000       0x27 /package/eda/altera/altera13.0sp1/nios2eds/bin/gnu/H-i686-pc-linux-gnu/bin/../lib/gcc/nios2-elf/4.1.2/../../../../nios2-elf/lib/mno-hw-mul/libc.a(lib_a-sf_nan.o)
 .comment       0x00000000       0x27 /package/eda/altera/altera13.0sp1/nios2eds/bin/gnu/H-i686-pc-linux-gnu/bin/../lib/gcc/nios2-elf/4.1.2/../../../../nios2-elf/lib/mno-hw-mul/libc.a(lib_a-strcmp.o)
 .comment       0x00000000       0x27 /package/eda/altera/altera13.0sp1/nios2eds/bin/gnu/H-i686-pc-linux-gnu/bin/../lib/gcc/nios2-elf/4.1.2/../../../../nios2-elf/lib/mno-hw-mul/libc.a(lib_a-strtod.o)
 .comment       0x00000000       0x27 /package/eda/altera/altera13.0sp1/nios2eds/bin/gnu/H-i686-pc-linux-gnu/bin/../lib/gcc/nios2-elf/4.1.2/../../../../nios2-elf/lib/mno-hw-mul/libc.a(lib_a-strtol.o)
 .comment       0x00000000       0x27 /package/eda/altera/altera13.0sp1/nios2eds/bin/gnu/H-i686-pc-linux-gnu/bin/../lib/gcc/nios2-elf/4.1.2/../../../../nios2-elf/lib/mno-hw-mul/libc.a(lib_a-strtoll_r.o)
 .comment       0x00000000       0x27 /package/eda/altera/altera13.0sp1/nios2eds/bin/gnu/H-i686-pc-linux-gnu/bin/../lib/gcc/nios2-elf/4.1.2/../../../../nios2-elf/lib/mno-hw-mul/libc.a(lib_a-strtoul.o)
 .comment       0x00000000       0x27 /package/eda/altera/altera13.0sp1/nios2eds/bin/gnu/H-i686-pc-linux-gnu/bin/../lib/gcc/nios2-elf/4.1.2/../../../../nios2-elf/lib/mno-hw-mul/libc.a(lib_a-strtoull_r.o)
 .comment       0x00000000       0x27 /package/eda/altera/altera13.0sp1/nios2eds/bin/gnu/H-i686-pc-linux-gnu/bin/../lib/gcc/nios2-elf/4.1.2/../../../../nios2-elf/lib/mno-hw-mul/libc.a(lib_a-ungetc.o)
 .comment       0x00000000       0x27 /package/eda/altera/altera13.0sp1/nios2eds/bin/gnu/H-i686-pc-linux-gnu/bin/../lib/gcc/nios2-elf/4.1.2/../../../../nios2-elf/lib/mno-hw-mul/libc.a(lib_a-callocr.o)
 .comment       0x00000000       0x27 /package/eda/altera/altera13.0sp1/nios2eds/bin/gnu/H-i686-pc-linux-gnu/bin/../lib/gcc/nios2-elf/4.1.2/../../../../nios2-elf/lib/mno-hw-mul/libc.a(lib_a-gdtoa-gethex.o)
 .comment       0x00000000       0x27 /package/eda/altera/altera13.0sp1/nios2eds/bin/gnu/H-i686-pc-linux-gnu/bin/../lib/gcc/nios2-elf/4.1.2/../../../../nios2-elf/lib/mno-hw-mul/libc.a(lib_a-gdtoa-hexnan.o)
 .comment       0x00000000       0x27 /package/eda/altera/altera13.0sp1/nios2eds/bin/gnu/H-i686-pc-linux-gnu/bin/../lib/gcc/nios2-elf/4.1.2/mno-hw-mul/libgcc.a(_fixunsdfsi.o)
 .comment       0x00000000       0x27 /package/eda/altera/altera13.0sp1/nios2eds/bin/gnu/H-i686-pc-linux-gnu/bin/../lib/gcc/nios2-elf/4.1.2/mno-hw-mul/libgcc.a(_udivdi3.o)
 .comment       0x00000000       0x27 /package/eda/altera/altera13.0sp1/nios2eds/bin/gnu/H-i686-pc-linux-gnu/bin/../lib/gcc/nios2-elf/4.1.2/mno-hw-mul/libgcc.a(_umoddi3.o)
 .comment       0x00000000       0x27 /package/eda/altera/altera13.0sp1/nios2eds/bin/gnu/H-i686-pc-linux-gnu/bin/../lib/gcc/nios2-elf/4.1.2/mno-hw-mul/libgcc.a(_ne_sf.o)
 .comment       0x00000000       0x27 /package/eda/altera/altera13.0sp1/nios2eds/bin/gnu/H-i686-pc-linux-gnu/bin/../lib/gcc/nios2-elf/4.1.2/mno-hw-mul/libgcc.a(_gt_sf.o)
 .comment       0x00000000       0x27 /package/eda/altera/altera13.0sp1/nios2eds/bin/gnu/H-i686-pc-linux-gnu/bin/../lib/gcc/nios2-elf/4.1.2/mno-hw-mul/libgcc.a(_lt_sf.o)
 .comment       0x00000000       0x27 /package/eda/altera/altera13.0sp1/nios2eds/bin/gnu/H-i686-pc-linux-gnu/bin/../lib/gcc/nios2-elf/4.1.2/mno-hw-mul/libgcc.a(_addsub_df.o)
 .comment       0x00000000       0x27 /package/eda/altera/altera13.0sp1/nios2eds/bin/gnu/H-i686-pc-linux-gnu/bin/../lib/gcc/nios2-elf/4.1.2/mno-hw-mul/libgcc.a(_eq_df.o)
 .comment       0x00000000       0x27 /package/eda/altera/altera13.0sp1/nios2eds/bin/gnu/H-i686-pc-linux-gnu/bin/../lib/gcc/nios2-elf/4.1.2/mno-hw-mul/libgcc.a(_ne_df.o)
 .comment       0x00000000       0x27 /package/eda/altera/altera13.0sp1/nios2eds/bin/gnu/H-i686-pc-linux-gnu/bin/../lib/gcc/nios2-elf/4.1.2/mno-hw-mul/libgcc.a(_gt_df.o)
 .comment       0x00000000       0x27 /package/eda/altera/altera13.0sp1/nios2eds/bin/gnu/H-i686-pc-linux-gnu/bin/../lib/gcc/nios2-elf/4.1.2/mno-hw-mul/libgcc.a(_ge_df.o)
 .comment       0x00000000       0x27 /package/eda/altera/altera13.0sp1/nios2eds/bin/gnu/H-i686-pc-linux-gnu/bin/../lib/gcc/nios2-elf/4.1.2/mno-hw-mul/libgcc.a(_lt_df.o)
 .comment       0x00000000       0x27 /package/eda/altera/altera13.0sp1/nios2eds/bin/gnu/H-i686-pc-linux-gnu/bin/../lib/gcc/nios2-elf/4.1.2/mno-hw-mul/libgcc.a(_le_df.o)
 .comment       0x00000000       0x27 /package/eda/altera/altera13.0sp1/nios2eds/bin/gnu/H-i686-pc-linux-gnu/bin/../lib/gcc/nios2-elf/4.1.2/mno-hw-mul/libgcc.a(_si_to_df.o)
 .comment       0x00000000       0x27 /package/eda/altera/altera13.0sp1/nios2eds/bin/gnu/H-i686-pc-linux-gnu/bin/../lib/gcc/nios2-elf/4.1.2/mno-hw-mul/libgcc.a(_df_to_si.o)
 .comment       0x00000000       0x27 /package/eda/altera/altera13.0sp1/nios2eds/bin/gnu/H-i686-pc-linux-gnu/bin/../lib/gcc/nios2-elf/4.1.2/mno-hw-mul/libgcc.a(_fpcmp_parts_sf.o)
 .comment       0x00000000       0x27 /package/eda/altera/altera13.0sp1/nios2eds/bin/gnu/H-i686-pc-linux-gnu/bin/../lib/gcc/nios2-elf/4.1.2/mno-hw-mul/libgcc.a(_fpcmp_parts_df.o)
 .comment       0x00000000       0x27 ../demo_board_bsp//libhal_bsp.a(alt_close.o)
 .comment       0x00000000       0x27 ../demo_board_bsp//libhal_bsp.a(alt_dev.o)
 .comment       0x00000000       0x27 ../demo_board_bsp//libhal_bsp.a(alt_env_lock.o)
 .comment       0x00000000       0x27 ../demo_board_bsp//libhal_bsp.a(alt_errno.o)
 .comment       0x00000000       0x27 ../demo_board_bsp//libhal_bsp.a(alt_exit.o)
 .comment       0x00000000       0x27 ../demo_board_bsp//libhal_bsp.a(alt_fstat.o)
 .comment       0x00000000       0x27 ../demo_board_bsp//libhal_bsp.a(alt_isatty.o)
 .comment       0x00000000       0x27 ../demo_board_bsp//libhal_bsp.a(alt_load.o)
 .comment       0x00000000       0x27 ../demo_board_bsp//libhal_bsp.a(alt_lseek.o)
 .comment       0x00000000       0x27 ../demo_board_bsp//libhal_bsp.a(alt_main.o)
 .comment       0x00000000       0x27 ../demo_board_bsp//libhal_bsp.a(alt_malloc_lock.o)
 .comment       0x00000000       0x27 ../demo_board_bsp//libhal_bsp.a(alt_open.o)
 .comment       0x00000000       0x27 ../demo_board_bsp//libhal_bsp.a(alt_read.o)
 .comment       0x00000000       0x27 ../demo_board_bsp//libhal_bsp.a(alt_release_fd.o)
 .comment       0x00000000       0x27 ../demo_board_bsp//libhal_bsp.a(alt_sbrk.o)
 .comment       0x00000000       0x27 ../demo_board_bsp//libhal_bsp.a(alt_write.o)
 .comment       0x00000000       0x27 ../demo_board_bsp//libhal_bsp.a(alt_sys_init.o)
 .comment       0x00000000       0x27 ../demo_board_bsp//libhal_bsp.a(altera_avalon_cfi_flash.o)
 .comment       0x00000000       0x27 ../demo_board_bsp//libhal_bsp.a(altera_avalon_cfi_flash_table.o)
 .comment       0x00000000       0x27 ../demo_board_bsp//libhal_bsp.a(altera_avalon_jtag_uart_fd.o)
 .comment       0x00000000       0x27 ../demo_board_bsp//libhal_bsp.a(altera_avalon_jtag_uart_init.o)
 .comment       0x00000000       0x27 ../demo_board_bsp//libhal_bsp.a(altera_avalon_jtag_uart_ioctl.o)
 .comment       0x00000000       0x27 ../demo_board_bsp//libhal_bsp.a(altera_avalon_jtag_uart_read.o)
 .comment       0x00000000       0x27 ../demo_board_bsp//libhal_bsp.a(altera_avalon_jtag_uart_write.o)
 .comment       0x00000000       0x27 ../demo_board_bsp//libhal_bsp.a(altera_avalon_performance_counter.o)
 .comment       0x00000000       0x27 ../demo_board_bsp//libhal_bsp.a(altera_ro_zipfs.o)
 .comment       0x00000000       0x27 ../demo_board_bsp//libhal_bsp.a(altera_up_avalon_video_pixel_buffer_dma.o)
 .comment       0x00000000       0x27 ../demo_board_bsp//libhal_bsp.a(perf_print_formatted_report.o)
 .comment       0x00000000       0x27 ../demo_board_bsp//libhal_bsp.a(alt_alarm_start.o)
 .comment       0x00000000       0x27 ../demo_board_bsp//libhal_bsp.a(alt_dcache_flush.o)
 .comment       0x00000000       0x27 ../demo_board_bsp//libhal_bsp.a(alt_dcache_flush_all.o)
 .comment       0x00000000       0x27 ../demo_board_bsp//libhal_bsp.a(alt_dev_llist_insert.o)
 .comment       0x00000000       0x27 ../demo_board_bsp//libhal_bsp.a(alt_do_ctors.o)
 .comment       0x00000000       0x27 ../demo_board_bsp//libhal_bsp.a(alt_do_dtors.o)
 .comment       0x00000000       0x27 ../demo_board_bsp//libhal_bsp.a(alt_find_dev.o)
 .comment       0x00000000       0x27 ../demo_board_bsp//libhal_bsp.a(alt_find_file.o)
 .comment       0x00000000       0x27 ../demo_board_bsp//libhal_bsp.a(alt_flash_dev.o)
 .comment       0x00000000       0x27 ../demo_board_bsp//libhal_bsp.a(alt_fs_reg.o)
 .comment       0x00000000       0x27 ../demo_board_bsp//libhal_bsp.a(alt_get_fd.o)
 .comment       0x00000000       0x27 ../demo_board_bsp//libhal_bsp.a(alt_icache_flush_all.o)
 .comment       0x00000000       0x27 ../demo_board_bsp//libhal_bsp.a(alt_iic.o)
 .comment       0x00000000       0x27 ../demo_board_bsp//libhal_bsp.a(alt_iic_isr_register.o)
 .comment       0x00000000       0x27 ../demo_board_bsp//libhal_bsp.a(alt_io_redirect.o)
 .comment       0x00000000       0x27 ../demo_board_bsp//libhal_bsp.a(alt_irq_handler.o)
 .comment       0x00000000       0x27 ../demo_board_bsp//libhal_bsp.a(alt_irq_vars.o)
 .comment       0x00000000       0x27 ../demo_board_bsp//libhal_bsp.a(alt_tick.o)
 .comment       0x00000000       0x27 ../demo_board_bsp//libhal_bsp.a(altera_nios2_qsys_irq.o)
 .comment       0x00000000       0x27 ../demo_board_bsp//libhal_bsp.a(altera_avalon_cfi_flash_amd.o)
 .comment       0x00000000       0x27 ../demo_board_bsp//libhal_bsp.a(altera_avalon_cfi_flash_intel.o)
 .comment       0x00000000       0x27 ../demo_board_bsp//libhal_bsp.a(alt_usleep.o)
 .comment       0x00000000       0x27 ../demo_board_bsp//libhal_bsp.a(alt_busy_sleep.o)
 .comment       0x00000000       0x27 /package/eda/altera/altera13.0sp1/nios2eds/bin/gnu/H-i686-pc-linux-gnu/bin/../lib/gcc/nios2-elf/4.1.2/../../../../nios2-elf/lib/mno-hw-mul/libc.a(lib_a-atexit.o)
 .comment       0x00000000       0x27 /package/eda/altera/altera13.0sp1/nios2eds/bin/gnu/H-i686-pc-linux-gnu/bin/../lib/gcc/nios2-elf/4.1.2/../../../../nios2-elf/lib/mno-hw-mul/libc.a(lib_a-memcmp.o)
 .comment       0x00000000       0x27 /package/eda/altera/altera13.0sp1/nios2eds/bin/gnu/H-i686-pc-linux-gnu/bin/../lib/gcc/nios2-elf/4.1.2/../../../../nios2-elf/lib/mno-hw-mul/libc.a(lib_a-__atexit.o)
 .comment       0x00000000       0x27 /package/eda/altera/altera13.0sp1/nios2eds/bin/gnu/H-i686-pc-linux-gnu/bin/../lib/gcc/nios2-elf/4.1.2/mno-hw-mul/libgcc.a(_floatundidf.o)
 .comment       0x00000000       0x27 /package/eda/altera/altera13.0sp1/nios2eds/bin/gnu/H-i686-pc-linux-gnu/bin/../lib/gcc/nios2-elf/4.1.2/mno-hw-mul/libgcc.a(lib2-divtable.o)

.debug
 *(.debug)

.line
 *(.line)

.debug_srcinfo
 *(.debug_srcinfo)

.debug_sfnames
 *(.debug_sfnames)

.debug_aranges  0x00000000     0x1ad8
 *(.debug_aranges)
 .debug_aranges
                0x00000000       0x28 ../demo_board_bsp//obj/HAL/src/crt0.o
 .debug_aranges
                0x00000028       0x20 obj/default/cdjpeg.o
 .debug_aranges
                0x00000048       0x20 obj/default/djpeg.o
 .debug_aranges
                0x00000068       0x20 obj/default/jcapimin.o
 .debug_aranges
                0x00000088       0x20 obj/default/jcapistd.o
 .debug_aranges
                0x000000a8       0x20 obj/default/jccoefct.o
 .debug_aranges
                0x000000c8       0x20 obj/default/jccolor.o
 .debug_aranges
                0x000000e8       0x20 obj/default/jcdctmgr.o
 .debug_aranges
                0x00000108       0x20 obj/default/jchuff.o
 .debug_aranges
                0x00000128       0x20 obj/default/jcinit.o
 .debug_aranges
                0x00000148       0x20 obj/default/jcmainct.o
 .debug_aranges
                0x00000168       0x20 obj/default/jcmarker.o
 .debug_aranges
                0x00000188       0x20 obj/default/jcmaster.o
 .debug_aranges
                0x000001a8       0x20 obj/default/jcomapi.o
 .debug_aranges
                0x000001c8       0x20 obj/default/jcparam.o
 .debug_aranges
                0x000001e8       0x20 obj/default/jcphuff.o
 .debug_aranges
                0x00000208       0x20 obj/default/jcprepct.o
 .debug_aranges
                0x00000228       0x20 obj/default/jcsample.o
 .debug_aranges
                0x00000248       0x20 obj/default/jctrans.o
 .debug_aranges
                0x00000268       0x20 obj/default/jdapimin.o
 .debug_aranges
                0x00000288       0x20 obj/default/jdapistd.o
 .debug_aranges
                0x000002a8       0x20 obj/default/jdatadst.o
 .debug_aranges
                0x000002c8       0x20 obj/default/jdatasrc.o
 .debug_aranges
                0x000002e8       0x20 obj/default/jdcoefct.o
 .debug_aranges
                0x00000308       0x20 obj/default/jdcolor.o
 .debug_aranges
                0x00000328       0x20 obj/default/jddctmgr.o
 .debug_aranges
                0x00000348       0x20 obj/default/jdhuff.o
 .debug_aranges
                0x00000368       0x20 obj/default/jdinput.o
 .debug_aranges
                0x00000388       0x20 obj/default/jdmainct.o
 .debug_aranges
                0x000003a8       0x20 obj/default/jdmarker.o
 .debug_aranges
                0x000003c8       0x20 obj/default/jdmaster.o
 .debug_aranges
                0x000003e8       0x20 obj/default/jdmerge.o
 .debug_aranges
                0x00000408       0x20 obj/default/jdphuff.o
 .debug_aranges
                0x00000428       0x20 obj/default/jdpostct.o
 .debug_aranges
                0x00000448       0x20 obj/default/jdsample.o
 .debug_aranges
                0x00000468       0x20 obj/default/jdtrans.o
 .debug_aranges
                0x00000488       0x20 obj/default/jerror.o
 .debug_aranges
                0x000004a8       0x20 obj/default/jfdctflt.o
 .debug_aranges
                0x000004c8       0x20 obj/default/jfdctfst.o
 .debug_aranges
                0x000004e8       0x20 obj/default/jfdctint.o
 .debug_aranges
                0x00000508       0x20 obj/default/jidctflt.o
 .debug_aranges
                0x00000528       0x20 obj/default/jidctfst.o
 .debug_aranges
                0x00000548       0x20 obj/default/jidctint.o
 .debug_aranges
                0x00000568       0x20 obj/default/jidctred.o
 .debug_aranges
                0x00000588       0x20 obj/default/jmemmgr.o
 .debug_aranges
                0x000005a8       0x20 obj/default/jmemnobs.o
 .debug_aranges
                0x000005c8       0x20 obj/default/jquant1.o
 .debug_aranges
                0x000005e8       0x20 obj/default/jquant2.o
 .debug_aranges
                0x00000608       0x20 obj/default/jutils.o
 .debug_aranges
                0x00000628       0x20 obj/default/rdcolmap.o
 .debug_aranges
                0x00000648       0x20 obj/default/wrbmp.o
 .debug_aranges
                0x00000668       0x20 obj/default/wrgif.o
 .debug_aranges
                0x00000688       0x20 obj/default/wrppm.o
 .debug_aranges
                0x000006a8       0x20 obj/default/wrtarga.o
 .debug_aranges
                0x000006c8       0x20 /package/eda/altera/altera13.0sp1/nios2eds/bin/gnu/H-i686-pc-linux-gnu/bin/../lib/gcc/nios2-elf/4.1.2/mno-hw-mul/libgcc.a(_addsub_sf.o)
 .debug_aranges
                0x000006e8       0x20 /package/eda/altera/altera13.0sp1/nios2eds/bin/gnu/H-i686-pc-linux-gnu/bin/../lib/gcc/nios2-elf/4.1.2/mno-hw-mul/libgcc.a(_mul_sf.o)
 .debug_aranges
                0x00000708       0x20 /package/eda/altera/altera13.0sp1/nios2eds/bin/gnu/H-i686-pc-linux-gnu/bin/../lib/gcc/nios2-elf/4.1.2/mno-hw-mul/libgcc.a(_si_to_sf.o)
 .debug_aranges
                0x00000728       0x20 /package/eda/altera/altera13.0sp1/nios2eds/bin/gnu/H-i686-pc-linux-gnu/bin/../lib/gcc/nios2-elf/4.1.2/mno-hw-mul/libgcc.a(_sf_to_si.o)
 .debug_aranges
                0x00000748       0x20 /package/eda/altera/altera13.0sp1/nios2eds/bin/gnu/H-i686-pc-linux-gnu/bin/../lib/gcc/nios2-elf/4.1.2/mno-hw-mul/libgcc.a(_mul_df.o)
 .debug_aranges
                0x00000768       0x20 /package/eda/altera/altera13.0sp1/nios2eds/bin/gnu/H-i686-pc-linux-gnu/bin/../lib/gcc/nios2-elf/4.1.2/mno-hw-mul/libgcc.a(_div_df.o)
 .debug_aranges
                0x00000788       0x20 /package/eda/altera/altera13.0sp1/nios2eds/bin/gnu/H-i686-pc-linux-gnu/bin/../lib/gcc/nios2-elf/4.1.2/mno-hw-mul/libgcc.a(_df_to_sf.o)
 .debug_aranges
                0x000007a8       0x20 /package/eda/altera/altera13.0sp1/nios2eds/bin/gnu/H-i686-pc-linux-gnu/bin/../lib/gcc/nios2-elf/4.1.2/mno-hw-mul/libgcc.a(_usi_to_df.o)
 .debug_aranges
                0x000007c8       0x20 /package/eda/altera/altera13.0sp1/nios2eds/bin/gnu/H-i686-pc-linux-gnu/bin/../lib/gcc/nios2-elf/4.1.2/mno-hw-mul/libgcc.a(lib2-divmod.o)
 .debug_aranges
                0x000007e8       0x20 /package/eda/altera/altera13.0sp1/nios2eds/bin/gnu/H-i686-pc-linux-gnu/bin/../lib/gcc/nios2-elf/4.1.2/mno-hw-mul/libgcc.a(lib2-mul.o)
 .debug_aranges
                0x00000808       0x20 /package/eda/altera/altera13.0sp1/nios2eds/bin/gnu/H-i686-pc-linux-gnu/bin/../lib/gcc/nios2-elf/4.1.2/mno-hw-mul/libgcc.a(_muldi3.o)
 .debug_aranges
                0x00000828       0x20 /package/eda/altera/altera13.0sp1/nios2eds/bin/gnu/H-i686-pc-linux-gnu/bin/../lib/gcc/nios2-elf/4.1.2/mno-hw-mul/libgcc.a(_clzsi2.o)
 .debug_aranges
                0x00000848       0x20 /package/eda/altera/altera13.0sp1/nios2eds/bin/gnu/H-i686-pc-linux-gnu/bin/../lib/gcc/nios2-elf/4.1.2/mno-hw-mul/libgcc.a(_pack_sf.o)
 .debug_aranges
                0x00000868       0x20 /package/eda/altera/altera13.0sp1/nios2eds/bin/gnu/H-i686-pc-linux-gnu/bin/../lib/gcc/nios2-elf/4.1.2/mno-hw-mul/libgcc.a(_unpack_sf.o)
 .debug_aranges
                0x00000888       0x20 /package/eda/altera/altera13.0sp1/nios2eds/bin/gnu/H-i686-pc-linux-gnu/bin/../lib/gcc/nios2-elf/4.1.2/mno-hw-mul/libgcc.a(_make_sf.o)
 .debug_aranges
                0x000008a8       0x20 /package/eda/altera/altera13.0sp1/nios2eds/bin/gnu/H-i686-pc-linux-gnu/bin/../lib/gcc/nios2-elf/4.1.2/mno-hw-mul/libgcc.a(_pack_df.o)
 .debug_aranges
                0x000008c8       0x20 /package/eda/altera/altera13.0sp1/nios2eds/bin/gnu/H-i686-pc-linux-gnu/bin/../lib/gcc/nios2-elf/4.1.2/mno-hw-mul/libgcc.a(_unpack_df.o)
 .debug_aranges
                0x000008e8       0x20 /package/eda/altera/altera13.0sp1/nios2eds/bin/gnu/H-i686-pc-linux-gnu/bin/../lib/gcc/nios2-elf/4.1.2/../../../../nios2-elf/lib/mno-hw-mul/libc.a(lib_a-exit.o)
 .debug_aranges
                0x00000908       0x20 /package/eda/altera/altera13.0sp1/nios2eds/bin/gnu/H-i686-pc-linux-gnu/bin/../lib/gcc/nios2-elf/4.1.2/../../../../nios2-elf/lib/mno-hw-mul/libc.a(lib_a-fclose.o)
 .debug_aranges
                0x00000928       0x20 /package/eda/altera/altera13.0sp1/nios2eds/bin/gnu/H-i686-pc-linux-gnu/bin/../lib/gcc/nios2-elf/4.1.2/../../../../nios2-elf/lib/mno-hw-mul/libc.a(lib_a-fflush.o)
 .debug_aranges
                0x00000948       0x20 /package/eda/altera/altera13.0sp1/nios2eds/bin/gnu/H-i686-pc-linux-gnu/bin/../lib/gcc/nios2-elf/4.1.2/../../../../nios2-elf/lib/mno-hw-mul/libc.a(lib_a-findfp.o)
 .debug_aranges
                0x00000968       0x20 /package/eda/altera/altera13.0sp1/nios2eds/bin/gnu/H-i686-pc-linux-gnu/bin/../lib/gcc/nios2-elf/4.1.2/../../../../nios2-elf/lib/mno-hw-mul/libc.a(lib_a-fopen.o)
 .debug_aranges
                0x00000988       0x20 /package/eda/altera/altera13.0sp1/nios2eds/bin/gnu/H-i686-pc-linux-gnu/bin/../lib/gcc/nios2-elf/4.1.2/../../../../nios2-elf/lib/mno-hw-mul/libc.a(lib_a-fprintf.o)
 .debug_aranges
                0x000009a8       0x20 /package/eda/altera/altera13.0sp1/nios2eds/bin/gnu/H-i686-pc-linux-gnu/bin/../lib/gcc/nios2-elf/4.1.2/../../../../nios2-elf/lib/mno-hw-mul/libc.a(lib_a-fputc.o)
 .debug_aranges
                0x000009c8       0x20 /package/eda/altera/altera13.0sp1/nios2eds/bin/gnu/H-i686-pc-linux-gnu/bin/../lib/gcc/nios2-elf/4.1.2/../../../../nios2-elf/lib/mno-hw-mul/libc.a(lib_a-fread.o)
 .debug_aranges
                0x000009e8       0x20 /package/eda/altera/altera13.0sp1/nios2eds/bin/gnu/H-i686-pc-linux-gnu/bin/../lib/gcc/nios2-elf/4.1.2/../../../../nios2-elf/lib/mno-hw-mul/libc.a(lib_a-freer.o)
 .debug_aranges
                0x00000a08       0x20 /package/eda/altera/altera13.0sp1/nios2eds/bin/gnu/H-i686-pc-linux-gnu/bin/../lib/gcc/nios2-elf/4.1.2/../../../../nios2-elf/lib/mno-hw-mul/libc.a(lib_a-fseek.o)
 .debug_aranges
                0x00000a28       0x20 /package/eda/altera/altera13.0sp1/nios2eds/bin/gnu/H-i686-pc-linux-gnu/bin/../lib/gcc/nios2-elf/4.1.2/../../../../nios2-elf/lib/mno-hw-mul/libc.a(lib_a-fstatr.o)
 .debug_aranges
                0x00000a48       0x20 /package/eda/altera/altera13.0sp1/nios2eds/bin/gnu/H-i686-pc-linux-gnu/bin/../lib/gcc/nios2-elf/4.1.2/../../../../nios2-elf/lib/mno-hw-mul/libc.a(lib_a-fwalk.o)
 .debug_aranges
                0x00000a68       0x20 /package/eda/altera/altera13.0sp1/nios2eds/bin/gnu/H-i686-pc-linux-gnu/bin/../lib/gcc/nios2-elf/4.1.2/../../../../nios2-elf/lib/mno-hw-mul/libc.a(lib_a-fwrite.o)
 .debug_aranges
                0x00000a88       0x20 /package/eda/altera/altera13.0sp1/nios2eds/bin/gnu/H-i686-pc-linux-gnu/bin/../lib/gcc/nios2-elf/4.1.2/../../../../nios2-elf/lib/mno-hw-mul/libc.a(lib_a-getc.o)
 .debug_aranges
                0x00000aa8       0x20 /package/eda/altera/altera13.0sp1/nios2eds/bin/gnu/H-i686-pc-linux-gnu/bin/../lib/gcc/nios2-elf/4.1.2/../../../../nios2-elf/lib/mno-hw-mul/libc.a(lib_a-getenv.o)
 .debug_aranges
                0x00000ac8       0x20 /package/eda/altera/altera13.0sp1/nios2eds/bin/gnu/H-i686-pc-linux-gnu/bin/../lib/gcc/nios2-elf/4.1.2/../../../../nios2-elf/lib/mno-hw-mul/libc.a(lib_a-getenv_r.o)
 .debug_aranges
                0x00000ae8       0x20 /package/eda/altera/altera13.0sp1/nios2eds/bin/gnu/H-i686-pc-linux-gnu/bin/../lib/gcc/nios2-elf/4.1.2/../../../../nios2-elf/lib/mno-hw-mul/libc.a(lib_a-makebuf.o)
 .debug_aranges
                0x00000b08       0x20 /package/eda/altera/altera13.0sp1/nios2eds/bin/gnu/H-i686-pc-linux-gnu/bin/../lib/gcc/nios2-elf/4.1.2/../../../../nios2-elf/lib/mno-hw-mul/libc.a(lib_a-malloc.o)
 .debug_aranges
                0x00000b28       0x20 /package/eda/altera/altera13.0sp1/nios2eds/bin/gnu/H-i686-pc-linux-gnu/bin/../lib/gcc/nios2-elf/4.1.2/../../../../nios2-elf/lib/mno-hw-mul/libc.a(lib_a-mallocr.o)
 .debug_aranges
                0x00000b48       0x20 /package/eda/altera/altera13.0sp1/nios2eds/bin/gnu/H-i686-pc-linux-gnu/bin/../lib/gcc/nios2-elf/4.1.2/../../../../nios2-elf/lib/mno-hw-mul/libc.a(lib_a-memcpy.o)
 .debug_aranges
                0x00000b68       0x20 /package/eda/altera/altera13.0sp1/nios2eds/bin/gnu/H-i686-pc-linux-gnu/bin/../lib/gcc/nios2-elf/4.1.2/../../../../nios2-elf/lib/mno-hw-mul/libc.a(lib_a-memset.o)
 .debug_aranges
                0x00000b88       0x20 /package/eda/altera/altera13.0sp1/nios2eds/bin/gnu/H-i686-pc-linux-gnu/bin/../lib/gcc/nios2-elf/4.1.2/../../../../nios2-elf/lib/mno-hw-mul/libc.a(lib_a-openr.o)
 .debug_aranges
                0x00000ba8       0x20 /package/eda/altera/altera13.0sp1/nios2eds/bin/gnu/H-i686-pc-linux-gnu/bin/../lib/gcc/nios2-elf/4.1.2/../../../../nios2-elf/lib/mno-hw-mul/libc.a(lib_a-printf.o)
 .debug_aranges
                0x00000bc8       0x20 /package/eda/altera/altera13.0sp1/nios2eds/bin/gnu/H-i686-pc-linux-gnu/bin/../lib/gcc/nios2-elf/4.1.2/../../../../nios2-elf/lib/mno-hw-mul/libc.a(lib_a-putc.o)
 .debug_aranges
                0x00000be8       0x20 /package/eda/altera/altera13.0sp1/nios2eds/bin/gnu/H-i686-pc-linux-gnu/bin/../lib/gcc/nios2-elf/4.1.2/../../../../nios2-elf/lib/mno-hw-mul/libc.a(lib_a-puts.o)
 .debug_aranges
                0x00000c08       0x20 /package/eda/altera/altera13.0sp1/nios2eds/bin/gnu/H-i686-pc-linux-gnu/bin/../lib/gcc/nios2-elf/4.1.2/../../../../nios2-elf/lib/mno-hw-mul/libc.a(lib_a-refill.o)
 .debug_aranges
                0x00000c28       0x20 /package/eda/altera/altera13.0sp1/nios2eds/bin/gnu/H-i686-pc-linux-gnu/bin/../lib/gcc/nios2-elf/4.1.2/../../../../nios2-elf/lib/mno-hw-mul/libc.a(lib_a-rget.o)
 .debug_aranges
                0x00000c48       0x20 /package/eda/altera/altera13.0sp1/nios2eds/bin/gnu/H-i686-pc-linux-gnu/bin/../lib/gcc/nios2-elf/4.1.2/../../../../nios2-elf/lib/mno-hw-mul/libc.a(lib_a-sbrkr.o)
 .debug_aranges
                0x00000c68       0x20 /package/eda/altera/altera13.0sp1/nios2eds/bin/gnu/H-i686-pc-linux-gnu/bin/../lib/gcc/nios2-elf/4.1.2/../../../../nios2-elf/lib/mno-hw-mul/libc.a(lib_a-sprintf.o)
 .debug_aranges
                0x00000c88       0x20 /package/eda/altera/altera13.0sp1/nios2eds/bin/gnu/H-i686-pc-linux-gnu/bin/../lib/gcc/nios2-elf/4.1.2/../../../../nios2-elf/lib/mno-hw-mul/libc.a(lib_a-sscanf.o)
 .debug_aranges
                0x00000ca8       0x20 /package/eda/altera/altera13.0sp1/nios2eds/bin/gnu/H-i686-pc-linux-gnu/bin/../lib/gcc/nios2-elf/4.1.2/../../../../nios2-elf/lib/mno-hw-mul/libc.a(lib_a-stdio.o)
 .debug_aranges
                0x00000cc8       0x20 /package/eda/altera/altera13.0sp1/nios2eds/bin/gnu/H-i686-pc-linux-gnu/bin/../lib/gcc/nios2-elf/4.1.2/../../../../nios2-elf/lib/mno-hw-mul/libc.a(lib_a-strdup.o)
 .debug_aranges
                0x00000ce8       0x20 /package/eda/altera/altera13.0sp1/nios2eds/bin/gnu/H-i686-pc-linux-gnu/bin/../lib/gcc/nios2-elf/4.1.2/../../../../nios2-elf/lib/mno-hw-mul/libc.a(lib_a-strdup_r.o)
 .debug_aranges
                0x00000d08       0x20 /package/eda/altera/altera13.0sp1/nios2eds/bin/gnu/H-i686-pc-linux-gnu/bin/../lib/gcc/nios2-elf/4.1.2/../../../../nios2-elf/lib/mno-hw-mul/libc.a(lib_a-strlen.o)
 .debug_aranges
                0x00000d28       0x20 /package/eda/altera/altera13.0sp1/nios2eds/bin/gnu/H-i686-pc-linux-gnu/bin/../lib/gcc/nios2-elf/4.1.2/../../../../nios2-elf/lib/mno-hw-mul/libc.a(lib_a-strncmp.o)
 .debug_aranges
                0x00000d48       0x20 /package/eda/altera/altera13.0sp1/nios2eds/bin/gnu/H-i686-pc-linux-gnu/bin/../lib/gcc/nios2-elf/4.1.2/../../../../nios2-elf/lib/mno-hw-mul/libc.a(lib_a-vfprintf.o)
 .debug_aranges
                0x00000d68       0x20 /package/eda/altera/altera13.0sp1/nios2eds/bin/gnu/H-i686-pc-linux-gnu/bin/../lib/gcc/nios2-elf/4.1.2/../../../../nios2-elf/lib/mno-hw-mul/libc.a(lib_a-vfscanf.o)
 .debug_aranges
                0x00000d88       0x20 /package/eda/altera/altera13.0sp1/nios2eds/bin/gnu/H-i686-pc-linux-gnu/bin/../lib/gcc/nios2-elf/4.1.2/../../../../nios2-elf/lib/mno-hw-mul/libc.a(lib_a-wbuf.o)
 .debug_aranges
                0x00000da8       0x20 /package/eda/altera/altera13.0sp1/nios2eds/bin/gnu/H-i686-pc-linux-gnu/bin/../lib/gcc/nios2-elf/4.1.2/../../../../nios2-elf/lib/mno-hw-mul/libc.a(lib_a-writer.o)
 .debug_aranges
                0x00000dc8       0x20 /package/eda/altera/altera13.0sp1/nios2eds/bin/gnu/H-i686-pc-linux-gnu/bin/../lib/gcc/nios2-elf/4.1.2/../../../../nios2-elf/lib/mno-hw-mul/libc.a(lib_a-wsetup.o)
 .debug_aranges
                0x00000de8       0x20 /package/eda/altera/altera13.0sp1/nios2eds/bin/gnu/H-i686-pc-linux-gnu/bin/../lib/gcc/nios2-elf/4.1.2/../../../../nios2-elf/lib/mno-hw-mul/libc.a(lib_a-__call_atexit.o)
 .debug_aranges
                0x00000e08       0x20 /package/eda/altera/altera13.0sp1/nios2eds/bin/gnu/H-i686-pc-linux-gnu/bin/../lib/gcc/nios2-elf/4.1.2/../../../../nios2-elf/lib/mno-hw-mul/libc.a(lib_a-closer.o)
 .debug_aranges
                0x00000e28       0x20 /package/eda/altera/altera13.0sp1/nios2eds/bin/gnu/H-i686-pc-linux-gnu/bin/../lib/gcc/nios2-elf/4.1.2/../../../../nios2-elf/lib/mno-hw-mul/libc.a(lib_a-dtoa.o)
 .debug_aranges
                0x00000e48       0x20 /package/eda/altera/altera13.0sp1/nios2eds/bin/gnu/H-i686-pc-linux-gnu/bin/../lib/gcc/nios2-elf/4.1.2/../../../../nios2-elf/lib/mno-hw-mul/libc.a(lib_a-flags.o)
 .debug_aranges
                0x00000e68       0x20 /package/eda/altera/altera13.0sp1/nios2eds/bin/gnu/H-i686-pc-linux-gnu/bin/../lib/gcc/nios2-elf/4.1.2/../../../../nios2-elf/lib/mno-hw-mul/libc.a(lib_a-fvwrite.o)
 .debug_aranges
                0x00000e88       0x20 /package/eda/altera/altera13.0sp1/nios2eds/bin/gnu/H-i686-pc-linux-gnu/bin/../lib/gcc/nios2-elf/4.1.2/../../../../nios2-elf/lib/mno-hw-mul/libc.a(lib_a-isattyr.o)
 .debug_aranges
                0x00000ea8       0x20 /package/eda/altera/altera13.0sp1/nios2eds/bin/gnu/H-i686-pc-linux-gnu/bin/../lib/gcc/nios2-elf/4.1.2/../../../../nios2-elf/lib/mno-hw-mul/libc.a(lib_a-iswspace.o)
 .debug_aranges
                0x00000ec8       0x20 /package/eda/altera/altera13.0sp1/nios2eds/bin/gnu/H-i686-pc-linux-gnu/bin/../lib/gcc/nios2-elf/4.1.2/../../../../nios2-elf/lib/mno-hw-mul/libc.a(lib_a-locale.o)
 .debug_aranges
                0x00000ee8       0x20 /package/eda/altera/altera13.0sp1/nios2eds/bin/gnu/H-i686-pc-linux-gnu/bin/../lib/gcc/nios2-elf/4.1.2/../../../../nios2-elf/lib/mno-hw-mul/libc.a(lib_a-lseekr.o)
 .debug_aranges
                0x00000f08       0x20 /package/eda/altera/altera13.0sp1/nios2eds/bin/gnu/H-i686-pc-linux-gnu/bin/../lib/gcc/nios2-elf/4.1.2/../../../../nios2-elf/lib/mno-hw-mul/libc.a(lib_a-mbrtowc.o)
 .debug_aranges
                0x00000f28       0x20 /package/eda/altera/altera13.0sp1/nios2eds/bin/gnu/H-i686-pc-linux-gnu/bin/../lib/gcc/nios2-elf/4.1.2/../../../../nios2-elf/lib/mno-hw-mul/libc.a(lib_a-mbtowc_r.o)
 .debug_aranges
                0x00000f48       0x20 /package/eda/altera/altera13.0sp1/nios2eds/bin/gnu/H-i686-pc-linux-gnu/bin/../lib/gcc/nios2-elf/4.1.2/../../../../nios2-elf/lib/mno-hw-mul/libc.a(lib_a-memchr.o)
 .debug_aranges
                0x00000f68       0x20 /package/eda/altera/altera13.0sp1/nios2eds/bin/gnu/H-i686-pc-linux-gnu/bin/../lib/gcc/nios2-elf/4.1.2/../../../../nios2-elf/lib/mno-hw-mul/libc.a(lib_a-memmove.o)
 .debug_aranges
                0x00000f88       0x20 /package/eda/altera/altera13.0sp1/nios2eds/bin/gnu/H-i686-pc-linux-gnu/bin/../lib/gcc/nios2-elf/4.1.2/../../../../nios2-elf/lib/mno-hw-mul/libc.a(lib_a-mprec.o)
 .debug_aranges
                0x00000fa8       0x20 /package/eda/altera/altera13.0sp1/nios2eds/bin/gnu/H-i686-pc-linux-gnu/bin/../lib/gcc/nios2-elf/4.1.2/../../../../nios2-elf/lib/mno-hw-mul/libc.a(lib_a-readr.o)
 .debug_aranges
                0x00000fc8       0x20 /package/eda/altera/altera13.0sp1/nios2eds/bin/gnu/H-i686-pc-linux-gnu/bin/../lib/gcc/nios2-elf/4.1.2/../../../../nios2-elf/lib/mno-hw-mul/libc.a(lib_a-reallocr.o)
 .debug_aranges
                0x00000fe8       0x20 /package/eda/altera/altera13.0sp1/nios2eds/bin/gnu/H-i686-pc-linux-gnu/bin/../lib/gcc/nios2-elf/4.1.2/../../../../nios2-elf/lib/mno-hw-mul/libc.a(lib_a-s_isinfd.o)
 .debug_aranges
                0x00001008       0x20 /package/eda/altera/altera13.0sp1/nios2eds/bin/gnu/H-i686-pc-linux-gnu/bin/../lib/gcc/nios2-elf/4.1.2/../../../../nios2-elf/lib/mno-hw-mul/libc.a(lib_a-s_isnand.o)
 .debug_aranges
                0x00001028       0x20 /package/eda/altera/altera13.0sp1/nios2eds/bin/gnu/H-i686-pc-linux-gnu/bin/../lib/gcc/nios2-elf/4.1.2/../../../../nios2-elf/lib/mno-hw-mul/libc.a(lib_a-sccl.o)
 .debug_aranges
                0x00001048       0x20 /package/eda/altera/altera13.0sp1/nios2eds/bin/gnu/H-i686-pc-linux-gnu/bin/../lib/gcc/nios2-elf/4.1.2/../../../../nios2-elf/lib/mno-hw-mul/libc.a(lib_a-sf_nan.o)
 .debug_aranges
                0x00001068       0x20 /package/eda/altera/altera13.0sp1/nios2eds/bin/gnu/H-i686-pc-linux-gnu/bin/../lib/gcc/nios2-elf/4.1.2/../../../../nios2-elf/lib/mno-hw-mul/libc.a(lib_a-strcmp.o)
 .debug_aranges
                0x00001088       0x20 /package/eda/altera/altera13.0sp1/nios2eds/bin/gnu/H-i686-pc-linux-gnu/bin/../lib/gcc/nios2-elf/4.1.2/../../../../nios2-elf/lib/mno-hw-mul/libc.a(lib_a-strtod.o)
 .debug_aranges
                0x000010a8       0x20 /package/eda/altera/altera13.0sp1/nios2eds/bin/gnu/H-i686-pc-linux-gnu/bin/../lib/gcc/nios2-elf/4.1.2/../../../../nios2-elf/lib/mno-hw-mul/libc.a(lib_a-strtol.o)
 .debug_aranges
                0x000010c8       0x20 /package/eda/altera/altera13.0sp1/nios2eds/bin/gnu/H-i686-pc-linux-gnu/bin/../lib/gcc/nios2-elf/4.1.2/../../../../nios2-elf/lib/mno-hw-mul/libc.a(lib_a-strtoll_r.o)
 .debug_aranges
                0x000010e8       0x20 /package/eda/altera/altera13.0sp1/nios2eds/bin/gnu/H-i686-pc-linux-gnu/bin/../lib/gcc/nios2-elf/4.1.2/../../../../nios2-elf/lib/mno-hw-mul/libc.a(lib_a-strtoul.o)
 .debug_aranges
                0x00001108       0x20 /package/eda/altera/altera13.0sp1/nios2eds/bin/gnu/H-i686-pc-linux-gnu/bin/../lib/gcc/nios2-elf/4.1.2/../../../../nios2-elf/lib/mno-hw-mul/libc.a(lib_a-strtoull_r.o)
 .debug_aranges
                0x00001128       0x20 /package/eda/altera/altera13.0sp1/nios2eds/bin/gnu/H-i686-pc-linux-gnu/bin/../lib/gcc/nios2-elf/4.1.2/../../../../nios2-elf/lib/mno-hw-mul/libc.a(lib_a-ungetc.o)
 .debug_aranges
                0x00001148       0x20 /package/eda/altera/altera13.0sp1/nios2eds/bin/gnu/H-i686-pc-linux-gnu/bin/../lib/gcc/nios2-elf/4.1.2/../../../../nios2-elf/lib/mno-hw-mul/libc.a(lib_a-callocr.o)
 .debug_aranges
                0x00001168       0x20 /package/eda/altera/altera13.0sp1/nios2eds/bin/gnu/H-i686-pc-linux-gnu/bin/../lib/gcc/nios2-elf/4.1.2/../../../../nios2-elf/lib/mno-hw-mul/libc.a(lib_a-gdtoa-gethex.o)
 .debug_aranges
                0x00001188       0x20 /package/eda/altera/altera13.0sp1/nios2eds/bin/gnu/H-i686-pc-linux-gnu/bin/../lib/gcc/nios2-elf/4.1.2/../../../../nios2-elf/lib/mno-hw-mul/libc.a(lib_a-gdtoa-hexnan.o)
 .debug_aranges
                0x000011a8       0x20 /package/eda/altera/altera13.0sp1/nios2eds/bin/gnu/H-i686-pc-linux-gnu/bin/../lib/gcc/nios2-elf/4.1.2/mno-hw-mul/libgcc.a(_fixunsdfsi.o)
 .debug_aranges
                0x000011c8       0x20 /package/eda/altera/altera13.0sp1/nios2eds/bin/gnu/H-i686-pc-linux-gnu/bin/../lib/gcc/nios2-elf/4.1.2/mno-hw-mul/libgcc.a(_udivdi3.o)
 .debug_aranges
                0x000011e8       0x20 /package/eda/altera/altera13.0sp1/nios2eds/bin/gnu/H-i686-pc-linux-gnu/bin/../lib/gcc/nios2-elf/4.1.2/mno-hw-mul/libgcc.a(_umoddi3.o)
 .debug_aranges
                0x00001208       0x20 /package/eda/altera/altera13.0sp1/nios2eds/bin/gnu/H-i686-pc-linux-gnu/bin/../lib/gcc/nios2-elf/4.1.2/mno-hw-mul/libgcc.a(_ne_sf.o)
 .debug_aranges
                0x00001228       0x20 /package/eda/altera/altera13.0sp1/nios2eds/bin/gnu/H-i686-pc-linux-gnu/bin/../lib/gcc/nios2-elf/4.1.2/mno-hw-mul/libgcc.a(_gt_sf.o)
 .debug_aranges
                0x00001248       0x20 /package/eda/altera/altera13.0sp1/nios2eds/bin/gnu/H-i686-pc-linux-gnu/bin/../lib/gcc/nios2-elf/4.1.2/mno-hw-mul/libgcc.a(_lt_sf.o)
 .debug_aranges
                0x00001268       0x20 /package/eda/altera/altera13.0sp1/nios2eds/bin/gnu/H-i686-pc-linux-gnu/bin/../lib/gcc/nios2-elf/4.1.2/mno-hw-mul/libgcc.a(_addsub_df.o)
 .debug_aranges
                0x00001288       0x20 /package/eda/altera/altera13.0sp1/nios2eds/bin/gnu/H-i686-pc-linux-gnu/bin/../lib/gcc/nios2-elf/4.1.2/mno-hw-mul/libgcc.a(_eq_df.o)
 .debug_aranges
                0x000012a8       0x20 /package/eda/altera/altera13.0sp1/nios2eds/bin/gnu/H-i686-pc-linux-gnu/bin/../lib/gcc/nios2-elf/4.1.2/mno-hw-mul/libgcc.a(_ne_df.o)
 .debug_aranges
                0x000012c8       0x20 /package/eda/altera/altera13.0sp1/nios2eds/bin/gnu/H-i686-pc-linux-gnu/bin/../lib/gcc/nios2-elf/4.1.2/mno-hw-mul/libgcc.a(_gt_df.o)
 .debug_aranges
                0x000012e8       0x20 /package/eda/altera/altera13.0sp1/nios2eds/bin/gnu/H-i686-pc-linux-gnu/bin/../lib/gcc/nios2-elf/4.1.2/mno-hw-mul/libgcc.a(_ge_df.o)
 .debug_aranges
                0x00001308       0x20 /package/eda/altera/altera13.0sp1/nios2eds/bin/gnu/H-i686-pc-linux-gnu/bin/../lib/gcc/nios2-elf/4.1.2/mno-hw-mul/libgcc.a(_lt_df.o)
 .debug_aranges
                0x00001328       0x20 /package/eda/altera/altera13.0sp1/nios2eds/bin/gnu/H-i686-pc-linux-gnu/bin/../lib/gcc/nios2-elf/4.1.2/mno-hw-mul/libgcc.a(_le_df.o)
 .debug_aranges
                0x00001348       0x20 /package/eda/altera/altera13.0sp1/nios2eds/bin/gnu/H-i686-pc-linux-gnu/bin/../lib/gcc/nios2-elf/4.1.2/mno-hw-mul/libgcc.a(_si_to_df.o)
 .debug_aranges
                0x00001368       0x20 /package/eda/altera/altera13.0sp1/nios2eds/bin/gnu/H-i686-pc-linux-gnu/bin/../lib/gcc/nios2-elf/4.1.2/mno-hw-mul/libgcc.a(_df_to_si.o)
 .debug_aranges
                0x00001388       0x20 /package/eda/altera/altera13.0sp1/nios2eds/bin/gnu/H-i686-pc-linux-gnu/bin/../lib/gcc/nios2-elf/4.1.2/mno-hw-mul/libgcc.a(_fpcmp_parts_sf.o)
 .debug_aranges
                0x000013a8       0x20 /package/eda/altera/altera13.0sp1/nios2eds/bin/gnu/H-i686-pc-linux-gnu/bin/../lib/gcc/nios2-elf/4.1.2/mno-hw-mul/libgcc.a(_fpcmp_parts_df.o)
 .debug_aranges
                0x000013c8       0x20 ../demo_board_bsp//libhal_bsp.a(alt_close.o)
 .debug_aranges
                0x000013e8       0x20 ../demo_board_bsp//libhal_bsp.a(alt_dev.o)
 .debug_aranges
                0x00001408       0x20 ../demo_board_bsp//libhal_bsp.a(alt_env_lock.o)
 .debug_aranges
                0x00001428       0x20 ../demo_board_bsp//libhal_bsp.a(alt_exit.o)
 .debug_aranges
                0x00001448       0x20 ../demo_board_bsp//libhal_bsp.a(alt_fstat.o)
 .debug_aranges
                0x00001468       0x20 ../demo_board_bsp//libhal_bsp.a(alt_isatty.o)
 .debug_aranges
                0x00001488       0x20 ../demo_board_bsp//libhal_bsp.a(alt_load.o)
 .debug_aranges
                0x000014a8       0x20 ../demo_board_bsp//libhal_bsp.a(alt_lseek.o)
 .debug_aranges
                0x000014c8       0x20 ../demo_board_bsp//libhal_bsp.a(alt_main.o)
 .debug_aranges
                0x000014e8       0x20 ../demo_board_bsp//libhal_bsp.a(alt_malloc_lock.o)
 .debug_aranges
                0x00001508       0x20 ../demo_board_bsp//libhal_bsp.a(alt_open.o)
 .debug_aranges
                0x00001528       0x20 ../demo_board_bsp//libhal_bsp.a(alt_read.o)
 .debug_aranges
                0x00001548       0x20 ../demo_board_bsp//libhal_bsp.a(alt_release_fd.o)
 .debug_aranges
                0x00001568       0x20 ../demo_board_bsp//libhal_bsp.a(alt_sbrk.o)
 .debug_aranges
                0x00001588       0x20 ../demo_board_bsp//libhal_bsp.a(alt_write.o)
 .debug_aranges
                0x000015a8       0x20 ../demo_board_bsp//libhal_bsp.a(alt_sys_init.o)
 .debug_aranges
                0x000015c8       0x20 ../demo_board_bsp//libhal_bsp.a(altera_avalon_cfi_flash.o)
 .debug_aranges
                0x000015e8       0x20 ../demo_board_bsp//libhal_bsp.a(altera_avalon_cfi_flash_table.o)
 .debug_aranges
                0x00001608       0x20 ../demo_board_bsp//libhal_bsp.a(altera_avalon_jtag_uart_fd.o)
 .debug_aranges
                0x00001628       0x20 ../demo_board_bsp//libhal_bsp.a(altera_avalon_jtag_uart_init.o)
 .debug_aranges
                0x00001648       0x20 ../demo_board_bsp//libhal_bsp.a(altera_avalon_jtag_uart_ioctl.o)
 .debug_aranges
                0x00001668       0x20 ../demo_board_bsp//libhal_bsp.a(altera_avalon_jtag_uart_read.o)
 .debug_aranges
                0x00001688       0x20 ../demo_board_bsp//libhal_bsp.a(altera_avalon_jtag_uart_write.o)
 .debug_aranges
                0x000016a8       0x20 ../demo_board_bsp//libhal_bsp.a(altera_avalon_performance_counter.o)
 .debug_aranges
                0x000016c8       0x20 ../demo_board_bsp//libhal_bsp.a(altera_ro_zipfs.o)
 .debug_aranges
                0x000016e8       0x20 ../demo_board_bsp//libhal_bsp.a(altera_up_avalon_video_pixel_buffer_dma.o)
 .debug_aranges
                0x00001708       0x20 ../demo_board_bsp//libhal_bsp.a(perf_print_formatted_report.o)
 .debug_aranges
                0x00001728       0x20 ../demo_board_bsp//libhal_bsp.a(alt_alarm_start.o)
 .debug_aranges
                0x00001748       0x20 ../demo_board_bsp//libhal_bsp.a(alt_dcache_flush.o)
 .debug_aranges
                0x00001768       0x20 ../demo_board_bsp//libhal_bsp.a(alt_dcache_flush_all.o)
 .debug_aranges
                0x00001788       0x20 ../demo_board_bsp//libhal_bsp.a(alt_dev_llist_insert.o)
 .debug_aranges
                0x000017a8       0x20 ../demo_board_bsp//libhal_bsp.a(alt_do_ctors.o)
 .debug_aranges
                0x000017c8       0x20 ../demo_board_bsp//libhal_bsp.a(alt_do_dtors.o)
 .debug_aranges
                0x000017e8       0x20 ../demo_board_bsp//libhal_bsp.a(alt_find_dev.o)
 .debug_aranges
                0x00001808       0x20 ../demo_board_bsp//libhal_bsp.a(alt_find_file.o)
 .debug_aranges
                0x00001828       0x20 ../demo_board_bsp//libhal_bsp.a(alt_flash_dev.o)
 .debug_aranges
                0x00001848       0x20 ../demo_board_bsp//libhal_bsp.a(alt_fs_reg.o)
 .debug_aranges
                0x00001868       0x20 ../demo_board_bsp//libhal_bsp.a(alt_get_fd.o)
 .debug_aranges
                0x00001888       0x20 ../demo_board_bsp//libhal_bsp.a(alt_icache_flush_all.o)
 .debug_aranges
                0x000018a8       0x20 ../demo_board_bsp//libhal_bsp.a(alt_iic.o)
 .debug_aranges
                0x000018c8       0x20 ../demo_board_bsp//libhal_bsp.a(alt_iic_isr_register.o)
 .debug_aranges
                0x000018e8       0x20 ../demo_board_bsp//libhal_bsp.a(alt_io_redirect.o)
 .debug_aranges
                0x00001908       0x30 ../demo_board_bsp//libhal_bsp.a(alt_irq_entry.o)
 .debug_aranges
                0x00001938       0x28 ../demo_board_bsp//libhal_bsp.a(alt_irq_handler.o)
 .debug_aranges
                0x00001960       0x20 ../demo_board_bsp//libhal_bsp.a(alt_tick.o)
 .debug_aranges
                0x00001980       0x20 ../demo_board_bsp//libhal_bsp.a(altera_nios2_qsys_irq.o)
 .debug_aranges
                0x000019a0       0x20 ../demo_board_bsp//libhal_bsp.a(altera_avalon_cfi_flash_amd.o)
 .debug_aranges
                0x000019c0       0x20 ../demo_board_bsp//libhal_bsp.a(altera_avalon_cfi_flash_intel.o)
 .debug_aranges
                0x000019e0       0x38 ../demo_board_bsp//libhal_bsp.a(alt_exception_entry.o)
 .debug_aranges
                0x00001a18       0x20 ../demo_board_bsp//libhal_bsp.a(alt_usleep.o)
 .debug_aranges
                0x00001a38       0x20 ../demo_board_bsp//libhal_bsp.a(alt_busy_sleep.o)
 .debug_aranges
                0x00001a58       0x20 /package/eda/altera/altera13.0sp1/nios2eds/bin/gnu/H-i686-pc-linux-gnu/bin/../lib/gcc/nios2-elf/4.1.2/../../../../nios2-elf/lib/mno-hw-mul/libc.a(lib_a-atexit.o)
 .debug_aranges
                0x00001a78       0x20 /package/eda/altera/altera13.0sp1/nios2eds/bin/gnu/H-i686-pc-linux-gnu/bin/../lib/gcc/nios2-elf/4.1.2/../../../../nios2-elf/lib/mno-hw-mul/libc.a(lib_a-memcmp.o)
 .debug_aranges
                0x00001a98       0x20 /package/eda/altera/altera13.0sp1/nios2eds/bin/gnu/H-i686-pc-linux-gnu/bin/../lib/gcc/nios2-elf/4.1.2/../../../../nios2-elf/lib/mno-hw-mul/libc.a(lib_a-__atexit.o)
 .debug_aranges
                0x00001ab8       0x20 /package/eda/altera/altera13.0sp1/nios2eds/bin/gnu/H-i686-pc-linux-gnu/bin/../lib/gcc/nios2-elf/4.1.2/mno-hw-mul/libgcc.a(_floatundidf.o)

.debug_pubnames
                0x00000000     0x30ae
 *(.debug_pubnames)
 .debug_pubnames
                0x00000000       0x3f obj/default/cdjpeg.o
 .debug_pubnames
                0x0000003f       0x30 obj/default/djpeg.o
 .debug_pubnames
                0x0000006f       0xba obj/default/jcapimin.o
 .debug_pubnames
                0x00000129       0x5b obj/default/jcapistd.o
 .debug_pubnames
                0x00000184       0x2e obj/default/jccoefct.o
 .debug_pubnames
                0x000001b2       0x2c obj/default/jccolor.o
 .debug_pubnames
                0x000001de       0x28 obj/default/jcdctmgr.o
 .debug_pubnames
                0x00000206       0x60 obj/default/jchuff.o
 .debug_pubnames
                0x00000266       0x2c obj/default/jcinit.o
 .debug_pubnames
                0x00000292       0x2e obj/default/jcmainct.o
 .debug_pubnames
                0x000002c0       0x2a obj/default/jcmarker.o
 .debug_pubnames
                0x000002ea       0x2d obj/default/jcmaster.o
 .debug_pubnames
                0x00000317       0x67 obj/default/jcomapi.o
 .debug_pubnames
                0x0000037e       0xdb obj/default/jcparam.o
 .debug_pubnames
                0x00000459       0x2a obj/default/jcphuff.o
 .debug_pubnames
                0x00000483       0x2e obj/default/jcprepct.o
 .debug_pubnames
                0x000004b1       0x28 obj/default/jcsample.o
 .debug_pubnames
                0x000004d9       0x50 obj/default/jctrans.o
 .debug_pubnames
                0x00000529       0xfb obj/default/jdapimin.o
 .debug_pubnames
                0x00000624       0x88 obj/default/jdapistd.o
 .debug_pubnames
                0x000006ac       0x26 obj/default/jdatadst.o
 .debug_pubnames
                0x000006d2       0x25 obj/default/jdatasrc.o
 .debug_pubnames
                0x000006f7       0x2e obj/default/jdcoefct.o
 .debug_pubnames
                0x00000725       0x2e obj/default/jdcolor.o
 .debug_pubnames
                0x00000753       0x28 obj/default/jddctmgr.o
 .debug_pubnames
                0x0000077b       0x73 obj/default/jdhuff.o
 .debug_pubnames
                0x000007ee       0x2d obj/default/jdinput.o
 .debug_pubnames
                0x0000081b       0x2e obj/default/jdmainct.o
 .debug_pubnames
                0x00000849       0x45 obj/default/jdmarker.o
 .debug_pubnames
                0x0000088e       0x64 obj/default/jdmaster.o
 .debug_pubnames
                0x000008f2       0x2d obj/default/jdmerge.o
 .debug_pubnames
                0x0000091f       0x2a obj/default/jdphuff.o
 .debug_pubnames
                0x00000949       0x2e obj/default/jdpostct.o
 .debug_pubnames
                0x00000977       0x26 obj/default/jdsample.o
 .debug_pubnames
                0x0000099d       0x2d obj/default/jdtrans.o
 .debug_pubnames
                0x000009ca       0x40 obj/default/jerror.o
 .debug_pubnames
                0x00000a0a       0x26 obj/default/jfdctflt.o
 .debug_pubnames
                0x00000a30       0x26 obj/default/jfdctfst.o
 .debug_pubnames
                0x00000a56       0x26 obj/default/jfdctint.o
 .debug_pubnames
                0x00000a7c       0x26 obj/default/jidctflt.o
 .debug_pubnames
                0x00000aa2       0x26 obj/default/jidctfst.o
 .debug_pubnames
                0x00000ac8       0x26 obj/default/jidctint.o
 .debug_pubnames
                0x00000aee       0x48 obj/default/jidctred.o
 .debug_pubnames
                0x00000b36       0x27 obj/default/jmemmgr.o
 .debug_pubnames
                0x00000b5d       0xb7 obj/default/jmemnobs.o
 .debug_pubnames
                0x00000c14       0x2c obj/default/jquant1.o
 .debug_pubnames
                0x00000c40       0x2c obj/default/jquant2.o
 .debug_pubnames
                0x00000c6c       0x81 obj/default/jutils.o
 .debug_pubnames
                0x00000ced       0x25 obj/default/rdcolmap.o
 .debug_pubnames
                0x00000d12       0x26 obj/default/wrbmp.o
 .debug_pubnames
                0x00000d38       0x26 obj/default/wrgif.o
 .debug_pubnames
                0x00000d5e       0x26 obj/default/wrppm.o
 .debug_pubnames
                0x00000d84       0x28 obj/default/wrtarga.o
 .debug_pubnames
                0x00000dac       0x2c /package/eda/altera/altera13.0sp1/nios2eds/bin/gnu/H-i686-pc-linux-gnu/bin/../lib/gcc/nios2-elf/4.1.2/mno-hw-mul/libgcc.a(_addsub_sf.o)
 .debug_pubnames
                0x00000dd8       0x1f /package/eda/altera/altera13.0sp1/nios2eds/bin/gnu/H-i686-pc-linux-gnu/bin/../lib/gcc/nios2-elf/4.1.2/mno-hw-mul/libgcc.a(_mul_sf.o)
 .debug_pubnames
                0x00000df7       0x22 /package/eda/altera/altera13.0sp1/nios2eds/bin/gnu/H-i686-pc-linux-gnu/bin/../lib/gcc/nios2-elf/4.1.2/mno-hw-mul/libgcc.a(_si_to_sf.o)
 .debug_pubnames
                0x00000e19       0x20 /package/eda/altera/altera13.0sp1/nios2eds/bin/gnu/H-i686-pc-linux-gnu/bin/../lib/gcc/nios2-elf/4.1.2/mno-hw-mul/libgcc.a(_sf_to_si.o)
 .debug_pubnames
                0x00000e39       0x22 /package/eda/altera/altera13.0sp1/nios2eds/bin/gnu/H-i686-pc-linux-gnu/bin/../lib/gcc/nios2-elf/4.1.2/mno-hw-mul/libgcc.a(_thenan_sf.o)
 .debug_pubnames
                0x00000e5b       0x1f /package/eda/altera/altera13.0sp1/nios2eds/bin/gnu/H-i686-pc-linux-gnu/bin/../lib/gcc/nios2-elf/4.1.2/mno-hw-mul/libgcc.a(_mul_df.o)
 .debug_pubnames
                0x00000e7a       0x1f /package/eda/altera/altera13.0sp1/nios2eds/bin/gnu/H-i686-pc-linux-gnu/bin/../lib/gcc/nios2-elf/4.1.2/mno-hw-mul/libgcc.a(_div_df.o)
 .debug_pubnames
                0x00000e99       0x23 /package/eda/altera/altera13.0sp1/nios2eds/bin/gnu/H-i686-pc-linux-gnu/bin/../lib/gcc/nios2-elf/4.1.2/mno-hw-mul/libgcc.a(_df_to_sf.o)
 .debug_pubnames
                0x00000ebc       0x22 /package/eda/altera/altera13.0sp1/nios2eds/bin/gnu/H-i686-pc-linux-gnu/bin/../lib/gcc/nios2-elf/4.1.2/mno-hw-mul/libgcc.a(_thenan_df.o)
 .debug_pubnames
                0x00000ede       0x24 /package/eda/altera/altera13.0sp1/nios2eds/bin/gnu/H-i686-pc-linux-gnu/bin/../lib/gcc/nios2-elf/4.1.2/mno-hw-mul/libgcc.a(_usi_to_df.o)
 .debug_pubnames
                0x00000f02       0x48 /package/eda/altera/altera13.0sp1/nios2eds/bin/gnu/H-i686-pc-linux-gnu/bin/../lib/gcc/nios2-elf/4.1.2/mno-hw-mul/libgcc.a(lib2-divmod.o)
 .debug_pubnames
                0x00000f4a       0x1f /package/eda/altera/altera13.0sp1/nios2eds/bin/gnu/H-i686-pc-linux-gnu/bin/../lib/gcc/nios2-elf/4.1.2/mno-hw-mul/libgcc.a(lib2-mul.o)
 .debug_pubnames
                0x00000f69       0x1f /package/eda/altera/altera13.0sp1/nios2eds/bin/gnu/H-i686-pc-linux-gnu/bin/../lib/gcc/nios2-elf/4.1.2/mno-hw-mul/libgcc.a(_muldi3.o)
 .debug_pubnames
                0x00000f88       0x1f /package/eda/altera/altera13.0sp1/nios2eds/bin/gnu/H-i686-pc-linux-gnu/bin/../lib/gcc/nios2-elf/4.1.2/mno-hw-mul/libgcc.a(_clzsi2.o)
 .debug_pubnames
                0x00000fa7       0x1f /package/eda/altera/altera13.0sp1/nios2eds/bin/gnu/H-i686-pc-linux-gnu/bin/../lib/gcc/nios2-elf/4.1.2/mno-hw-mul/libgcc.a(_pack_sf.o)
 .debug_pubnames
                0x00000fc6       0x21 /package/eda/altera/altera13.0sp1/nios2eds/bin/gnu/H-i686-pc-linux-gnu/bin/../lib/gcc/nios2-elf/4.1.2/mno-hw-mul/libgcc.a(_unpack_sf.o)
 .debug_pubnames
                0x00000fe7       0x20 /package/eda/altera/altera13.0sp1/nios2eds/bin/gnu/H-i686-pc-linux-gnu/bin/../lib/gcc/nios2-elf/4.1.2/mno-hw-mul/libgcc.a(_make_sf.o)
 .debug_pubnames
                0x00001007       0x1f /package/eda/altera/altera13.0sp1/nios2eds/bin/gnu/H-i686-pc-linux-gnu/bin/../lib/gcc/nios2-elf/4.1.2/mno-hw-mul/libgcc.a(_pack_df.o)
 .debug_pubnames
                0x00001026       0x21 /package/eda/altera/altera13.0sp1/nios2eds/bin/gnu/H-i686-pc-linux-gnu/bin/../lib/gcc/nios2-elf/4.1.2/mno-hw-mul/libgcc.a(_unpack_df.o)
 .debug_pubnames
                0x00001047       0x20 /package/eda/altera/altera13.0sp1/nios2eds/bin/gnu/H-i686-pc-linux-gnu/bin/../lib/gcc/nios2-elf/4.1.2/mno-hw-mul/libgcc.a(_clz.o)
 .debug_pubnames
                0x00001067       0x2e /package/eda/altera/altera13.0sp1/nios2eds/bin/gnu/H-i686-pc-linux-gnu/bin/../lib/gcc/nios2-elf/4.1.2/../../../../nios2-elf/lib/mno-hw-mul/libc.a(lib_a-ctype_.o)
 .debug_pubnames
                0x00001095       0x1b /package/eda/altera/altera13.0sp1/nios2eds/bin/gnu/H-i686-pc-linux-gnu/bin/../lib/gcc/nios2-elf/4.1.2/../../../../nios2-elf/lib/mno-hw-mul/libc.a(lib_a-exit.o)
 .debug_pubnames
                0x000010b0       0x2b /package/eda/altera/altera13.0sp1/nios2eds/bin/gnu/H-i686-pc-linux-gnu/bin/../lib/gcc/nios2-elf/4.1.2/../../../../nios2-elf/lib/mno-hw-mul/libc.a(lib_a-fclose.o)
 .debug_pubnames
                0x000010db       0x2b /package/eda/altera/altera13.0sp1/nios2eds/bin/gnu/H-i686-pc-linux-gnu/bin/../lib/gcc/nios2-elf/4.1.2/../../../../nios2-elf/lib/mno-hw-mul/libc.a(lib_a-fflush.o)
 .debug_pubnames
                0x00001106       0xdb /package/eda/altera/altera13.0sp1/nios2eds/bin/gnu/H-i686-pc-linux-gnu/bin/../lib/gcc/nios2-elf/4.1.2/../../../../nios2-elf/lib/mno-hw-mul/libc.a(lib_a-findfp.o)
 .debug_pubnames
                0x000011e1       0x29 /package/eda/altera/altera13.0sp1/nios2eds/bin/gnu/H-i686-pc-linux-gnu/bin/../lib/gcc/nios2-elf/4.1.2/../../../../nios2-elf/lib/mno-hw-mul/libc.a(lib_a-fopen.o)
 .debug_pubnames
                0x0000120a       0x2d /package/eda/altera/altera13.0sp1/nios2eds/bin/gnu/H-i686-pc-linux-gnu/bin/../lib/gcc/nios2-elf/4.1.2/../../../../nios2-elf/lib/mno-hw-mul/libc.a(lib_a-fprintf.o)
 .debug_pubnames
                0x00001237       0x29 /package/eda/altera/altera13.0sp1/nios2eds/bin/gnu/H-i686-pc-linux-gnu/bin/../lib/gcc/nios2-elf/4.1.2/../../../../nios2-elf/lib/mno-hw-mul/libc.a(lib_a-fputc.o)
 .debug_pubnames
                0x00001260       0x29 /package/eda/altera/altera13.0sp1/nios2eds/bin/gnu/H-i686-pc-linux-gnu/bin/../lib/gcc/nios2-elf/4.1.2/../../../../nios2-elf/lib/mno-hw-mul/libc.a(lib_a-fread.o)
 .debug_pubnames
                0x00001289       0x31 /package/eda/altera/altera13.0sp1/nios2eds/bin/gnu/H-i686-pc-linux-gnu/bin/../lib/gcc/nios2-elf/4.1.2/../../../../nios2-elf/lib/mno-hw-mul/libc.a(lib_a-freer.o)
 .debug_pubnames
                0x000012ba       0x29 /package/eda/altera/altera13.0sp1/nios2eds/bin/gnu/H-i686-pc-linux-gnu/bin/../lib/gcc/nios2-elf/4.1.2/../../../../nios2-elf/lib/mno-hw-mul/libc.a(lib_a-fseek.o)
 .debug_pubnames
                0x000012e3       0x1f /package/eda/altera/altera13.0sp1/nios2eds/bin/gnu/H-i686-pc-linux-gnu/bin/../lib/gcc/nios2-elf/4.1.2/../../../../nios2-elf/lib/mno-hw-mul/libc.a(lib_a-fstatr.o)
 .debug_pubnames
                0x00001302       0x2e /package/eda/altera/altera13.0sp1/nios2eds/bin/gnu/H-i686-pc-linux-gnu/bin/../lib/gcc/nios2-elf/4.1.2/../../../../nios2-elf/lib/mno-hw-mul/libc.a(lib_a-fwalk.o)
 .debug_pubnames
                0x00001330       0x2b /package/eda/altera/altera13.0sp1/nios2eds/bin/gnu/H-i686-pc-linux-gnu/bin/../lib/gcc/nios2-elf/4.1.2/../../../../nios2-elf/lib/mno-hw-mul/libc.a(lib_a-fwrite.o)
 .debug_pubnames
                0x0000135b       0x27 /package/eda/altera/altera13.0sp1/nios2eds/bin/gnu/H-i686-pc-linux-gnu/bin/../lib/gcc/nios2-elf/4.1.2/../../../../nios2-elf/lib/mno-hw-mul/libc.a(lib_a-getc.o)
 .debug_pubnames
                0x00001382       0x2a /package/eda/altera/altera13.0sp1/nios2eds/bin/gnu/H-i686-pc-linux-gnu/bin/../lib/gcc/nios2-elf/4.1.2/../../../../nios2-elf/lib/mno-hw-mul/libc.a(lib_a-getenv.o)
 .debug_pubnames
                0x000013ac       0x2f /package/eda/altera/altera13.0sp1/nios2eds/bin/gnu/H-i686-pc-linux-gnu/bin/../lib/gcc/nios2-elf/4.1.2/../../../../nios2-elf/lib/mno-hw-mul/libc.a(lib_a-getenv_r.o)
 .debug_pubnames
                0x000013db       0x39 /package/eda/altera/altera13.0sp1/nios2eds/bin/gnu/H-i686-pc-linux-gnu/bin/../lib/gcc/nios2-elf/4.1.2/../../../../nios2-elf/lib/mno-hw-mul/libc.a(lib_a-impure.o)
 .debug_pubnames
                0x00001414       0x1c /package/eda/altera/altera13.0sp1/nios2eds/bin/gnu/H-i686-pc-linux-gnu/bin/../lib/gcc/nios2-elf/4.1.2/../../../../nios2-elf/lib/mno-hw-mul/libc.a(lib_a-int_errno.o)
 .debug_pubnames
                0x00001430       0x23 /package/eda/altera/altera13.0sp1/nios2eds/bin/gnu/H-i686-pc-linux-gnu/bin/../lib/gcc/nios2-elf/4.1.2/../../../../nios2-elf/lib/mno-hw-mul/libc.a(lib_a-makebuf.o)
 .debug_pubnames
                0x00001453       0x26 /package/eda/altera/altera13.0sp1/nios2eds/bin/gnu/H-i686-pc-linux-gnu/bin/../lib/gcc/nios2-elf/4.1.2/../../../../nios2-elf/lib/mno-hw-mul/libc.a(lib_a-malloc.o)
 .debug_pubnames
                0x00001479       0xce /package/eda/altera/altera13.0sp1/nios2eds/bin/gnu/H-i686-pc-linux-gnu/bin/../lib/gcc/nios2-elf/4.1.2/../../../../nios2-elf/lib/mno-hw-mul/libc.a(lib_a-mallocr.o)
 .debug_pubnames
                0x00001547       0x1d /package/eda/altera/altera13.0sp1/nios2eds/bin/gnu/H-i686-pc-linux-gnu/bin/../lib/gcc/nios2-elf/4.1.2/../../../../nios2-elf/lib/mno-hw-mul/libc.a(lib_a-memcpy.o)
 .debug_pubnames
                0x00001564       0x1d /package/eda/altera/altera13.0sp1/nios2eds/bin/gnu/H-i686-pc-linux-gnu/bin/../lib/gcc/nios2-elf/4.1.2/../../../../nios2-elf/lib/mno-hw-mul/libc.a(lib_a-memset.o)
 .debug_pubnames
                0x00001581       0x1e /package/eda/altera/altera13.0sp1/nios2eds/bin/gnu/H-i686-pc-linux-gnu/bin/../lib/gcc/nios2-elf/4.1.2/../../../../nios2-elf/lib/mno-hw-mul/libc.a(lib_a-openr.o)
 .debug_pubnames
                0x0000159f       0x2b /package/eda/altera/altera13.0sp1/nios2eds/bin/gnu/H-i686-pc-linux-gnu/bin/../lib/gcc/nios2-elf/4.1.2/../../../../nios2-elf/lib/mno-hw-mul/libc.a(lib_a-printf.o)
 .debug_pubnames
                0x000015ca       0x27 /package/eda/altera/altera13.0sp1/nios2eds/bin/gnu/H-i686-pc-linux-gnu/bin/../lib/gcc/nios2-elf/4.1.2/../../../../nios2-elf/lib/mno-hw-mul/libc.a(lib_a-putc.o)
 .debug_pubnames
                0x000015f1       0x27 /package/eda/altera/altera13.0sp1/nios2eds/bin/gnu/H-i686-pc-linux-gnu/bin/../lib/gcc/nios2-elf/4.1.2/../../../../nios2-elf/lib/mno-hw-mul/libc.a(lib_a-puts.o)
 .debug_pubnames
                0x00001618       0x22 /package/eda/altera/altera13.0sp1/nios2eds/bin/gnu/H-i686-pc-linux-gnu/bin/../lib/gcc/nios2-elf/4.1.2/../../../../nios2-elf/lib/mno-hw-mul/libc.a(lib_a-refill.o)
 .debug_pubnames
                0x0000163a       0x2c /package/eda/altera/altera13.0sp1/nios2eds/bin/gnu/H-i686-pc-linux-gnu/bin/../lib/gcc/nios2-elf/4.1.2/../../../../nios2-elf/lib/mno-hw-mul/libc.a(lib_a-rget.o)
 .debug_pubnames
                0x00001666       0x1e /package/eda/altera/altera13.0sp1/nios2eds/bin/gnu/H-i686-pc-linux-gnu/bin/../lib/gcc/nios2-elf/4.1.2/../../../../nios2-elf/lib/mno-hw-mul/libc.a(lib_a-sbrkr.o)
 .debug_pubnames
                0x00001684       0x2d /package/eda/altera/altera13.0sp1/nios2eds/bin/gnu/H-i686-pc-linux-gnu/bin/../lib/gcc/nios2-elf/4.1.2/../../../../nios2-elf/lib/mno-hw-mul/libc.a(lib_a-sprintf.o)
 .debug_pubnames
                0x000016b1       0x2b /package/eda/altera/altera13.0sp1/nios2eds/bin/gnu/H-i686-pc-linux-gnu/bin/../lib/gcc/nios2-elf/4.1.2/../../../../nios2-elf/lib/mno-hw-mul/libc.a(lib_a-sscanf.o)
 .debug_pubnames
                0x000016dc       0x44 /package/eda/altera/altera13.0sp1/nios2eds/bin/gnu/H-i686-pc-linux-gnu/bin/../lib/gcc/nios2-elf/4.1.2/../../../../nios2-elf/lib/mno-hw-mul/libc.a(lib_a-stdio.o)
 .debug_pubnames
                0x00001720       0x1d /package/eda/altera/altera13.0sp1/nios2eds/bin/gnu/H-i686-pc-linux-gnu/bin/../lib/gcc/nios2-elf/4.1.2/../../../../nios2-elf/lib/mno-hw-mul/libc.a(lib_a-strdup.o)
 .debug_pubnames
                0x0000173d       0x20 /package/eda/altera/altera13.0sp1/nios2eds/bin/gnu/H-i686-pc-linux-gnu/bin/../lib/gcc/nios2-elf/4.1.2/../../../../nios2-elf/lib/mno-hw-mul/libc.a(lib_a-strdup_r.o)
 .debug_pubnames
                0x0000175d       0x1d /package/eda/altera/altera13.0sp1/nios2eds/bin/gnu/H-i686-pc-linux-gnu/bin/../lib/gcc/nios2-elf/4.1.2/../../../../nios2-elf/lib/mno-hw-mul/libc.a(lib_a-strlen.o)
 .debug_pubnames
                0x0000177a       0x1e /package/eda/altera/altera13.0sp1/nios2eds/bin/gnu/H-i686-pc-linux-gnu/bin/../lib/gcc/nios2-elf/4.1.2/../../../../nios2-elf/lib/mno-hw-mul/libc.a(lib_a-strncmp.o)
 .debug_pubnames
                0x00001798       0x45 /package/eda/altera/altera13.0sp1/nios2eds/bin/gnu/H-i686-pc-linux-gnu/bin/../lib/gcc/nios2-elf/4.1.2/../../../../nios2-elf/lib/mno-hw-mul/libc.a(lib_a-vfprintf.o)
 .debug_pubnames
                0x000017dd       0x4d /package/eda/altera/altera13.0sp1/nios2eds/bin/gnu/H-i686-pc-linux-gnu/bin/../lib/gcc/nios2-elf/4.1.2/../../../../nios2-elf/lib/mno-hw-mul/libc.a(lib_a-vfscanf.o)
 .debug_pubnames
                0x0000182a       0x2c /package/eda/altera/altera13.0sp1/nios2eds/bin/gnu/H-i686-pc-linux-gnu/bin/../lib/gcc/nios2-elf/4.1.2/../../../../nios2-elf/lib/mno-hw-mul/libc.a(lib_a-wbuf.o)
 .debug_pubnames
                0x00001856       0x1f /package/eda/altera/altera13.0sp1/nios2eds/bin/gnu/H-i686-pc-linux-gnu/bin/../lib/gcc/nios2-elf/4.1.2/../../../../nios2-elf/lib/mno-hw-mul/libc.a(lib_a-writer.o)
 .debug_pubnames
                0x00001875       0x22 /package/eda/altera/altera13.0sp1/nios2eds/bin/gnu/H-i686-pc-linux-gnu/bin/../lib/gcc/nios2-elf/4.1.2/../../../../nios2-elf/lib/mno-hw-mul/libc.a(lib_a-wsetup.o)
 .debug_pubnames
                0x00001897       0x27 /package/eda/altera/altera13.0sp1/nios2eds/bin/gnu/H-i686-pc-linux-gnu/bin/../lib/gcc/nios2-elf/4.1.2/../../../../nios2-elf/lib/mno-hw-mul/libc.a(lib_a-__call_atexit.o)
 .debug_pubnames
                0x000018be       0x1f /package/eda/altera/altera13.0sp1/nios2eds/bin/gnu/H-i686-pc-linux-gnu/bin/../lib/gcc/nios2-elf/4.1.2/../../../../nios2-elf/lib/mno-hw-mul/libc.a(lib_a-closer.o)
 .debug_pubnames
                0x000018dd       0x1e /package/eda/altera/altera13.0sp1/nios2eds/bin/gnu/H-i686-pc-linux-gnu/bin/../lib/gcc/nios2-elf/4.1.2/../../../../nios2-elf/lib/mno-hw-mul/libc.a(lib_a-dtoa.o)
 .debug_pubnames
                0x000018fb       0x1e /package/eda/altera/altera13.0sp1/nios2eds/bin/gnu/H-i686-pc-linux-gnu/bin/../lib/gcc/nios2-elf/4.1.2/../../../../nios2-elf/lib/mno-hw-mul/libc.a(lib_a-environ.o)
 .debug_pubnames
                0x00001919       0x1f /package/eda/altera/altera13.0sp1/nios2eds/bin/gnu/H-i686-pc-linux-gnu/bin/../lib/gcc/nios2-elf/4.1.2/../../../../nios2-elf/lib/mno-hw-mul/libc.a(lib_a-flags.o)
 .debug_pubnames
                0x00001938       0x23 /package/eda/altera/altera13.0sp1/nios2eds/bin/gnu/H-i686-pc-linux-gnu/bin/../lib/gcc/nios2-elf/4.1.2/../../../../nios2-elf/lib/mno-hw-mul/libc.a(lib_a-fvwrite.o)
 .debug_pubnames
                0x0000195b       0x20 /package/eda/altera/altera13.0sp1/nios2eds/bin/gnu/H-i686-pc-linux-gnu/bin/../lib/gcc/nios2-elf/4.1.2/../../../../nios2-elf/lib/mno-hw-mul/libc.a(lib_a-isattyr.o)
 .debug_pubnames
                0x0000197b       0x1f /package/eda/altera/altera13.0sp1/nios2eds/bin/gnu/H-i686-pc-linux-gnu/bin/../lib/gcc/nios2-elf/4.1.2/../../../../nios2-elf/lib/mno-hw-mul/libc.a(lib_a-iswspace.o)
 .debug_pubnames
                0x0000199a       0xc3 /package/eda/altera/altera13.0sp1/nios2eds/bin/gnu/H-i686-pc-linux-gnu/bin/../lib/gcc/nios2-elf/4.1.2/../../../../nios2-elf/lib/mno-hw-mul/libc.a(lib_a-locale.o)
 .debug_pubnames
                0x00001a5d       0x1f /package/eda/altera/altera13.0sp1/nios2eds/bin/gnu/H-i686-pc-linux-gnu/bin/../lib/gcc/nios2-elf/4.1.2/../../../../nios2-elf/lib/mno-hw-mul/libc.a(lib_a-lseekr.o)
 .debug_pubnames
                0x00001a7c       0x2d /package/eda/altera/altera13.0sp1/nios2eds/bin/gnu/H-i686-pc-linux-gnu/bin/../lib/gcc/nios2-elf/4.1.2/../../../../nios2-elf/lib/mno-hw-mul/libc.a(lib_a-mbrtowc.o)
 .debug_pubnames
                0x00001aa9       0x20 /package/eda/altera/altera13.0sp1/nios2eds/bin/gnu/H-i686-pc-linux-gnu/bin/../lib/gcc/nios2-elf/4.1.2/../../../../nios2-elf/lib/mno-hw-mul/libc.a(lib_a-mbtowc_r.o)
 .debug_pubnames
                0x00001ac9       0x1d /package/eda/altera/altera13.0sp1/nios2eds/bin/gnu/H-i686-pc-linux-gnu/bin/../lib/gcc/nios2-elf/4.1.2/../../../../nios2-elf/lib/mno-hw-mul/libc.a(lib_a-memchr.o)
 .debug_pubnames
                0x00001ae6       0x1e /package/eda/altera/altera13.0sp1/nios2eds/bin/gnu/H-i686-pc-linux-gnu/bin/../lib/gcc/nios2-elf/4.1.2/../../../../nios2-elf/lib/mno-hw-mul/libc.a(lib_a-memmove.o)
 .debug_pubnames
                0x00001b04      0x13a /package/eda/altera/altera13.0sp1/nios2eds/bin/gnu/H-i686-pc-linux-gnu/bin/../lib/gcc/nios2-elf/4.1.2/../../../../nios2-elf/lib/mno-hw-mul/libc.a(lib_a-mprec.o)
 .debug_pubnames
                0x00001c3e       0x1e /package/eda/altera/altera13.0sp1/nios2eds/bin/gnu/H-i686-pc-linux-gnu/bin/../lib/gcc/nios2-elf/4.1.2/../../../../nios2-elf/lib/mno-hw-mul/libc.a(lib_a-readr.o)
 .debug_pubnames
                0x00001c5c       0x21 /package/eda/altera/altera13.0sp1/nios2eds/bin/gnu/H-i686-pc-linux-gnu/bin/../lib/gcc/nios2-elf/4.1.2/../../../../nios2-elf/lib/mno-hw-mul/libc.a(lib_a-reallocr.o)
 .debug_pubnames
                0x00001c7d       0x1f /package/eda/altera/altera13.0sp1/nios2eds/bin/gnu/H-i686-pc-linux-gnu/bin/../lib/gcc/nios2-elf/4.1.2/../../../../nios2-elf/lib/mno-hw-mul/libc.a(lib_a-s_isinfd.o)
 .debug_pubnames
                0x00001c9c       0x1f /package/eda/altera/altera13.0sp1/nios2eds/bin/gnu/H-i686-pc-linux-gnu/bin/../lib/gcc/nios2-elf/4.1.2/../../../../nios2-elf/lib/mno-hw-mul/libc.a(lib_a-s_isnand.o)
 .debug_pubnames
                0x00001cbb       0x1d /package/eda/altera/altera13.0sp1/nios2eds/bin/gnu/H-i686-pc-linux-gnu/bin/../lib/gcc/nios2-elf/4.1.2/../../../../nios2-elf/lib/mno-hw-mul/libc.a(lib_a-sccl.o)
 .debug_pubnames
                0x00001cd8       0x1b /package/eda/altera/altera13.0sp1/nios2eds/bin/gnu/H-i686-pc-linux-gnu/bin/../lib/gcc/nios2-elf/4.1.2/../../../../nios2-elf/lib/mno-hw-mul/libc.a(lib_a-sf_nan.o)
 .debug_pubnames
                0x00001cf3       0x1d /package/eda/altera/altera13.0sp1/nios2eds/bin/gnu/H-i686-pc-linux-gnu/bin/../lib/gcc/nios2-elf/4.1.2/../../../../nios2-elf/lib/mno-hw-mul/libc.a(lib_a-strcmp.o)
 .debug_pubnames
                0x00001d10       0x36 /package/eda/altera/altera13.0sp1/nios2eds/bin/gnu/H-i686-pc-linux-gnu/bin/../lib/gcc/nios2-elf/4.1.2/../../../../nios2-elf/lib/mno-hw-mul/libc.a(lib_a-strtod.o)
 .debug_pubnames
                0x00001d46       0x2b /package/eda/altera/altera13.0sp1/nios2eds/bin/gnu/H-i686-pc-linux-gnu/bin/../lib/gcc/nios2-elf/4.1.2/../../../../nios2-elf/lib/mno-hw-mul/libc.a(lib_a-strtol.o)
 .debug_pubnames
                0x00001d71       0x21 /package/eda/altera/altera13.0sp1/nios2eds/bin/gnu/H-i686-pc-linux-gnu/bin/../lib/gcc/nios2-elf/4.1.2/../../../../nios2-elf/lib/mno-hw-mul/libc.a(lib_a-strtoll_r.o)
 .debug_pubnames
                0x00001d92       0x2d /package/eda/altera/altera13.0sp1/nios2eds/bin/gnu/H-i686-pc-linux-gnu/bin/../lib/gcc/nios2-elf/4.1.2/../../../../nios2-elf/lib/mno-hw-mul/libc.a(lib_a-strtoul.o)
 .debug_pubnames
                0x00001dbf       0x22 /package/eda/altera/altera13.0sp1/nios2eds/bin/gnu/H-i686-pc-linux-gnu/bin/../lib/gcc/nios2-elf/4.1.2/../../../../nios2-elf/lib/mno-hw-mul/libc.a(lib_a-strtoull_r.o)
 .debug_pubnames
                0x00001de1       0x39 /package/eda/altera/altera13.0sp1/nios2eds/bin/gnu/H-i686-pc-linux-gnu/bin/../lib/gcc/nios2-elf/4.1.2/../../../../nios2-elf/lib/mno-hw-mul/libc.a(lib_a-ungetc.o)
 .debug_pubnames
                0x00001e1a       0x20 /package/eda/altera/altera13.0sp1/nios2eds/bin/gnu/H-i686-pc-linux-gnu/bin/../lib/gcc/nios2-elf/4.1.2/../../../../nios2-elf/lib/mno-hw-mul/libc.a(lib_a-callocr.o)
 .debug_pubnames
                0x00001e3a       0x3e /package/eda/altera/altera13.0sp1/nios2eds/bin/gnu/H-i686-pc-linux-gnu/bin/../lib/gcc/nios2-elf/4.1.2/../../../../nios2-elf/lib/mno-hw-mul/libc.a(lib_a-gdtoa-gethex.o)
 .debug_pubnames
                0x00001e78       0x1f /package/eda/altera/altera13.0sp1/nios2eds/bin/gnu/H-i686-pc-linux-gnu/bin/../lib/gcc/nios2-elf/4.1.2/../../../../nios2-elf/lib/mno-hw-mul/libc.a(lib_a-gdtoa-hexnan.o)
 .debug_pubnames
                0x00001e97       0x23 /package/eda/altera/altera13.0sp1/nios2eds/bin/gnu/H-i686-pc-linux-gnu/bin/../lib/gcc/nios2-elf/4.1.2/mno-hw-mul/libgcc.a(_fixunsdfsi.o)
 .debug_pubnames
                0x00001eba       0x20 /package/eda/altera/altera13.0sp1/nios2eds/bin/gnu/H-i686-pc-linux-gnu/bin/../lib/gcc/nios2-elf/4.1.2/mno-hw-mul/libgcc.a(_udivdi3.o)
 .debug_pubnames
                0x00001eda       0x20 /package/eda/altera/altera13.0sp1/nios2eds/bin/gnu/H-i686-pc-linux-gnu/bin/../lib/gcc/nios2-elf/4.1.2/mno-hw-mul/libgcc.a(_umoddi3.o)
 .debug_pubnames
                0x00001efa       0x1e /package/eda/altera/altera13.0sp1/nios2eds/bin/gnu/H-i686-pc-linux-gnu/bin/../lib/gcc/nios2-elf/4.1.2/mno-hw-mul/libgcc.a(_ne_sf.o)
 .debug_pubnames
                0x00001f18       0x1e /package/eda/altera/altera13.0sp1/nios2eds/bin/gnu/H-i686-pc-linux-gnu/bin/../lib/gcc/nios2-elf/4.1.2/mno-hw-mul/libgcc.a(_gt_sf.o)
 .debug_pubnames
                0x00001f36       0x1e /package/eda/altera/altera13.0sp1/nios2eds/bin/gnu/H-i686-pc-linux-gnu/bin/../lib/gcc/nios2-elf/4.1.2/mno-hw-mul/libgcc.a(_lt_sf.o)
 .debug_pubnames
                0x00001f54       0x2c /package/eda/altera/altera13.0sp1/nios2eds/bin/gnu/H-i686-pc-linux-gnu/bin/../lib/gcc/nios2-elf/4.1.2/mno-hw-mul/libgcc.a(_addsub_df.o)
 .debug_pubnames
                0x00001f80       0x1e /package/eda/altera/altera13.0sp1/nios2eds/bin/gnu/H-i686-pc-linux-gnu/bin/../lib/gcc/nios2-elf/4.1.2/mno-hw-mul/libgcc.a(_eq_df.o)
 .debug_pubnames
                0x00001f9e       0x1e /package/eda/altera/altera13.0sp1/nios2eds/bin/gnu/H-i686-pc-linux-gnu/bin/../lib/gcc/nios2-elf/4.1.2/mno-hw-mul/libgcc.a(_ne_df.o)
 .debug_pubnames
                0x00001fbc       0x1e /package/eda/altera/altera13.0sp1/nios2eds/bin/gnu/H-i686-pc-linux-gnu/bin/../lib/gcc/nios2-elf/4.1.2/mno-hw-mul/libgcc.a(_gt_df.o)
 .debug_pubnames
                0x00001fda       0x1e /package/eda/altera/altera13.0sp1/nios2eds/bin/gnu/H-i686-pc-linux-gnu/bin/../lib/gcc/nios2-elf/4.1.2/mno-hw-mul/libgcc.a(_ge_df.o)
 .debug_pubnames
                0x00001ff8       0x1e /package/eda/altera/altera13.0sp1/nios2eds/bin/gnu/H-i686-pc-linux-gnu/bin/../lib/gcc/nios2-elf/4.1.2/mno-hw-mul/libgcc.a(_lt_df.o)
 .debug_pubnames
                0x00002016       0x1e /package/eda/altera/altera13.0sp1/nios2eds/bin/gnu/H-i686-pc-linux-gnu/bin/../lib/gcc/nios2-elf/4.1.2/mno-hw-mul/libgcc.a(_le_df.o)
 .debug_pubnames
                0x00002034       0x22 /package/eda/altera/altera13.0sp1/nios2eds/bin/gnu/H-i686-pc-linux-gnu/bin/../lib/gcc/nios2-elf/4.1.2/mno-hw-mul/libgcc.a(_si_to_df.o)
 .debug_pubnames
                0x00002056       0x20 /package/eda/altera/altera13.0sp1/nios2eds/bin/gnu/H-i686-pc-linux-gnu/bin/../lib/gcc/nios2-elf/4.1.2/mno-hw-mul/libgcc.a(_df_to_si.o)
 .debug_pubnames
                0x00002076       0x26 /package/eda/altera/altera13.0sp1/nios2eds/bin/gnu/H-i686-pc-linux-gnu/bin/../lib/gcc/nios2-elf/4.1.2/mno-hw-mul/libgcc.a(_fpcmp_parts_sf.o)
 .debug_pubnames
                0x0000209c       0x26 /package/eda/altera/altera13.0sp1/nios2eds/bin/gnu/H-i686-pc-linux-gnu/bin/../lib/gcc/nios2-elf/4.1.2/mno-hw-mul/libgcc.a(_fpcmp_parts_df.o)
 .debug_pubnames
                0x000020c2       0x1c ../demo_board_bsp//libhal_bsp.a(alt_close.o)
 .debug_pubnames
                0x000020de       0x63 ../demo_board_bsp//libhal_bsp.a(alt_dev.o)
 .debug_pubnames
                0x00002141       0x32 ../demo_board_bsp//libhal_bsp.a(alt_env_lock.o)
 .debug_pubnames
                0x00002173       0x20 ../demo_board_bsp//libhal_bsp.a(alt_errno.o)
 .debug_pubnames
                0x00002193       0x1c ../demo_board_bsp//libhal_bsp.a(alt_exit.o)
 .debug_pubnames
                0x000021af       0x1c ../demo_board_bsp//libhal_bsp.a(alt_fstat.o)
 .debug_pubnames
                0x000021cb       0x1d ../demo_board_bsp//libhal_bsp.a(alt_isatty.o)
 .debug_pubnames
                0x000021e8       0x1f ../demo_board_bsp//libhal_bsp.a(alt_load.o)
 .debug_pubnames
                0x00002207       0x1c ../demo_board_bsp//libhal_bsp.a(alt_lseek.o)
 .debug_pubnames
                0x00002223       0x46 ../demo_board_bsp//libhal_bsp.a(alt_main.o)
 .debug_pubnames
                0x00002269       0x38 ../demo_board_bsp//libhal_bsp.a(alt_malloc_lock.o)
 .debug_pubnames
                0x000022a1       0x1b ../demo_board_bsp//libhal_bsp.a(alt_open.o)
 .debug_pubnames
                0x000022bc       0x1b ../demo_board_bsp//libhal_bsp.a(alt_read.o)
 .debug_pubnames
                0x000022d7       0x25 ../demo_board_bsp//libhal_bsp.a(alt_release_fd.o)
 .debug_pubnames
                0x000022fc       0x1b ../demo_board_bsp//libhal_bsp.a(alt_sbrk.o)
 .debug_pubnames
                0x00002317       0x1c ../demo_board_bsp//libhal_bsp.a(alt_write.o)
 .debug_pubnames
                0x00002333       0x34 ../demo_board_bsp//libhal_bsp.a(alt_sys_init.o)
 .debug_pubnames
                0x00002367       0xac ../demo_board_bsp//libhal_bsp.a(altera_avalon_cfi_flash.o)
 .debug_pubnames
                0x00002413      0x27a ../demo_board_bsp//libhal_bsp.a(altera_avalon_cfi_flash_table.o)
 .debug_pubnames
                0x0000268d       0xa5 ../demo_board_bsp//libhal_bsp.a(altera_avalon_jtag_uart_fd.o)
 .debug_pubnames
                0x00002732       0x55 ../demo_board_bsp//libhal_bsp.a(altera_avalon_jtag_uart_init.o)
 .debug_pubnames
                0x00002787       0x34 ../demo_board_bsp//libhal_bsp.a(altera_avalon_jtag_uart_ioctl.o)
 .debug_pubnames
                0x000027bb       0x33 ../demo_board_bsp//libhal_bsp.a(altera_avalon_jtag_uart_read.o)
 .debug_pubnames
                0x000027ee       0x34 ../demo_board_bsp//libhal_bsp.a(altera_avalon_jtag_uart_write.o)
 .debug_pubnames
                0x00002822       0x96 ../demo_board_bsp//libhal_bsp.a(altera_avalon_performance_counter.o)
 .debug_pubnames
                0x000028b8       0xa3 ../demo_board_bsp//libhal_bsp.a(altera_ro_zipfs.o)
 .debug_pubnames
                0x0000295b      0x1f1 ../demo_board_bsp//libhal_bsp.a(altera_up_avalon_video_pixel_buffer_dma.o)
 .debug_pubnames
                0x00002b4c       0x32 ../demo_board_bsp//libhal_bsp.a(perf_print_formatted_report.o)
 .debug_pubnames
                0x00002b7e       0x26 ../demo_board_bsp//libhal_bsp.a(alt_alarm_start.o)
 .debug_pubnames
                0x00002ba4       0x27 ../demo_board_bsp//libhal_bsp.a(alt_dcache_flush.o)
 .debug_pubnames
                0x00002bcb       0x2b ../demo_board_bsp//libhal_bsp.a(alt_dcache_flush_all.o)
 .debug_pubnames
                0x00002bf6       0x2b ../demo_board_bsp//libhal_bsp.a(alt_dev_llist_insert.o)
 .debug_pubnames
                0x00002c21       0x20 ../demo_board_bsp//libhal_bsp.a(alt_do_ctors.o)
 .debug_pubnames
                0x00002c41       0x20 ../demo_board_bsp//libhal_bsp.a(alt_do_dtors.o)
 .debug_pubnames
                0x00002c61       0x23 ../demo_board_bsp//libhal_bsp.a(alt_find_dev.o)
 .debug_pubnames
                0x00002c84       0x24 ../demo_board_bsp//libhal_bsp.a(alt_find_file.o)
 .debug_pubnames
                0x00002ca8       0x58 ../demo_board_bsp//libhal_bsp.a(alt_flash_dev.o)
 .debug_pubnames
                0x00002d00       0x21 ../demo_board_bsp//libhal_bsp.a(alt_fs_reg.o)
 .debug_pubnames
                0x00002d21       0x21 ../demo_board_bsp//libhal_bsp.a(alt_get_fd.o)
 .debug_pubnames
                0x00002d42       0x2b ../demo_board_bsp//libhal_bsp.a(alt_icache_flush_all.o)
 .debug_pubnames
                0x00002d6d       0x6e ../demo_board_bsp//libhal_bsp.a(alt_iic.o)
 .debug_pubnames
                0x00002ddb       0x2b ../demo_board_bsp//libhal_bsp.a(alt_iic_isr_register.o)
 .debug_pubnames
                0x00002e06       0x26 ../demo_board_bsp//libhal_bsp.a(alt_io_redirect.o)
 .debug_pubnames
                0x00002e2c       0x32 ../demo_board_bsp//libhal_bsp.a(alt_irq_handler.o)
 .debug_pubnames
                0x00002e5e       0x3b ../demo_board_bsp//libhal_bsp.a(alt_irq_vars.o)
 .debug_pubnames
                0x00002e99       0x68 ../demo_board_bsp//libhal_bsp.a(alt_tick.o)
 .debug_pubnames
                0x00002f01       0x31 ../demo_board_bsp//libhal_bsp.a(altera_nios2_qsys_irq.o)
 .debug_pubnames
                0x00002f32       0x3e ../demo_board_bsp//libhal_bsp.a(altera_avalon_cfi_flash_amd.o)
 .debug_pubnames
                0x00002f70       0x42 ../demo_board_bsp//libhal_bsp.a(altera_avalon_cfi_flash_intel.o)
 .debug_pubnames
                0x00002fb2       0x1d ../demo_board_bsp//libhal_bsp.a(alt_usleep.o)
 .debug_pubnames
                0x00002fcf       0x25 ../demo_board_bsp//libhal_bsp.a(alt_busy_sleep.o)
 .debug_pubnames
                0x00002ff4       0x2a /package/eda/altera/altera13.0sp1/nios2eds/bin/gnu/H-i686-pc-linux-gnu/bin/../lib/gcc/nios2-elf/4.1.2/../../../../nios2-elf/lib/mno-hw-mul/libc.a(lib_a-atexit.o)
 .debug_pubnames
                0x0000301e       0x1d /package/eda/altera/altera13.0sp1/nios2eds/bin/gnu/H-i686-pc-linux-gnu/bin/../lib/gcc/nios2-elf/4.1.2/../../../../nios2-elf/lib/mno-hw-mul/libc.a(lib_a-memcmp.o)
 .debug_pubnames
                0x0000303b       0x2a /package/eda/altera/altera13.0sp1/nios2eds/bin/gnu/H-i686-pc-linux-gnu/bin/../lib/gcc/nios2-elf/4.1.2/../../../../nios2-elf/lib/mno-hw-mul/libc.a(lib_a-__atexit.o)
 .debug_pubnames
                0x00003065       0x24 /package/eda/altera/altera13.0sp1/nios2eds/bin/gnu/H-i686-pc-linux-gnu/bin/../lib/gcc/nios2-elf/4.1.2/mno-hw-mul/libgcc.a(_floatundidf.o)
 .debug_pubnames
                0x00003089       0x25 /package/eda/altera/altera13.0sp1/nios2eds/bin/gnu/H-i686-pc-linux-gnu/bin/../lib/gcc/nios2-elf/4.1.2/mno-hw-mul/libgcc.a(lib2-divtable.o)

.debug_info     0x00000000    0x862e4
 *(.debug_info .gnu.linkonce.wi.*)
 .debug_info    0x00000000       0x68 ../demo_board_bsp//obj/HAL/src/crt0.o
 .debug_info    0x00000068      0xa12 obj/default/cdjpeg.o
 .debug_info    0x00000a7a     0x22ed obj/default/djpeg.o
 .debug_info    0x00002d67     0x1293 obj/default/jcapimin.o
 .debug_info    0x00003ffa     0x11bf obj/default/jcapistd.o
 .debug_info    0x000051b9     0x159a obj/default/jccoefct.o
 .debug_info    0x00006753     0x160e obj/default/jccolor.o
 .debug_info    0x00007d61     0x15b0 obj/default/jcdctmgr.o
 .debug_info    0x00009311     0x1c57 obj/default/jchuff.o
 .debug_info    0x0000af68     0x10f1 obj/default/jcinit.o
 .debug_info    0x0000c059     0x1259 obj/default/jcmainct.o
 .debug_info    0x0000d2b2     0x1753 obj/default/jcmarker.o
 .debug_info    0x0000ea05     0x14ea obj/default/jcmaster.o
 .debug_info    0x0000feef      0x6fa obj/default/jcomapi.o
 .debug_info    0x000105e9     0x165f obj/default/jcparam.o
 .debug_info    0x00011c48     0x1df1 obj/default/jcphuff.o
 .debug_info    0x00013a39     0x14c4 obj/default/jcprepct.o
 .debug_info    0x00014efd     0x1846 obj/default/jcsample.o
 .debug_info    0x00016743     0x1f8a obj/default/jctrans.o
 .debug_info    0x000186cd     0x1607 obj/default/jdapimin.o
 .debug_info    0x00019cd4     0x14fb obj/default/jdapistd.o
 .debug_info    0x0001b1cf     0x1a99 obj/default/jdatadst.o
 .debug_info    0x0001cc68     0x1d63 obj/default/jdatasrc.o
 .debug_info    0x0001e9cb     0x1bf7 obj/default/jdcoefct.o
 .debug_info    0x000205c2     0x1854 obj/default/jdcolor.o
 .debug_info    0x00021e16     0x1569 obj/default/jddctmgr.o
 .debug_info    0x0002337f     0x1aea obj/default/jdhuff.o
 .debug_info    0x00024e69     0x15fd obj/default/jdinput.o
 .debug_info    0x00026466     0x195c obj/default/jdmainct.o
 .debug_info    0x00027dc2     0x1df3 obj/default/jdmarker.o
 .debug_info    0x00029bb5     0x1622 obj/default/jdmaster.o
 .debug_info    0x0002b1d7     0x192f obj/default/jdmerge.o
 .debug_info    0x0002cb06     0x1c06 obj/default/jdphuff.o
 .debug_info    0x0002e70c     0x1661 obj/default/jdpostct.o
 .debug_info    0x0002fd6d     0x1a90 obj/default/jdsample.o
 .debug_info    0x000317fd     0x13e7 obj/default/jdtrans.o
 .debug_info    0x00032be4      0xfa7 obj/default/jerror.o
 .debug_info    0x00033b8b      0x1e5 obj/default/jfdctflt.o
 .debug_info    0x00033d70      0x1f0 obj/default/jfdctfst.o
 .debug_info    0x00033f60      0x1dd obj/default/jfdctint.o
 .debug_info    0x0003413d     0x1561 obj/default/jidctflt.o
 .debug_info    0x0003569e     0x157a obj/default/jidctfst.o
 .debug_info    0x00036c18     0x1536 obj/default/jidctint.o
 .debug_info    0x0003814e     0x16d5 obj/default/jidctred.o
 .debug_info    0x00039823     0x1b34 obj/default/jmemmgr.o
 .debug_info    0x0003b357     0x1083 obj/default/jmemnobs.o
 .debug_info    0x0003c3da     0x20a7 obj/default/jquant1.o
 .debug_info    0x0003e481     0x2594 obj/default/jquant2.o
 .debug_info    0x00040a15      0x2bb obj/default/jutils.o
 .debug_info    0x00040cd0     0x1eee obj/default/rdcolmap.o
 .debug_info    0x00042bbe     0x2219 obj/default/wrbmp.o
 .debug_info    0x00044dd7     0x21d6 obj/default/wrgif.o
 .debug_info    0x00046fad     0x2048 obj/default/wrppm.o
 .debug_info    0x00048ff5       0x81 obj/default/wrrle.o
 .debug_info    0x00049076     0x1fa5 obj/default/wrtarga.o
 .debug_info    0x0004b01b      0x47f /package/eda/altera/altera13.0sp1/nios2eds/bin/gnu/H-i686-pc-linux-gnu/bin/../lib/gcc/nios2-elf/4.1.2/mno-hw-mul/libgcc.a(_addsub_sf.o)
 .debug_info    0x0004b49a      0x3d4 /package/eda/altera/altera13.0sp1/nios2eds/bin/gnu/H-i686-pc-linux-gnu/bin/../lib/gcc/nios2-elf/4.1.2/mno-hw-mul/libgcc.a(_mul_sf.o)
 .debug_info    0x0004b86e      0x214 /package/eda/altera/altera13.0sp1/nios2eds/bin/gnu/H-i686-pc-linux-gnu/bin/../lib/gcc/nios2-elf/4.1.2/mno-hw-mul/libgcc.a(_si_to_sf.o)
 .debug_info    0x0004ba82      0x2c1 /package/eda/altera/altera13.0sp1/nios2eds/bin/gnu/H-i686-pc-linux-gnu/bin/../lib/gcc/nios2-elf/4.1.2/mno-hw-mul/libgcc.a(_sf_to_si.o)
 .debug_info    0x0004bd43      0x164 /package/eda/altera/altera13.0sp1/nios2eds/bin/gnu/H-i686-pc-linux-gnu/bin/../lib/gcc/nios2-elf/4.1.2/mno-hw-mul/libgcc.a(_thenan_sf.o)
 .debug_info    0x0004bea7      0x488 /package/eda/altera/altera13.0sp1/nios2eds/bin/gnu/H-i686-pc-linux-gnu/bin/../lib/gcc/nios2-elf/4.1.2/mno-hw-mul/libgcc.a(_mul_df.o)
 .debug_info    0x0004c32f      0x39b /package/eda/altera/altera13.0sp1/nios2eds/bin/gnu/H-i686-pc-linux-gnu/bin/../lib/gcc/nios2-elf/4.1.2/mno-hw-mul/libgcc.a(_div_df.o)
 .debug_info    0x0004c6ca      0x261 /package/eda/altera/altera13.0sp1/nios2eds/bin/gnu/H-i686-pc-linux-gnu/bin/../lib/gcc/nios2-elf/4.1.2/mno-hw-mul/libgcc.a(_df_to_sf.o)
 .debug_info    0x0004c92b      0x164 /package/eda/altera/altera13.0sp1/nios2eds/bin/gnu/H-i686-pc-linux-gnu/bin/../lib/gcc/nios2-elf/4.1.2/mno-hw-mul/libgcc.a(_thenan_df.o)
 .debug_info    0x0004ca8f      0x213 /package/eda/altera/altera13.0sp1/nios2eds/bin/gnu/H-i686-pc-linux-gnu/bin/../lib/gcc/nios2-elf/4.1.2/mno-hw-mul/libgcc.a(_usi_to_df.o)
 .debug_info    0x0004cca2      0x21c /package/eda/altera/altera13.0sp1/nios2eds/bin/gnu/H-i686-pc-linux-gnu/bin/../lib/gcc/nios2-elf/4.1.2/mno-hw-mul/libgcc.a(lib2-divmod.o)
 .debug_info    0x0004cebe       0xf3 /package/eda/altera/altera13.0sp1/nios2eds/bin/gnu/H-i686-pc-linux-gnu/bin/../lib/gcc/nios2-elf/4.1.2/mno-hw-mul/libgcc.a(lib2-mul.o)
 .debug_info    0x0004cfb1      0x210 /package/eda/altera/altera13.0sp1/nios2eds/bin/gnu/H-i686-pc-linux-gnu/bin/../lib/gcc/nios2-elf/4.1.2/mno-hw-mul/libgcc.a(_muldi3.o)
 .debug_info    0x0004d1c1      0x130 /package/eda/altera/altera13.0sp1/nios2eds/bin/gnu/H-i686-pc-linux-gnu/bin/../lib/gcc/nios2-elf/4.1.2/mno-hw-mul/libgcc.a(_clzsi2.o)
 .debug_info    0x0004d2f1      0x2f2 /package/eda/altera/altera13.0sp1/nios2eds/bin/gnu/H-i686-pc-linux-gnu/bin/../lib/gcc/nios2-elf/4.1.2/mno-hw-mul/libgcc.a(_pack_sf.o)
 .debug_info    0x0004d5e3      0x25a /package/eda/altera/altera13.0sp1/nios2eds/bin/gnu/H-i686-pc-linux-gnu/bin/../lib/gcc/nios2-elf/4.1.2/mno-hw-mul/libgcc.a(_unpack_sf.o)
 .debug_info    0x0004d83d      0x1d7 /package/eda/altera/altera13.0sp1/nios2eds/bin/gnu/H-i686-pc-linux-gnu/bin/../lib/gcc/nios2-elf/4.1.2/mno-hw-mul/libgcc.a(_make_sf.o)
 .debug_info    0x0004da14      0x2fc /package/eda/altera/altera13.0sp1/nios2eds/bin/gnu/H-i686-pc-linux-gnu/bin/../lib/gcc/nios2-elf/4.1.2/mno-hw-mul/libgcc.a(_pack_df.o)
 .debug_info    0x0004dd10      0x268 /package/eda/altera/altera13.0sp1/nios2eds/bin/gnu/H-i686-pc-linux-gnu/bin/../lib/gcc/nios2-elf/4.1.2/mno-hw-mul/libgcc.a(_unpack_df.o)
 .debug_info    0x0004df78       0xc9 /package/eda/altera/altera13.0sp1/nios2eds/bin/gnu/H-i686-pc-linux-gnu/bin/../lib/gcc/nios2-elf/4.1.2/mno-hw-mul/libgcc.a(_clz.o)
 .debug_info    0x0004e041       0xa0 /package/eda/altera/altera13.0sp1/nios2eds/bin/gnu/H-i686-pc-linux-gnu/bin/../lib/gcc/nios2-elf/4.1.2/../../../../nios2-elf/lib/mno-hw-mul/libc.a(lib_a-ctype_.o)
 .debug_info    0x0004e0e1      0x93f /package/eda/altera/altera13.0sp1/nios2eds/bin/gnu/H-i686-pc-linux-gnu/bin/../lib/gcc/nios2-elf/4.1.2/../../../../nios2-elf/lib/mno-hw-mul/libc.a(lib_a-exit.o)
 .debug_info    0x0004ea20      0x994 /package/eda/altera/altera13.0sp1/nios2eds/bin/gnu/H-i686-pc-linux-gnu/bin/../lib/gcc/nios2-elf/4.1.2/../../../../nios2-elf/lib/mno-hw-mul/libc.a(lib_a-fclose.o)
 .debug_info    0x0004f3b4      0x9fe /package/eda/altera/altera13.0sp1/nios2eds/bin/gnu/H-i686-pc-linux-gnu/bin/../lib/gcc/nios2-elf/4.1.2/../../../../nios2-elf/lib/mno-hw-mul/libc.a(lib_a-fflush.o)
 .debug_info    0x0004fdb2      0xb72 /package/eda/altera/altera13.0sp1/nios2eds/bin/gnu/H-i686-pc-linux-gnu/bin/../lib/gcc/nios2-elf/4.1.2/../../../../nios2-elf/lib/mno-hw-mul/libc.a(lib_a-findfp.o)
 .debug_info    0x00050924      0x9e0 /package/eda/altera/altera13.0sp1/nios2eds/bin/gnu/H-i686-pc-linux-gnu/bin/../lib/gcc/nios2-elf/4.1.2/../../../../nios2-elf/lib/mno-hw-mul/libc.a(lib_a-fopen.o)
 .debug_info    0x00051304      0x9e1 /package/eda/altera/altera13.0sp1/nios2eds/bin/gnu/H-i686-pc-linux-gnu/bin/../lib/gcc/nios2-elf/4.1.2/../../../../nios2-elf/lib/mno-hw-mul/libc.a(lib_a-fprintf.o)
 .debug_info    0x00051ce5      0x9bd /package/eda/altera/altera13.0sp1/nios2eds/bin/gnu/H-i686-pc-linux-gnu/bin/../lib/gcc/nios2-elf/4.1.2/../../../../nios2-elf/lib/mno-hw-mul/libc.a(lib_a-fputc.o)
 .debug_info    0x000526a2      0xa77 /package/eda/altera/altera13.0sp1/nios2eds/bin/gnu/H-i686-pc-linux-gnu/bin/../lib/gcc/nios2-elf/4.1.2/../../../../nios2-elf/lib/mno-hw-mul/libc.a(lib_a-fread.o)
 .debug_info    0x00053119      0xbc9 /package/eda/altera/altera13.0sp1/nios2eds/bin/gnu/H-i686-pc-linux-gnu/bin/../lib/gcc/nios2-elf/4.1.2/../../../../nios2-elf/lib/mno-hw-mul/libc.a(lib_a-freer.o)
 .debug_info    0x00053ce2      0xbdc /package/eda/altera/altera13.0sp1/nios2eds/bin/gnu/H-i686-pc-linux-gnu/bin/../lib/gcc/nios2-elf/4.1.2/../../../../nios2-elf/lib/mno-hw-mul/libc.a(lib_a-fseek.o)
 .debug_info    0x000548be      0xafc /package/eda/altera/altera13.0sp1/nios2eds/bin/gnu/H-i686-pc-linux-gnu/bin/../lib/gcc/nios2-elf/4.1.2/../../../../nios2-elf/lib/mno-hw-mul/libc.a(lib_a-fstatr.o)
 .debug_info    0x000553ba      0xaed /package/eda/altera/altera13.0sp1/nios2eds/bin/gnu/H-i686-pc-linux-gnu/bin/../lib/gcc/nios2-elf/4.1.2/../../../../nios2-elf/lib/mno-hw-mul/libc.a(lib_a-fwalk.o)
 .debug_info    0x00055ea7      0xa83 /package/eda/altera/altera13.0sp1/nios2eds/bin/gnu/H-i686-pc-linux-gnu/bin/../lib/gcc/nios2-elf/4.1.2/../../../../nios2-elf/lib/mno-hw-mul/libc.a(lib_a-fwrite.o)
 .debug_info    0x0005692a      0x9a7 /package/eda/altera/altera13.0sp1/nios2eds/bin/gnu/H-i686-pc-linux-gnu/bin/../lib/gcc/nios2-elf/4.1.2/../../../../nios2-elf/lib/mno-hw-mul/libc.a(lib_a-getc.o)
 .debug_info    0x000572d1      0x98c /package/eda/altera/altera13.0sp1/nios2eds/bin/gnu/H-i686-pc-linux-gnu/bin/../lib/gcc/nios2-elf/4.1.2/../../../../nios2-elf/lib/mno-hw-mul/libc.a(lib_a-getenv.o)
 .debug_info    0x00057c5d      0x9f0 /package/eda/altera/altera13.0sp1/nios2eds/bin/gnu/H-i686-pc-linux-gnu/bin/../lib/gcc/nios2-elf/4.1.2/../../../../nios2-elf/lib/mno-hw-mul/libc.a(lib_a-getenv_r.o)
 .debug_info    0x0005864d      0x93d /package/eda/altera/altera13.0sp1/nios2eds/bin/gnu/H-i686-pc-linux-gnu/bin/../lib/gcc/nios2-elf/4.1.2/../../../../nios2-elf/lib/mno-hw-mul/libc.a(lib_a-impure.o)
 .debug_info    0x00058f8a       0x8c /package/eda/altera/altera13.0sp1/nios2eds/bin/gnu/H-i686-pc-linux-gnu/bin/../lib/gcc/nios2-elf/4.1.2/../../../../nios2-elf/lib/mno-hw-mul/libc.a(lib_a-int_errno.o)
 .debug_info    0x00059016      0xb1a /package/eda/altera/altera13.0sp1/nios2eds/bin/gnu/H-i686-pc-linux-gnu/bin/../lib/gcc/nios2-elf/4.1.2/../../../../nios2-elf/lib/mno-hw-mul/libc.a(lib_a-makebuf.o)
 .debug_info    0x00059b30      0x96e /package/eda/altera/altera13.0sp1/nios2eds/bin/gnu/H-i686-pc-linux-gnu/bin/../lib/gcc/nios2-elf/4.1.2/../../../../nios2-elf/lib/mno-hw-mul/libc.a(lib_a-malloc.o)
 .debug_info    0x0005a49e      0xcd0 /package/eda/altera/altera13.0sp1/nios2eds/bin/gnu/H-i686-pc-linux-gnu/bin/../lib/gcc/nios2-elf/4.1.2/../../../../nios2-elf/lib/mno-hw-mul/libc.a(lib_a-mallocr.o)
 .debug_info    0x0005b16e      0x106 /package/eda/altera/altera13.0sp1/nios2eds/bin/gnu/H-i686-pc-linux-gnu/bin/../lib/gcc/nios2-elf/4.1.2/../../../../nios2-elf/lib/mno-hw-mul/libc.a(lib_a-memcpy.o)
 .debug_info    0x0005b274      0x113 /package/eda/altera/altera13.0sp1/nios2eds/bin/gnu/H-i686-pc-linux-gnu/bin/../lib/gcc/nios2-elf/4.1.2/../../../../nios2-elf/lib/mno-hw-mul/libc.a(lib_a-memset.o)
 .debug_info    0x0005b387      0x977 /package/eda/altera/altera13.0sp1/nios2eds/bin/gnu/H-i686-pc-linux-gnu/bin/../lib/gcc/nios2-elf/4.1.2/../../../../nios2-elf/lib/mno-hw-mul/libc.a(lib_a-openr.o)
 .debug_info    0x0005bcfe      0x9d1 /package/eda/altera/altera13.0sp1/nios2eds/bin/gnu/H-i686-pc-linux-gnu/bin/../lib/gcc/nios2-elf/4.1.2/../../../../nios2-elf/lib/mno-hw-mul/libc.a(lib_a-printf.o)
 .debug_info    0x0005c6cf      0x9c1 /package/eda/altera/altera13.0sp1/nios2eds/bin/gnu/H-i686-pc-linux-gnu/bin/../lib/gcc/nios2-elf/4.1.2/../../../../nios2-elf/lib/mno-hw-mul/libc.a(lib_a-putc.o)
 .debug_info    0x0005d090      0xa25 /package/eda/altera/altera13.0sp1/nios2eds/bin/gnu/H-i686-pc-linux-gnu/bin/../lib/gcc/nios2-elf/4.1.2/../../../../nios2-elf/lib/mno-hw-mul/libc.a(lib_a-puts.o)
 .debug_info    0x0005dab5      0x98b /package/eda/altera/altera13.0sp1/nios2eds/bin/gnu/H-i686-pc-linux-gnu/bin/../lib/gcc/nios2-elf/4.1.2/../../../../nios2-elf/lib/mno-hw-mul/libc.a(lib_a-refill.o)
 .debug_info    0x0005e440      0x987 /package/eda/altera/altera13.0sp1/nios2eds/bin/gnu/H-i686-pc-linux-gnu/bin/../lib/gcc/nios2-elf/4.1.2/../../../../nios2-elf/lib/mno-hw-mul/libc.a(lib_a-rget.o)
 .debug_info    0x0005edc7      0x962 /package/eda/altera/altera13.0sp1/nios2eds/bin/gnu/H-i686-pc-linux-gnu/bin/../lib/gcc/nios2-elf/4.1.2/../../../../nios2-elf/lib/mno-hw-mul/libc.a(lib_a-sbrkr.o)
 .debug_info    0x0005f729      0xa16 /package/eda/altera/altera13.0sp1/nios2eds/bin/gnu/H-i686-pc-linux-gnu/bin/../lib/gcc/nios2-elf/4.1.2/../../../../nios2-elf/lib/mno-hw-mul/libc.a(lib_a-sprintf.o)
 .debug_info    0x0006013f      0xa6a /package/eda/altera/altera13.0sp1/nios2eds/bin/gnu/H-i686-pc-linux-gnu/bin/../lib/gcc/nios2-elf/4.1.2/../../../../nios2-elf/lib/mno-hw-mul/libc.a(lib_a-sscanf.o)
 .debug_info    0x00060ba9      0xaac /package/eda/altera/altera13.0sp1/nios2eds/bin/gnu/H-i686-pc-linux-gnu/bin/../lib/gcc/nios2-elf/4.1.2/../../../../nios2-elf/lib/mno-hw-mul/libc.a(lib_a-stdio.o)
 .debug_info    0x00061655      0x93c /package/eda/altera/altera13.0sp1/nios2eds/bin/gnu/H-i686-pc-linux-gnu/bin/../lib/gcc/nios2-elf/4.1.2/../../../../nios2-elf/lib/mno-hw-mul/libc.a(lib_a-strdup.o)
 .debug_info    0x00061f91      0x964 /package/eda/altera/altera13.0sp1/nios2eds/bin/gnu/H-i686-pc-linux-gnu/bin/../lib/gcc/nios2-elf/4.1.2/../../../../nios2-elf/lib/mno-hw-mul/libc.a(lib_a-strdup_r.o)
 .debug_info    0x000628f5       0xdb /package/eda/altera/altera13.0sp1/nios2eds/bin/gnu/H-i686-pc-linux-gnu/bin/../lib/gcc/nios2-elf/4.1.2/../../../../nios2-elf/lib/mno-hw-mul/libc.a(lib_a-strlen.o)
 .debug_info    0x000629d0       0xf5 /package/eda/altera/altera13.0sp1/nios2eds/bin/gnu/H-i686-pc-linux-gnu/bin/../lib/gcc/nios2-elf/4.1.2/../../../../nios2-elf/lib/mno-hw-mul/libc.a(lib_a-strncmp.o)
 .debug_info    0x00062ac5     0x10d5 /package/eda/altera/altera13.0sp1/nios2eds/bin/gnu/H-i686-pc-linux-gnu/bin/../lib/gcc/nios2-elf/4.1.2/../../../../nios2-elf/lib/mno-hw-mul/libc.a(lib_a-vfprintf.o)
 .debug_info    0x00063b9a      0xe8c /package/eda/altera/altera13.0sp1/nios2eds/bin/gnu/H-i686-pc-linux-gnu/bin/../lib/gcc/nios2-elf/4.1.2/../../../../nios2-elf/lib/mno-hw-mul/libc.a(lib_a-vfscanf.o)
 .debug_info    0x00064a26      0x9ae /package/eda/altera/altera13.0sp1/nios2eds/bin/gnu/H-i686-pc-linux-gnu/bin/../lib/gcc/nios2-elf/4.1.2/../../../../nios2-elf/lib/mno-hw-mul/libc.a(lib_a-wbuf.o)
 .debug_info    0x000653d4      0x993 /package/eda/altera/altera13.0sp1/nios2eds/bin/gnu/H-i686-pc-linux-gnu/bin/../lib/gcc/nios2-elf/4.1.2/../../../../nios2-elf/lib/mno-hw-mul/libc.a(lib_a-writer.o)
 .debug_info    0x00065d67      0x95d /package/eda/altera/altera13.0sp1/nios2eds/bin/gnu/H-i686-pc-linux-gnu/bin/../lib/gcc/nios2-elf/4.1.2/../../../../nios2-elf/lib/mno-hw-mul/libc.a(lib_a-wsetup.o)
 .debug_info    0x000666c4      0x9e2 /package/eda/altera/altera13.0sp1/nios2eds/bin/gnu/H-i686-pc-linux-gnu/bin/../lib/gcc/nios2-elf/4.1.2/../../../../nios2-elf/lib/mno-hw-mul/libc.a(lib_a-__call_atexit.o)
 .debug_info    0x000670a6      0x958 /package/eda/altera/altera13.0sp1/nios2eds/bin/gnu/H-i686-pc-linux-gnu/bin/../lib/gcc/nios2-elf/4.1.2/../../../../nios2-elf/lib/mno-hw-mul/libc.a(lib_a-closer.o)
 .debug_info    0x000679fe      0xd6f /package/eda/altera/altera13.0sp1/nios2eds/bin/gnu/H-i686-pc-linux-gnu/bin/../lib/gcc/nios2-elf/4.1.2/../../../../nios2-elf/lib/mno-hw-mul/libc.a(lib_a-dtoa.o)
 .debug_info    0x0006876d       0x73 /package/eda/altera/altera13.0sp1/nios2eds/bin/gnu/H-i686-pc-linux-gnu/bin/../lib/gcc/nios2-elf/4.1.2/../../../../nios2-elf/lib/mno-hw-mul/libc.a(lib_a-environ.o)
 .debug_info    0x000687e0      0x977 /package/eda/altera/altera13.0sp1/nios2eds/bin/gnu/H-i686-pc-linux-gnu/bin/../lib/gcc/nios2-elf/4.1.2/../../../../nios2-elf/lib/mno-hw-mul/libc.a(lib_a-flags.o)
 .debug_info    0x00069157      0xa88 /package/eda/altera/altera13.0sp1/nios2eds/bin/gnu/H-i686-pc-linux-gnu/bin/../lib/gcc/nios2-elf/4.1.2/../../../../nios2-elf/lib/mno-hw-mul/libc.a(lib_a-fvwrite.o)
 .debug_info    0x00069bdf      0x958 /package/eda/altera/altera13.0sp1/nios2eds/bin/gnu/H-i686-pc-linux-gnu/bin/../lib/gcc/nios2-elf/4.1.2/../../../../nios2-elf/lib/mno-hw-mul/libc.a(lib_a-isattyr.o)
 .debug_info    0x0006a537       0xed /package/eda/altera/altera13.0sp1/nios2eds/bin/gnu/H-i686-pc-linux-gnu/bin/../lib/gcc/nios2-elf/4.1.2/../../../../nios2-elf/lib/mno-hw-mul/libc.a(lib_a-iswspace.o)
 .debug_info    0x0006a624      0xb97 /package/eda/altera/altera13.0sp1/nios2eds/bin/gnu/H-i686-pc-linux-gnu/bin/../lib/gcc/nios2-elf/4.1.2/../../../../nios2-elf/lib/mno-hw-mul/libc.a(lib_a-locale.o)
 .debug_info    0x0006b1bb      0x981 /package/eda/altera/altera13.0sp1/nios2eds/bin/gnu/H-i686-pc-linux-gnu/bin/../lib/gcc/nios2-elf/4.1.2/../../../../nios2-elf/lib/mno-hw-mul/libc.a(lib_a-lseekr.o)
 .debug_info    0x0006bb3c      0xa07 /package/eda/altera/altera13.0sp1/nios2eds/bin/gnu/H-i686-pc-linux-gnu/bin/../lib/gcc/nios2-elf/4.1.2/../../../../nios2-elf/lib/mno-hw-mul/libc.a(lib_a-mbrtowc.o)
 .debug_info    0x0006c543      0x9a2 /package/eda/altera/altera13.0sp1/nios2eds/bin/gnu/H-i686-pc-linux-gnu/bin/../lib/gcc/nios2-elf/4.1.2/../../../../nios2-elf/lib/mno-hw-mul/libc.a(lib_a-mbtowc_r.o)
 .debug_info    0x0006cee5      0x138 /package/eda/altera/altera13.0sp1/nios2eds/bin/gnu/H-i686-pc-linux-gnu/bin/../lib/gcc/nios2-elf/4.1.2/../../../../nios2-elf/lib/mno-hw-mul/libc.a(lib_a-memchr.o)
 .debug_info    0x0006d01d      0x13e /package/eda/altera/altera13.0sp1/nios2eds/bin/gnu/H-i686-pc-linux-gnu/bin/../lib/gcc/nios2-elf/4.1.2/../../../../nios2-elf/lib/mno-hw-mul/libc.a(lib_a-memmove.o)
 .debug_info    0x0006d15b     0x143b /package/eda/altera/altera13.0sp1/nios2eds/bin/gnu/H-i686-pc-linux-gnu/bin/../lib/gcc/nios2-elf/4.1.2/../../../../nios2-elf/lib/mno-hw-mul/libc.a(lib_a-mprec.o)
 .debug_info    0x0006e596      0x98c /package/eda/altera/altera13.0sp1/nios2eds/bin/gnu/H-i686-pc-linux-gnu/bin/../lib/gcc/nios2-elf/4.1.2/../../../../nios2-elf/lib/mno-hw-mul/libc.a(lib_a-readr.o)
 .debug_info    0x0006ef22      0xbd7 /package/eda/altera/altera13.0sp1/nios2eds/bin/gnu/H-i686-pc-linux-gnu/bin/../lib/gcc/nios2-elf/4.1.2/../../../../nios2-elf/lib/mno-hw-mul/libc.a(lib_a-reallocr.o)
 .debug_info    0x0006faf9       0xd7 /package/eda/altera/altera13.0sp1/nios2eds/bin/gnu/H-i686-pc-linux-gnu/bin/../lib/gcc/nios2-elf/4.1.2/../../../../nios2-elf/lib/mno-hw-mul/libc.a(lib_a-s_isinfd.o)
 .debug_info    0x0006fbd0       0xd5 /package/eda/altera/altera13.0sp1/nios2eds/bin/gnu/H-i686-pc-linux-gnu/bin/../lib/gcc/nios2-elf/4.1.2/../../../../nios2-elf/lib/mno-hw-mul/libc.a(lib_a-s_isnand.o)
 .debug_info    0x0006fca5       0xfb /package/eda/altera/altera13.0sp1/nios2eds/bin/gnu/H-i686-pc-linux-gnu/bin/../lib/gcc/nios2-elf/4.1.2/../../../../nios2-elf/lib/mno-hw-mul/libc.a(lib_a-sccl.o)
 .debug_info    0x0006fda0       0xc8 /package/eda/altera/altera13.0sp1/nios2eds/bin/gnu/H-i686-pc-linux-gnu/bin/../lib/gcc/nios2-elf/4.1.2/../../../../nios2-elf/lib/mno-hw-mul/libc.a(lib_a-sf_nan.o)
 .debug_info    0x0006fe68       0xdd /package/eda/altera/altera13.0sp1/nios2eds/bin/gnu/H-i686-pc-linux-gnu/bin/../lib/gcc/nios2-elf/4.1.2/../../../../nios2-elf/lib/mno-hw-mul/libc.a(lib_a-strcmp.o)
 .debug_info    0x0006ff45      0xecc /package/eda/altera/altera13.0sp1/nios2eds/bin/gnu/H-i686-pc-linux-gnu/bin/../lib/gcc/nios2-elf/4.1.2/../../../../nios2-elf/lib/mno-hw-mul/libc.a(lib_a-strtod.o)
 .debug_info    0x00070e11      0xa2a /package/eda/altera/altera13.0sp1/nios2eds/bin/gnu/H-i686-pc-linux-gnu/bin/../lib/gcc/nios2-elf/4.1.2/../../../../nios2-elf/lib/mno-hw-mul/libc.a(lib_a-strtol.o)
 .debug_info    0x0007183b      0x9d5 /package/eda/altera/altera13.0sp1/nios2eds/bin/gnu/H-i686-pc-linux-gnu/bin/../lib/gcc/nios2-elf/4.1.2/../../../../nios2-elf/lib/mno-hw-mul/libc.a(lib_a-strtoll_r.o)
 .debug_info    0x00072210      0xa22 /package/eda/altera/altera13.0sp1/nios2eds/bin/gnu/H-i686-pc-linux-gnu/bin/../lib/gcc/nios2-elf/4.1.2/../../../../nios2-elf/lib/mno-hw-mul/libc.a(lib_a-strtoul.o)
 .debug_info    0x00072c32      0x9cd /package/eda/altera/altera13.0sp1/nios2eds/bin/gnu/H-i686-pc-linux-gnu/bin/../lib/gcc/nios2-elf/4.1.2/../../../../nios2-elf/lib/mno-hw-mul/libc.a(lib_a-strtoull_r.o)
 .debug_info    0x000735ff      0x9f6 /package/eda/altera/altera13.0sp1/nios2eds/bin/gnu/H-i686-pc-linux-gnu/bin/../lib/gcc/nios2-elf/4.1.2/../../../../nios2-elf/lib/mno-hw-mul/libc.a(lib_a-ungetc.o)
 .debug_info    0x00073ff5      0xa1b /package/eda/altera/altera13.0sp1/nios2eds/bin/gnu/H-i686-pc-linux-gnu/bin/../lib/gcc/nios2-elf/4.1.2/../../../../nios2-elf/lib/mno-hw-mul/libc.a(lib_a-callocr.o)
 .debug_info    0x00074a10      0xccb /package/eda/altera/altera13.0sp1/nios2eds/bin/gnu/H-i686-pc-linux-gnu/bin/../lib/gcc/nios2-elf/4.1.2/../../../../nios2-elf/lib/mno-hw-mul/libc.a(lib_a-gdtoa-gethex.o)
 .debug_info    0x000756db      0x23e /package/eda/altera/altera13.0sp1/nios2eds/bin/gnu/H-i686-pc-linux-gnu/bin/../lib/gcc/nios2-elf/4.1.2/../../../../nios2-elf/lib/mno-hw-mul/libc.a(lib_a-gdtoa-hexnan.o)
 .debug_info    0x00075919       0xce /package/eda/altera/altera13.0sp1/nios2eds/bin/gnu/H-i686-pc-linux-gnu/bin/../lib/gcc/nios2-elf/4.1.2/mno-hw-mul/libgcc.a(_fixunsdfsi.o)
 .debug_info    0x000759e7      0x71c /package/eda/altera/altera13.0sp1/nios2eds/bin/gnu/H-i686-pc-linux-gnu/bin/../lib/gcc/nios2-elf/4.1.2/mno-hw-mul/libgcc.a(_udivdi3.o)
 .debug_info    0x00076103      0x749 /package/eda/altera/altera13.0sp1/nios2eds/bin/gnu/H-i686-pc-linux-gnu/bin/../lib/gcc/nios2-elf/4.1.2/mno-hw-mul/libgcc.a(_umoddi3.o)
 .debug_info    0x0007684c      0x290 /package/eda/altera/altera13.0sp1/nios2eds/bin/gnu/H-i686-pc-linux-gnu/bin/../lib/gcc/nios2-elf/4.1.2/mno-hw-mul/libgcc.a(_ne_sf.o)
 .debug_info    0x00076adc      0x290 /package/eda/altera/altera13.0sp1/nios2eds/bin/gnu/H-i686-pc-linux-gnu/bin/../lib/gcc/nios2-elf/4.1.2/mno-hw-mul/libgcc.a(_gt_sf.o)
 .debug_info    0x00076d6c      0x290 /package/eda/altera/altera13.0sp1/nios2eds/bin/gnu/H-i686-pc-linux-gnu/bin/../lib/gcc/nios2-elf/4.1.2/mno-hw-mul/libgcc.a(_lt_sf.o)
 .debug_info    0x00076ffc      0x493 /package/eda/altera/altera13.0sp1/nios2eds/bin/gnu/H-i686-pc-linux-gnu/bin/../lib/gcc/nios2-elf/4.1.2/mno-hw-mul/libgcc.a(_addsub_df.o)
 .debug_info    0x0007748f      0x29d /package/eda/altera/altera13.0sp1/nios2eds/bin/gnu/H-i686-pc-linux-gnu/bin/../lib/gcc/nios2-elf/4.1.2/mno-hw-mul/libgcc.a(_eq_df.o)
 .debug_info    0x0007772c      0x29d /package/eda/altera/altera13.0sp1/nios2eds/bin/gnu/H-i686-pc-linux-gnu/bin/../lib/gcc/nios2-elf/4.1.2/mno-hw-mul/libgcc.a(_ne_df.o)
 .debug_info    0x000779c9      0x29d /package/eda/altera/altera13.0sp1/nios2eds/bin/gnu/H-i686-pc-linux-gnu/bin/../lib/gcc/nios2-elf/4.1.2/mno-hw-mul/libgcc.a(_gt_df.o)
 .debug_info    0x00077c66      0x29d /package/eda/altera/altera13.0sp1/nios2eds/bin/gnu/H-i686-pc-linux-gnu/bin/../lib/gcc/nios2-elf/4.1.2/mno-hw-mul/libgcc.a(_ge_df.o)
 .debug_info    0x00077f03      0x29d /package/eda/altera/altera13.0sp1/nios2eds/bin/gnu/H-i686-pc-linux-gnu/bin/../lib/gcc/nios2-elf/4.1.2/mno-hw-mul/libgcc.a(_lt_df.o)
 .debug_info    0x000781a0      0x29d /package/eda/altera/altera13.0sp1/nios2eds/bin/gnu/H-i686-pc-linux-gnu/bin/../lib/gcc/nios2-elf/4.1.2/mno-hw-mul/libgcc.a(_le_df.o)
 .debug_info    0x0007843d      0x218 /package/eda/altera/altera13.0sp1/nios2eds/bin/gnu/H-i686-pc-linux-gnu/bin/../lib/gcc/nios2-elf/4.1.2/mno-hw-mul/libgcc.a(_si_to_df.o)
 .debug_info    0x00078655      0x2cd /package/eda/altera/altera13.0sp1/nios2eds/bin/gnu/H-i686-pc-linux-gnu/bin/../lib/gcc/nios2-elf/4.1.2/mno-hw-mul/libgcc.a(_df_to_si.o)
 .debug_info    0x00078922      0x21f /package/eda/altera/altera13.0sp1/nios2eds/bin/gnu/H-i686-pc-linux-gnu/bin/../lib/gcc/nios2-elf/4.1.2/mno-hw-mul/libgcc.a(_fpcmp_parts_sf.o)
 .debug_info    0x00078b41      0x21b /package/eda/altera/altera13.0sp1/nios2eds/bin/gnu/H-i686-pc-linux-gnu/bin/../lib/gcc/nios2-elf/4.1.2/mno-hw-mul/libgcc.a(_fpcmp_parts_df.o)
 .debug_info    0x00078d5c      0x35c ../demo_board_bsp//libhal_bsp.a(alt_close.o)
 .debug_info    0x000790b8      0x4dd ../demo_board_bsp//libhal_bsp.a(alt_dev.o)
 .debug_info    0x00079595      0x947 ../demo_board_bsp//libhal_bsp.a(alt_env_lock.o)
 .debug_info    0x00079edc       0xab ../demo_board_bsp//libhal_bsp.a(alt_errno.o)
 .debug_info    0x00079f87       0xe2 ../demo_board_bsp//libhal_bsp.a(alt_exit.o)
 .debug_info    0x0007a069      0x4dd ../demo_board_bsp//libhal_bsp.a(alt_fstat.o)
 .debug_info    0x0007a546      0x4de ../demo_board_bsp//libhal_bsp.a(alt_isatty.o)
 .debug_info    0x0007aa24      0x1a1 ../demo_board_bsp//libhal_bsp.a(alt_load.o)
 .debug_info    0x0007abc5      0x384 ../demo_board_bsp//libhal_bsp.a(alt_lseek.o)
 .debug_info    0x0007af49      0x137 ../demo_board_bsp//libhal_bsp.a(alt_main.o)
 .debug_info    0x0007b080      0x947 ../demo_board_bsp//libhal_bsp.a(alt_malloc_lock.o)
 .debug_info    0x0007b9c7      0x410 ../demo_board_bsp//libhal_bsp.a(alt_open.o)
 .debug_info    0x0007bdd7      0x519 ../demo_board_bsp//libhal_bsp.a(alt_read.o)
 .debug_info    0x0007c2f0      0x2dd ../demo_board_bsp//libhal_bsp.a(alt_release_fd.o)
 .debug_info    0x0007c5cd      0x1a5 ../demo_board_bsp//libhal_bsp.a(alt_sbrk.o)
 .debug_info    0x0007c772      0x520 ../demo_board_bsp//libhal_bsp.a(alt_write.o)
 .debug_info    0x0007cc92      0xa12 ../demo_board_bsp//libhal_bsp.a(alt_sys_init.o)
 .debug_info    0x0007d6a4      0x816 ../demo_board_bsp//libhal_bsp.a(altera_avalon_cfi_flash.o)
 .debug_info    0x0007deba      0xbc3 ../demo_board_bsp//libhal_bsp.a(altera_avalon_cfi_flash_table.o)
 .debug_info    0x0007ea7d      0x57c ../demo_board_bsp//libhal_bsp.a(altera_avalon_jtag_uart_fd.o)
 .debug_info    0x0007eff9      0x3ad ../demo_board_bsp//libhal_bsp.a(altera_avalon_jtag_uart_init.o)
 .debug_info    0x0007f3a6      0x2a1 ../demo_board_bsp//libhal_bsp.a(altera_avalon_jtag_uart_ioctl.o)
 .debug_info    0x0007f647      0x373 ../demo_board_bsp//libhal_bsp.a(altera_avalon_jtag_uart_read.o)
 .debug_info    0x0007f9ba      0x35e ../demo_board_bsp//libhal_bsp.a(altera_avalon_jtag_uart_write.o)
 .debug_info    0x0007fd18      0x1ba ../demo_board_bsp//libhal_bsp.a(altera_avalon_performance_counter.o)
 .debug_info    0x0007fed2     0x11b2 ../demo_board_bsp//libhal_bsp.a(altera_ro_zipfs.o)
 .debug_info    0x00081084      0xbd7 ../demo_board_bsp//libhal_bsp.a(altera_up_avalon_video_pixel_buffer_dma.o)
 .debug_info    0x00081c5b      0x17a ../demo_board_bsp//libhal_bsp.a(perf_print_formatted_report.o)
 .debug_info    0x00081dd5      0x2c6 ../demo_board_bsp//libhal_bsp.a(alt_alarm_start.o)
 .debug_info    0x0008209b       0xb5 ../demo_board_bsp//libhal_bsp.a(alt_dcache_flush.o)
 .debug_info    0x00082150       0x8d ../demo_board_bsp//libhal_bsp.a(alt_dcache_flush_all.o)
 .debug_info    0x000821dd      0x1b7 ../demo_board_bsp//libhal_bsp.a(alt_dev_llist_insert.o)
 .debug_info    0x00082394       0x8d ../demo_board_bsp//libhal_bsp.a(alt_do_ctors.o)
 .debug_info    0x00082421       0x8d ../demo_board_bsp//libhal_bsp.a(alt_do_dtors.o)
 .debug_info    0x000824ae      0x30c ../demo_board_bsp//libhal_bsp.a(alt_find_dev.o)
 .debug_info    0x000827ba      0x30e ../demo_board_bsp//libhal_bsp.a(alt_find_file.o)
 .debug_info    0x00082ac8      0x3cd ../demo_board_bsp//libhal_bsp.a(alt_flash_dev.o)
 .debug_info    0x00082e95      0x31b ../demo_board_bsp//libhal_bsp.a(alt_fs_reg.o)
 .debug_info    0x000831b0      0x331 ../demo_board_bsp//libhal_bsp.a(alt_get_fd.o)
 .debug_info    0x000834e1       0x8d ../demo_board_bsp//libhal_bsp.a(alt_icache_flush_all.o)
 .debug_info    0x0008356e      0x341 ../demo_board_bsp//libhal_bsp.a(alt_iic.o)
 .debug_info    0x000838af      0x1ee ../demo_board_bsp//libhal_bsp.a(alt_iic_isr_register.o)
 .debug_info    0x00083a9d      0x574 ../demo_board_bsp//libhal_bsp.a(alt_io_redirect.o)
 .debug_info    0x00084011       0x71 ../demo_board_bsp//libhal_bsp.a(alt_irq_entry.o)
 .debug_info    0x00084082      0x168 ../demo_board_bsp//libhal_bsp.a(alt_irq_handler.o)
 .debug_info    0x000841ea       0x92 ../demo_board_bsp//libhal_bsp.a(alt_irq_vars.o)
 .debug_info    0x0008427c      0x34e ../demo_board_bsp//libhal_bsp.a(alt_tick.o)
 .debug_info    0x000845ca       0x8d ../demo_board_bsp//libhal_bsp.a(altera_nios2_qsys_irq.o)
 .debug_info    0x00084657      0x679 ../demo_board_bsp//libhal_bsp.a(altera_avalon_cfi_flash_amd.o)
 .debug_info    0x00084cd0      0x666 ../demo_board_bsp//libhal_bsp.a(altera_avalon_cfi_flash_intel.o)
 .debug_info    0x00085336       0x77 ../demo_board_bsp//libhal_bsp.a(alt_exception_entry.o)
 .debug_info    0x000853ad       0xab ../demo_board_bsp//libhal_bsp.a(alt_usleep.o)
 .debug_info    0x00085458       0xd0 ../demo_board_bsp//libhal_bsp.a(alt_busy_sleep.o)
 .debug_info    0x00085528      0x181 /package/eda/altera/altera13.0sp1/nios2eds/bin/gnu/H-i686-pc-linux-gnu/bin/../lib/gcc/nios2-elf/4.1.2/../../../../nios2-elf/lib/mno-hw-mul/libc.a(lib_a-atexit.o)
 .debug_info    0x000856a9      0x115 /package/eda/altera/altera13.0sp1/nios2eds/bin/gnu/H-i686-pc-linux-gnu/bin/../lib/gcc/nios2-elf/4.1.2/../../../../nios2-elf/lib/mno-hw-mul/libc.a(lib_a-memcmp.o)
 .debug_info    0x000857be      0x99c /package/eda/altera/altera13.0sp1/nios2eds/bin/gnu/H-i686-pc-linux-gnu/bin/../lib/gcc/nios2-elf/4.1.2/../../../../nios2-elf/lib/mno-hw-mul/libc.a(lib_a-__atexit.o)
 .debug_info    0x0008615a       0xdc /package/eda/altera/altera13.0sp1/nios2eds/bin/gnu/H-i686-pc-linux-gnu/bin/../lib/gcc/nios2-elf/4.1.2/mno-hw-mul/libgcc.a(_floatundidf.o)
 .debug_info    0x00086236       0xae /package/eda/altera/altera13.0sp1/nios2eds/bin/gnu/H-i686-pc-linux-gnu/bin/../lib/gcc/nios2-elf/4.1.2/mno-hw-mul/libgcc.a(lib2-divtable.o)

.debug_abbrev   0x00000000    0x14fd6
 *(.debug_abbrev)
 .debug_abbrev  0x00000000       0x12 ../demo_board_bsp//obj/HAL/src/crt0.o
 .debug_abbrev  0x00000012      0x1d1 obj/default/cdjpeg.o
 .debug_abbrev  0x000001e3      0x2ab obj/default/djpeg.o
 .debug_abbrev  0x0000048e      0x1d9 obj/default/jcapimin.o
 .debug_abbrev  0x00000667      0x19d obj/default/jcapistd.o
 .debug_abbrev  0x00000804      0x28c obj/default/jccoefct.o
 .debug_abbrev  0x00000a90      0x248 obj/default/jccolor.o
 .debug_abbrev  0x00000cd8      0x282 obj/default/jcdctmgr.o
 .debug_abbrev  0x00000f5a      0x319 obj/default/jchuff.o
 .debug_abbrev  0x00001273      0x168 obj/default/jcinit.o
 .debug_abbrev  0x000013db      0x1bd obj/default/jcmainct.o
 .debug_abbrev  0x00001598      0x2d5 obj/default/jcmarker.o
 .debug_abbrev  0x0000186d      0x24a obj/default/jcmaster.o
 .debug_abbrev  0x00001ab7      0x171 obj/default/jcomapi.o
 .debug_abbrev  0x00001c28      0x2da obj/default/jcparam.o
 .debug_abbrev  0x00001f02      0x2d7 obj/default/jcphuff.o
 .debug_abbrev  0x000021d9      0x26b obj/default/jcprepct.o
 .debug_abbrev  0x00002444      0x25d obj/default/jcsample.o
 .debug_abbrev  0x000026a1      0x2d7 obj/default/jctrans.o
 .debug_abbrev  0x00002978      0x262 obj/default/jdapimin.o
 .debug_abbrev  0x00002bda      0x1b9 obj/default/jdapistd.o
 .debug_abbrev  0x00002d93      0x200 obj/default/jdatadst.o
 .debug_abbrev  0x00002f93      0x21e obj/default/jdatasrc.o
 .debug_abbrev  0x000031b1      0x2fb obj/default/jdcoefct.o
 .debug_abbrev  0x000034ac      0x248 obj/default/jdcolor.o
 .debug_abbrev  0x000036f4      0x1e0 obj/default/jddctmgr.o
 .debug_abbrev  0x000038d4      0x300 obj/default/jdhuff.o
 .debug_abbrev  0x00003bd4      0x279 obj/default/jdinput.o
 .debug_abbrev  0x00003e4d      0x26e obj/default/jdmainct.o
 .debug_abbrev  0x000040bb      0x321 obj/default/jdmarker.o
 .debug_abbrev  0x000043dc      0x2b3 obj/default/jdmaster.o
 .debug_abbrev  0x0000468f      0x27e obj/default/jdmerge.o
 .debug_abbrev  0x0000490d      0x286 obj/default/jdphuff.o
 .debug_abbrev  0x00004b93      0x1b7 obj/default/jdpostct.o
 .debug_abbrev  0x00004d4a      0x24e obj/default/jdsample.o
 .debug_abbrev  0x00004f98      0x1d8 obj/default/jdtrans.o
 .debug_abbrev  0x00005170      0x219 obj/default/jerror.o
 .debug_abbrev  0x00005389       0x82 obj/default/jfdctflt.o
 .debug_abbrev  0x0000540b       0x8f obj/default/jfdctfst.o
 .debug_abbrev  0x0000549a       0x8f obj/default/jfdctint.o
 .debug_abbrev  0x00005529      0x1d0 obj/default/jidctflt.o
 .debug_abbrev  0x000056f9      0x1e1 obj/default/jidctfst.o
 .debug_abbrev  0x000058da      0x1ee obj/default/jidctint.o
 .debug_abbrev  0x00005ac8      0x270 obj/default/jidctred.o
 .debug_abbrev  0x00005d38      0x26e obj/default/jmemmgr.o
 .debug_abbrev  0x00005fa6      0x1b2 obj/default/jmemnobs.o
 .debug_abbrev  0x00006158      0x30f obj/default/jquant1.o
 .debug_abbrev  0x00006467      0x335 obj/default/jquant2.o
 .debug_abbrev  0x0000679c      0x101 obj/default/jutils.o
 .debug_abbrev  0x0000689d      0x270 obj/default/rdcolmap.o
 .debug_abbrev  0x00006b0d      0x2e6 obj/default/wrbmp.o
 .debug_abbrev  0x00006df3      0x2f6 obj/default/wrgif.o
 .debug_abbrev  0x000070e9      0x274 obj/default/wrppm.o
 .debug_abbrev  0x0000735d       0x2a obj/default/wrrle.o
 .debug_abbrev  0x00007387      0x21e obj/default/wrtarga.o
 .debug_abbrev  0x000075a5      0x1e1 /package/eda/altera/altera13.0sp1/nios2eds/bin/gnu/H-i686-pc-linux-gnu/bin/../lib/gcc/nios2-elf/4.1.2/mno-hw-mul/libgcc.a(_addsub_sf.o)
 .debug_abbrev  0x00007786      0x206 /package/eda/altera/altera13.0sp1/nios2eds/bin/gnu/H-i686-pc-linux-gnu/bin/../lib/gcc/nios2-elf/4.1.2/mno-hw-mul/libgcc.a(_mul_sf.o)
 .debug_abbrev  0x0000798c      0x13d /package/eda/altera/altera13.0sp1/nios2eds/bin/gnu/H-i686-pc-linux-gnu/bin/../lib/gcc/nios2-elf/4.1.2/mno-hw-mul/libgcc.a(_si_to_sf.o)
 .debug_abbrev  0x00007ac9      0x176 /package/eda/altera/altera13.0sp1/nios2eds/bin/gnu/H-i686-pc-linux-gnu/bin/../lib/gcc/nios2-elf/4.1.2/mno-hw-mul/libgcc.a(_sf_to_si.o)
 .debug_abbrev  0x00007c3f       0xba /package/eda/altera/altera13.0sp1/nios2eds/bin/gnu/H-i686-pc-linux-gnu/bin/../lib/gcc/nios2-elf/4.1.2/mno-hw-mul/libgcc.a(_thenan_sf.o)
 .debug_abbrev  0x00007cf9      0x204 /package/eda/altera/altera13.0sp1/nios2eds/bin/gnu/H-i686-pc-linux-gnu/bin/../lib/gcc/nios2-elf/4.1.2/mno-hw-mul/libgcc.a(_mul_df.o)
 .debug_abbrev  0x00007efd      0x1e3 /package/eda/altera/altera13.0sp1/nios2eds/bin/gnu/H-i686-pc-linux-gnu/bin/../lib/gcc/nios2-elf/4.1.2/mno-hw-mul/libgcc.a(_div_df.o)
 .debug_abbrev  0x000080e0      0x137 /package/eda/altera/altera13.0sp1/nios2eds/bin/gnu/H-i686-pc-linux-gnu/bin/../lib/gcc/nios2-elf/4.1.2/mno-hw-mul/libgcc.a(_df_to_sf.o)
 .debug_abbrev  0x00008217       0xba /package/eda/altera/altera13.0sp1/nios2eds/bin/gnu/H-i686-pc-linux-gnu/bin/../lib/gcc/nios2-elf/4.1.2/mno-hw-mul/libgcc.a(_thenan_df.o)
 .debug_abbrev  0x000082d1      0x155 /package/eda/altera/altera13.0sp1/nios2eds/bin/gnu/H-i686-pc-linux-gnu/bin/../lib/gcc/nios2-elf/4.1.2/mno-hw-mul/libgcc.a(_usi_to_df.o)
 .debug_abbrev  0x00008426       0xe0 /package/eda/altera/altera13.0sp1/nios2eds/bin/gnu/H-i686-pc-linux-gnu/bin/../lib/gcc/nios2-elf/4.1.2/mno-hw-mul/libgcc.a(lib2-divmod.o)
 .debug_abbrev  0x00008506       0x7b /package/eda/altera/altera13.0sp1/nios2eds/bin/gnu/H-i686-pc-linux-gnu/bin/../lib/gcc/nios2-elf/4.1.2/mno-hw-mul/libgcc.a(lib2-mul.o)
 .debug_abbrev  0x00008581       0xfb /package/eda/altera/altera13.0sp1/nios2eds/bin/gnu/H-i686-pc-linux-gnu/bin/../lib/gcc/nios2-elf/4.1.2/mno-hw-mul/libgcc.a(_muldi3.o)
 .debug_abbrev  0x0000867c       0xb9 /package/eda/altera/altera13.0sp1/nios2eds/bin/gnu/H-i686-pc-linux-gnu/bin/../lib/gcc/nios2-elf/4.1.2/mno-hw-mul/libgcc.a(_clzsi2.o)
 .debug_abbrev  0x00008735      0x1aa /package/eda/altera/altera13.0sp1/nios2eds/bin/gnu/H-i686-pc-linux-gnu/bin/../lib/gcc/nios2-elf/4.1.2/mno-hw-mul/libgcc.a(_pack_sf.o)
 .debug_abbrev  0x000088df      0x158 /package/eda/altera/altera13.0sp1/nios2eds/bin/gnu/H-i686-pc-linux-gnu/bin/../lib/gcc/nios2-elf/4.1.2/mno-hw-mul/libgcc.a(_unpack_sf.o)
 .debug_abbrev  0x00008a37      0x100 /package/eda/altera/altera13.0sp1/nios2eds/bin/gnu/H-i686-pc-linux-gnu/bin/../lib/gcc/nios2-elf/4.1.2/mno-hw-mul/libgcc.a(_make_sf.o)
 .debug_abbrev  0x00008b37      0x1b1 /package/eda/altera/altera13.0sp1/nios2eds/bin/gnu/H-i686-pc-linux-gnu/bin/../lib/gcc/nios2-elf/4.1.2/mno-hw-mul/libgcc.a(_pack_df.o)
 .debug_abbrev  0x00008ce8      0x149 /package/eda/altera/altera13.0sp1/nios2eds/bin/gnu/H-i686-pc-linux-gnu/bin/../lib/gcc/nios2-elf/4.1.2/mno-hw-mul/libgcc.a(_unpack_df.o)
 .debug_abbrev  0x00008e31       0x61 /package/eda/altera/altera13.0sp1/nios2eds/bin/gnu/H-i686-pc-linux-gnu/bin/../lib/gcc/nios2-elf/4.1.2/mno-hw-mul/libgcc.a(_clz.o)
 .debug_abbrev  0x00008e92       0x61 /package/eda/altera/altera13.0sp1/nios2eds/bin/gnu/H-i686-pc-linux-gnu/bin/../lib/gcc/nios2-elf/4.1.2/../../../../nios2-elf/lib/mno-hw-mul/libc.a(lib_a-ctype_.o)
 .debug_abbrev  0x00008ef3      0x16e /package/eda/altera/altera13.0sp1/nios2eds/bin/gnu/H-i686-pc-linux-gnu/bin/../lib/gcc/nios2-elf/4.1.2/../../../../nios2-elf/lib/mno-hw-mul/libc.a(lib_a-exit.o)
 .debug_abbrev  0x00009061      0x1a7 /package/eda/altera/altera13.0sp1/nios2eds/bin/gnu/H-i686-pc-linux-gnu/bin/../lib/gcc/nios2-elf/4.1.2/../../../../nios2-elf/lib/mno-hw-mul/libc.a(lib_a-fclose.o)
 .debug_abbrev  0x00009208      0x1c6 /package/eda/altera/altera13.0sp1/nios2eds/bin/gnu/H-i686-pc-linux-gnu/bin/../lib/gcc/nios2-elf/4.1.2/../../../../nios2-elf/lib/mno-hw-mul/libc.a(lib_a-fflush.o)
 .debug_abbrev  0x000093ce      0x24c /package/eda/altera/altera13.0sp1/nios2eds/bin/gnu/H-i686-pc-linux-gnu/bin/../lib/gcc/nios2-elf/4.1.2/../../../../nios2-elf/lib/mno-hw-mul/libc.a(lib_a-findfp.o)
 .debug_abbrev  0x0000961a      0x1b6 /package/eda/altera/altera13.0sp1/nios2eds/bin/gnu/H-i686-pc-linux-gnu/bin/../lib/gcc/nios2-elf/4.1.2/../../../../nios2-elf/lib/mno-hw-mul/libc.a(lib_a-fopen.o)
 .debug_abbrev  0x000097d0      0x197 /package/eda/altera/altera13.0sp1/nios2eds/bin/gnu/H-i686-pc-linux-gnu/bin/../lib/gcc/nios2-elf/4.1.2/../../../../nios2-elf/lib/mno-hw-mul/libc.a(lib_a-fprintf.o)
 .debug_abbrev  0x00009967      0x18c /package/eda/altera/altera13.0sp1/nios2eds/bin/gnu/H-i686-pc-linux-gnu/bin/../lib/gcc/nios2-elf/4.1.2/../../../../nios2-elf/lib/mno-hw-mul/libc.a(lib_a-fputc.o)
 .debug_abbrev  0x00009af3      0x20d /package/eda/altera/altera13.0sp1/nios2eds/bin/gnu/H-i686-pc-linux-gnu/bin/../lib/gcc/nios2-elf/4.1.2/../../../../nios2-elf/lib/mno-hw-mul/libc.a(lib_a-fread.o)
 .debug_abbrev  0x00009d00      0x1d9 /package/eda/altera/altera13.0sp1/nios2eds/bin/gnu/H-i686-pc-linux-gnu/bin/../lib/gcc/nios2-elf/4.1.2/../../../../nios2-elf/lib/mno-hw-mul/libc.a(lib_a-freer.o)
 .debug_abbrev  0x00009ed9      0x208 /package/eda/altera/altera13.0sp1/nios2eds/bin/gnu/H-i686-pc-linux-gnu/bin/../lib/gcc/nios2-elf/4.1.2/../../../../nios2-elf/lib/mno-hw-mul/libc.a(lib_a-fseek.o)
 .debug_abbrev  0x0000a0e1      0x18e /package/eda/altera/altera13.0sp1/nios2eds/bin/gnu/H-i686-pc-linux-gnu/bin/../lib/gcc/nios2-elf/4.1.2/../../../../nios2-elf/lib/mno-hw-mul/libc.a(lib_a-fstatr.o)
 .debug_abbrev  0x0000a26f      0x1e3 /package/eda/altera/altera13.0sp1/nios2eds/bin/gnu/H-i686-pc-linux-gnu/bin/../lib/gcc/nios2-elf/4.1.2/../../../../nios2-elf/lib/mno-hw-mul/libc.a(lib_a-fwalk.o)
 .debug_abbrev  0x0000a452      0x1b1 /package/eda/altera/altera13.0sp1/nios2eds/bin/gnu/H-i686-pc-linux-gnu/bin/../lib/gcc/nios2-elf/4.1.2/../../../../nios2-elf/lib/mno-hw-mul/libc.a(lib_a-fwrite.o)
 .debug_abbrev  0x0000a603      0x17f /package/eda/altera/altera13.0sp1/nios2eds/bin/gnu/H-i686-pc-linux-gnu/bin/../lib/gcc/nios2-elf/4.1.2/../../../../nios2-elf/lib/mno-hw-mul/libc.a(lib_a-getc.o)
 .debug_abbrev  0x0000a782      0x198 /package/eda/altera/altera13.0sp1/nios2eds/bin/gnu/H-i686-pc-linux-gnu/bin/../lib/gcc/nios2-elf/4.1.2/../../../../nios2-elf/lib/mno-hw-mul/libc.a(lib_a-getenv.o)
 .debug_abbrev  0x0000a91a      0x19b /package/eda/altera/altera13.0sp1/nios2eds/bin/gnu/H-i686-pc-linux-gnu/bin/../lib/gcc/nios2-elf/4.1.2/../../../../nios2-elf/lib/mno-hw-mul/libc.a(lib_a-getenv_r.o)
 .debug_abbrev  0x0000aab5      0x157 /package/eda/altera/altera13.0sp1/nios2eds/bin/gnu/H-i686-pc-linux-gnu/bin/../lib/gcc/nios2-elf/4.1.2/../../../../nios2-elf/lib/mno-hw-mul/libc.a(lib_a-impure.o)
 .debug_abbrev  0x0000ac0c       0x3b /package/eda/altera/altera13.0sp1/nios2eds/bin/gnu/H-i686-pc-linux-gnu/bin/../lib/gcc/nios2-elf/4.1.2/../../../../nios2-elf/lib/mno-hw-mul/libc.a(lib_a-int_errno.o)
 .debug_abbrev  0x0000ac47      0x197 /package/eda/altera/altera13.0sp1/nios2eds/bin/gnu/H-i686-pc-linux-gnu/bin/../lib/gcc/nios2-elf/4.1.2/../../../../nios2-elf/lib/mno-hw-mul/libc.a(lib_a-makebuf.o)
 .debug_abbrev  0x0000adde      0x187 /package/eda/altera/altera13.0sp1/nios2eds/bin/gnu/H-i686-pc-linux-gnu/bin/../lib/gcc/nios2-elf/4.1.2/../../../../nios2-elf/lib/mno-hw-mul/libc.a(lib_a-malloc.o)
 .debug_abbrev  0x0000af65      0x216 /package/eda/altera/altera13.0sp1/nios2eds/bin/gnu/H-i686-pc-linux-gnu/bin/../lib/gcc/nios2-elf/4.1.2/../../../../nios2-elf/lib/mno-hw-mul/libc.a(lib_a-mallocr.o)
 .debug_abbrev  0x0000b17b       0xb5 /package/eda/altera/altera13.0sp1/nios2eds/bin/gnu/H-i686-pc-linux-gnu/bin/../lib/gcc/nios2-elf/4.1.2/../../../../nios2-elf/lib/mno-hw-mul/libc.a(lib_a-memcpy.o)
 .debug_abbrev  0x0000b230       0xb8 /package/eda/altera/altera13.0sp1/nios2eds/bin/gnu/H-i686-pc-linux-gnu/bin/../lib/gcc/nios2-elf/4.1.2/../../../../nios2-elf/lib/mno-hw-mul/libc.a(lib_a-memset.o)
 .debug_abbrev  0x0000b2e8      0x18e /package/eda/altera/altera13.0sp1/nios2eds/bin/gnu/H-i686-pc-linux-gnu/bin/../lib/gcc/nios2-elf/4.1.2/../../../../nios2-elf/lib/mno-hw-mul/libc.a(lib_a-openr.o)
 .debug_abbrev  0x0000b476      0x191 /package/eda/altera/altera13.0sp1/nios2eds/bin/gnu/H-i686-pc-linux-gnu/bin/../lib/gcc/nios2-elf/4.1.2/../../../../nios2-elf/lib/mno-hw-mul/libc.a(lib_a-printf.o)
 .debug_abbrev  0x0000b607      0x17f /package/eda/altera/altera13.0sp1/nios2eds/bin/gnu/H-i686-pc-linux-gnu/bin/../lib/gcc/nios2-elf/4.1.2/../../../../nios2-elf/lib/mno-hw-mul/libc.a(lib_a-putc.o)
 .debug_abbrev  0x0000b786      0x1ac /package/eda/altera/altera13.0sp1/nios2eds/bin/gnu/H-i686-pc-linux-gnu/bin/../lib/gcc/nios2-elf/4.1.2/../../../../nios2-elf/lib/mno-hw-mul/libc.a(lib_a-puts.o)
 .debug_abbrev  0x0000b932      0x187 /package/eda/altera/altera13.0sp1/nios2eds/bin/gnu/H-i686-pc-linux-gnu/bin/../lib/gcc/nios2-elf/4.1.2/../../../../nios2-elf/lib/mno-hw-mul/libc.a(lib_a-refill.o)
 .debug_abbrev  0x0000bab9      0x189 /package/eda/altera/altera13.0sp1/nios2eds/bin/gnu/H-i686-pc-linux-gnu/bin/../lib/gcc/nios2-elf/4.1.2/../../../../nios2-elf/lib/mno-hw-mul/libc.a(lib_a-rget.o)
 .debug_abbrev  0x0000bc42      0x18c /package/eda/altera/altera13.0sp1/nios2eds/bin/gnu/H-i686-pc-linux-gnu/bin/../lib/gcc/nios2-elf/4.1.2/../../../../nios2-elf/lib/mno-hw-mul/libc.a(lib_a-sbrkr.o)
 .debug_abbrev  0x0000bdce      0x191 /package/eda/altera/altera13.0sp1/nios2eds/bin/gnu/H-i686-pc-linux-gnu/bin/../lib/gcc/nios2-elf/4.1.2/../../../../nios2-elf/lib/mno-hw-mul/libc.a(lib_a-sprintf.o)
 .debug_abbrev  0x0000bf5f      0x1c6 /package/eda/altera/altera13.0sp1/nios2eds/bin/gnu/H-i686-pc-linux-gnu/bin/../lib/gcc/nios2-elf/4.1.2/../../../../nios2-elf/lib/mno-hw-mul/libc.a(lib_a-sscanf.o)
 .debug_abbrev  0x0000c125      0x1c9 /package/eda/altera/altera13.0sp1/nios2eds/bin/gnu/H-i686-pc-linux-gnu/bin/../lib/gcc/nios2-elf/4.1.2/../../../../nios2-elf/lib/mno-hw-mul/libc.a(lib_a-stdio.o)
 .debug_abbrev  0x0000c2ee      0x170 /package/eda/altera/altera13.0sp1/nios2eds/bin/gnu/H-i686-pc-linux-gnu/bin/../lib/gcc/nios2-elf/4.1.2/../../../../nios2-elf/lib/mno-hw-mul/libc.a(lib_a-strdup.o)
 .debug_abbrev  0x0000c45e      0x18a /package/eda/altera/altera13.0sp1/nios2eds/bin/gnu/H-i686-pc-linux-gnu/bin/../lib/gcc/nios2-elf/4.1.2/../../../../nios2-elf/lib/mno-hw-mul/libc.a(lib_a-strdup_r.o)
 .debug_abbrev  0x0000c5e8       0x8b /package/eda/altera/altera13.0sp1/nios2eds/bin/gnu/H-i686-pc-linux-gnu/bin/../lib/gcc/nios2-elf/4.1.2/../../../../nios2-elf/lib/mno-hw-mul/libc.a(lib_a-strlen.o)
 .debug_abbrev  0x0000c673       0x8d /package/eda/altera/altera13.0sp1/nios2eds/bin/gnu/H-i686-pc-linux-gnu/bin/../lib/gcc/nios2-elf/4.1.2/../../../../nios2-elf/lib/mno-hw-mul/libc.a(lib_a-strncmp.o)
 .debug_abbrev  0x0000c700      0x30a /package/eda/altera/altera13.0sp1/nios2eds/bin/gnu/H-i686-pc-linux-gnu/bin/../lib/gcc/nios2-elf/4.1.2/../../../../nios2-elf/lib/mno-hw-mul/libc.a(lib_a-vfprintf.o)
 .debug_abbrev  0x0000ca0a      0x286 /package/eda/altera/altera13.0sp1/nios2eds/bin/gnu/H-i686-pc-linux-gnu/bin/../lib/gcc/nios2-elf/4.1.2/../../../../nios2-elf/lib/mno-hw-mul/libc.a(lib_a-vfscanf.o)
 .debug_abbrev  0x0000cc90      0x198 /package/eda/altera/altera13.0sp1/nios2eds/bin/gnu/H-i686-pc-linux-gnu/bin/../lib/gcc/nios2-elf/4.1.2/../../../../nios2-elf/lib/mno-hw-mul/libc.a(lib_a-wbuf.o)
 .debug_abbrev  0x0000ce28      0x184 /package/eda/altera/altera13.0sp1/nios2eds/bin/gnu/H-i686-pc-linux-gnu/bin/../lib/gcc/nios2-elf/4.1.2/../../../../nios2-elf/lib/mno-hw-mul/libc.a(lib_a-writer.o)
 .debug_abbrev  0x0000cfac      0x170 /package/eda/altera/altera13.0sp1/nios2eds/bin/gnu/H-i686-pc-linux-gnu/bin/../lib/gcc/nios2-elf/4.1.2/../../../../nios2-elf/lib/mno-hw-mul/libc.a(lib_a-wsetup.o)
 .debug_abbrev  0x0000d11c      0x1de /package/eda/altera/altera13.0sp1/nios2eds/bin/gnu/H-i686-pc-linux-gnu/bin/../lib/gcc/nios2-elf/4.1.2/../../../../nios2-elf/lib/mno-hw-mul/libc.a(lib_a-__call_atexit.o)
 .debug_abbrev  0x0000d2fa      0x17f /package/eda/altera/altera13.0sp1/nios2eds/bin/gnu/H-i686-pc-linux-gnu/bin/../lib/gcc/nios2-elf/4.1.2/../../../../nios2-elf/lib/mno-hw-mul/libc.a(lib_a-closer.o)
 .debug_abbrev  0x0000d479      0x232 /package/eda/altera/altera13.0sp1/nios2eds/bin/gnu/H-i686-pc-linux-gnu/bin/../lib/gcc/nios2-elf/4.1.2/../../../../nios2-elf/lib/mno-hw-mul/libc.a(lib_a-dtoa.o)
 .debug_abbrev  0x0000d6ab       0x5a /package/eda/altera/altera13.0sp1/nios2eds/bin/gnu/H-i686-pc-linux-gnu/bin/../lib/gcc/nios2-elf/4.1.2/../../../../nios2-elf/lib/mno-hw-mul/libc.a(lib_a-environ.o)
 .debug_abbrev  0x0000d705      0x17d /package/eda/altera/altera13.0sp1/nios2eds/bin/gnu/H-i686-pc-linux-gnu/bin/../lib/gcc/nios2-elf/4.1.2/../../../../nios2-elf/lib/mno-hw-mul/libc.a(lib_a-flags.o)
 .debug_abbrev  0x0000d882      0x1a3 /package/eda/altera/altera13.0sp1/nios2eds/bin/gnu/H-i686-pc-linux-gnu/bin/../lib/gcc/nios2-elf/4.1.2/../../../../nios2-elf/lib/mno-hw-mul/libc.a(lib_a-fvwrite.o)
 .debug_abbrev  0x0000da25      0x17f /package/eda/altera/altera13.0sp1/nios2eds/bin/gnu/H-i686-pc-linux-gnu/bin/../lib/gcc/nios2-elf/4.1.2/../../../../nios2-elf/lib/mno-hw-mul/libc.a(lib_a-isattyr.o)
 .debug_abbrev  0x0000dba4       0x9f /package/eda/altera/altera13.0sp1/nios2eds/bin/gnu/H-i686-pc-linux-gnu/bin/../lib/gcc/nios2-elf/4.1.2/../../../../nios2-elf/lib/mno-hw-mul/libc.a(lib_a-iswspace.o)
 .debug_abbrev  0x0000dc43      0x1ed /package/eda/altera/altera13.0sp1/nios2eds/bin/gnu/H-i686-pc-linux-gnu/bin/../lib/gcc/nios2-elf/4.1.2/../../../../nios2-elf/lib/mno-hw-mul/libc.a(lib_a-locale.o)
 .debug_abbrev  0x0000de30      0x18e /package/eda/altera/altera13.0sp1/nios2eds/bin/gnu/H-i686-pc-linux-gnu/bin/../lib/gcc/nios2-elf/4.1.2/../../../../nios2-elf/lib/mno-hw-mul/libc.a(lib_a-lseekr.o)
 .debug_abbrev  0x0000dfbe      0x17f /package/eda/altera/altera13.0sp1/nios2eds/bin/gnu/H-i686-pc-linux-gnu/bin/../lib/gcc/nios2-elf/4.1.2/../../../../nios2-elf/lib/mno-hw-mul/libc.a(lib_a-mbrtowc.o)
 .debug_abbrev  0x0000e13d      0x18a /package/eda/altera/altera13.0sp1/nios2eds/bin/gnu/H-i686-pc-linux-gnu/bin/../lib/gcc/nios2-elf/4.1.2/../../../../nios2-elf/lib/mno-hw-mul/libc.a(lib_a-mbtowc_r.o)
 .debug_abbrev  0x0000e2c7       0xb5 /package/eda/altera/altera13.0sp1/nios2eds/bin/gnu/H-i686-pc-linux-gnu/bin/../lib/gcc/nios2-elf/4.1.2/../../../../nios2-elf/lib/mno-hw-mul/libc.a(lib_a-memchr.o)
 .debug_abbrev  0x0000e37c       0xb5 /package/eda/altera/altera13.0sp1/nios2eds/bin/gnu/H-i686-pc-linux-gnu/bin/../lib/gcc/nios2-elf/4.1.2/../../../../nios2-elf/lib/mno-hw-mul/libc.a(lib_a-memmove.o)
 .debug_abbrev  0x0000e431      0x297 /package/eda/altera/altera13.0sp1/nios2eds/bin/gnu/H-i686-pc-linux-gnu/bin/../lib/gcc/nios2-elf/4.1.2/../../../../nios2-elf/lib/mno-hw-mul/libc.a(lib_a-mprec.o)
 .debug_abbrev  0x0000e6c8      0x17f /package/eda/altera/altera13.0sp1/nios2eds/bin/gnu/H-i686-pc-linux-gnu/bin/../lib/gcc/nios2-elf/4.1.2/../../../../nios2-elf/lib/mno-hw-mul/libc.a(lib_a-readr.o)
 .debug_abbrev  0x0000e847      0x1c3 /package/eda/altera/altera13.0sp1/nios2eds/bin/gnu/H-i686-pc-linux-gnu/bin/../lib/gcc/nios2-elf/4.1.2/../../../../nios2-elf/lib/mno-hw-mul/libc.a(lib_a-reallocr.o)
 .debug_abbrev  0x0000ea0a       0x79 /package/eda/altera/altera13.0sp1/nios2eds/bin/gnu/H-i686-pc-linux-gnu/bin/../lib/gcc/nios2-elf/4.1.2/../../../../nios2-elf/lib/mno-hw-mul/libc.a(lib_a-s_isinfd.o)
 .debug_abbrev  0x0000ea83       0x79 /package/eda/altera/altera13.0sp1/nios2eds/bin/gnu/H-i686-pc-linux-gnu/bin/../lib/gcc/nios2-elf/4.1.2/../../../../nios2-elf/lib/mno-hw-mul/libc.a(lib_a-s_isnand.o)
 .debug_abbrev  0x0000eafc       0x93 /package/eda/altera/altera13.0sp1/nios2eds/bin/gnu/H-i686-pc-linux-gnu/bin/../lib/gcc/nios2-elf/4.1.2/../../../../nios2-elf/lib/mno-hw-mul/libc.a(lib_a-sccl.o)
 .debug_abbrev  0x0000eb8f       0x6d /package/eda/altera/altera13.0sp1/nios2eds/bin/gnu/H-i686-pc-linux-gnu/bin/../lib/gcc/nios2-elf/4.1.2/../../../../nios2-elf/lib/mno-hw-mul/libc.a(lib_a-sf_nan.o)
 .debug_abbrev  0x0000ebfc       0x80 /package/eda/altera/altera13.0sp1/nios2eds/bin/gnu/H-i686-pc-linux-gnu/bin/../lib/gcc/nios2-elf/4.1.2/../../../../nios2-elf/lib/mno-hw-mul/libc.a(lib_a-strcmp.o)
 .debug_abbrev  0x0000ec7c      0x2e8 /package/eda/altera/altera13.0sp1/nios2eds/bin/gnu/H-i686-pc-linux-gnu/bin/../lib/gcc/nios2-elf/4.1.2/../../../../nios2-elf/lib/mno-hw-mul/libc.a(lib_a-strtod.o)
 .debug_abbrev  0x0000ef64      0x1c7 /package/eda/altera/altera13.0sp1/nios2eds/bin/gnu/H-i686-pc-linux-gnu/bin/../lib/gcc/nios2-elf/4.1.2/../../../../nios2-elf/lib/mno-hw-mul/libc.a(lib_a-strtol.o)
 .debug_abbrev  0x0000f12b      0x18e /package/eda/altera/altera13.0sp1/nios2eds/bin/gnu/H-i686-pc-linux-gnu/bin/../lib/gcc/nios2-elf/4.1.2/../../../../nios2-elf/lib/mno-hw-mul/libc.a(lib_a-strtoll_r.o)
 .debug_abbrev  0x0000f2b9      0x1c5 /package/eda/altera/altera13.0sp1/nios2eds/bin/gnu/H-i686-pc-linux-gnu/bin/../lib/gcc/nios2-elf/4.1.2/../../../../nios2-elf/lib/mno-hw-mul/libc.a(lib_a-strtoul.o)
 .debug_abbrev  0x0000f47e      0x18c /package/eda/altera/altera13.0sp1/nios2eds/bin/gnu/H-i686-pc-linux-gnu/bin/../lib/gcc/nios2-elf/4.1.2/../../../../nios2-elf/lib/mno-hw-mul/libc.a(lib_a-strtoull_r.o)
 .debug_abbrev  0x0000f60a      0x1a7 /package/eda/altera/altera13.0sp1/nios2eds/bin/gnu/H-i686-pc-linux-gnu/bin/../lib/gcc/nios2-elf/4.1.2/../../../../nios2-elf/lib/mno-hw-mul/libc.a(lib_a-ungetc.o)
 .debug_abbrev  0x0000f7b1      0x1b8 /package/eda/altera/altera13.0sp1/nios2eds/bin/gnu/H-i686-pc-linux-gnu/bin/../lib/gcc/nios2-elf/4.1.2/../../../../nios2-elf/lib/mno-hw-mul/libc.a(lib_a-callocr.o)
 .debug_abbrev  0x0000f969      0x273 /package/eda/altera/altera13.0sp1/nios2eds/bin/gnu/H-i686-pc-linux-gnu/bin/../lib/gcc/nios2-elf/4.1.2/../../../../nios2-elf/lib/mno-hw-mul/libc.a(lib_a-gdtoa-gethex.o)
 .debug_abbrev  0x0000fbdc      0x117 /package/eda/altera/altera13.0sp1/nios2eds/bin/gnu/H-i686-pc-linux-gnu/bin/../lib/gcc/nios2-elf/4.1.2/../../../../nios2-elf/lib/mno-hw-mul/libc.a(lib_a-gdtoa-hexnan.o)
 .debug_abbrev  0x0000fcf3       0x5d /package/eda/altera/altera13.0sp1/nios2eds/bin/gnu/H-i686-pc-linux-gnu/bin/../lib/gcc/nios2-elf/4.1.2/mno-hw-mul/libgcc.a(_fixunsdfsi.o)
 .debug_abbrev  0x0000fd50      0x16b /package/eda/altera/altera13.0sp1/nios2eds/bin/gnu/H-i686-pc-linux-gnu/bin/../lib/gcc/nios2-elf/4.1.2/mno-hw-mul/libgcc.a(_udivdi3.o)
 .debug_abbrev  0x0000febb      0x18e /package/eda/altera/altera13.0sp1/nios2eds/bin/gnu/H-i686-pc-linux-gnu/bin/../lib/gcc/nios2-elf/4.1.2/mno-hw-mul/libgcc.a(_umoddi3.o)
 .debug_abbrev  0x00010049      0x151 /package/eda/altera/altera13.0sp1/nios2eds/bin/gnu/H-i686-pc-linux-gnu/bin/../lib/gcc/nios2-elf/4.1.2/mno-hw-mul/libgcc.a(_ne_sf.o)
 .debug_abbrev  0x0001019a      0x151 /package/eda/altera/altera13.0sp1/nios2eds/bin/gnu/H-i686-pc-linux-gnu/bin/../lib/gcc/nios2-elf/4.1.2/mno-hw-mul/libgcc.a(_gt_sf.o)
 .debug_abbrev  0x000102eb      0x151 /package/eda/altera/altera13.0sp1/nios2eds/bin/gnu/H-i686-pc-linux-gnu/bin/../lib/gcc/nios2-elf/4.1.2/mno-hw-mul/libgcc.a(_lt_sf.o)
 .debug_abbrev  0x0001043c      0x1d2 /package/eda/altera/altera13.0sp1/nios2eds/bin/gnu/H-i686-pc-linux-gnu/bin/../lib/gcc/nios2-elf/4.1.2/mno-hw-mul/libgcc.a(_addsub_df.o)
 .debug_abbrev  0x0001060e      0x151 /package/eda/altera/altera13.0sp1/nios2eds/bin/gnu/H-i686-pc-linux-gnu/bin/../lib/gcc/nios2-elf/4.1.2/mno-hw-mul/libgcc.a(_eq_df.o)
 .debug_abbrev  0x0001075f      0x151 /package/eda/altera/altera13.0sp1/nios2eds/bin/gnu/H-i686-pc-linux-gnu/bin/../lib/gcc/nios2-elf/4.1.2/mno-hw-mul/libgcc.a(_ne_df.o)
 .debug_abbrev  0x000108b0      0x151 /package/eda/altera/altera13.0sp1/nios2eds/bin/gnu/H-i686-pc-linux-gnu/bin/../lib/gcc/nios2-elf/4.1.2/mno-hw-mul/libgcc.a(_gt_df.o)
 .debug_abbrev  0x00010a01      0x151 /package/eda/altera/altera13.0sp1/nios2eds/bin/gnu/H-i686-pc-linux-gnu/bin/../lib/gcc/nios2-elf/4.1.2/mno-hw-mul/libgcc.a(_ge_df.o)
 .debug_abbrev  0x00010b52      0x151 /package/eda/altera/altera13.0sp1/nios2eds/bin/gnu/H-i686-pc-linux-gnu/bin/../lib/gcc/nios2-elf/4.1.2/mno-hw-mul/libgcc.a(_lt_df.o)
 .debug_abbrev  0x00010ca3      0x151 /package/eda/altera/altera13.0sp1/nios2eds/bin/gnu/H-i686-pc-linux-gnu/bin/../lib/gcc/nios2-elf/4.1.2/mno-hw-mul/libgcc.a(_le_df.o)
 .debug_abbrev  0x00010df4      0x13f /package/eda/altera/altera13.0sp1/nios2eds/bin/gnu/H-i686-pc-linux-gnu/bin/../lib/gcc/nios2-elf/4.1.2/mno-hw-mul/libgcc.a(_si_to_df.o)
 .debug_abbrev  0x00010f33      0x176 /package/eda/altera/altera13.0sp1/nios2eds/bin/gnu/H-i686-pc-linux-gnu/bin/../lib/gcc/nios2-elf/4.1.2/mno-hw-mul/libgcc.a(_df_to_si.o)
 .debug_abbrev  0x000110a9      0x132 /package/eda/altera/altera13.0sp1/nios2eds/bin/gnu/H-i686-pc-linux-gnu/bin/../lib/gcc/nios2-elf/4.1.2/mno-hw-mul/libgcc.a(_fpcmp_parts_sf.o)
 .debug_abbrev  0x000111db      0x132 /package/eda/altera/altera13.0sp1/nios2eds/bin/gnu/H-i686-pc-linux-gnu/bin/../lib/gcc/nios2-elf/4.1.2/mno-hw-mul/libgcc.a(_fpcmp_parts_df.o)
 .debug_abbrev  0x0001130d      0x122 ../demo_board_bsp//libhal_bsp.a(alt_close.o)
 .debug_abbrev  0x0001142f       0xd6 ../demo_board_bsp//libhal_bsp.a(alt_dev.o)
 .debug_abbrev  0x00011505      0x172 ../demo_board_bsp//libhal_bsp.a(alt_env_lock.o)
 .debug_abbrev  0x00011677       0x5e ../demo_board_bsp//libhal_bsp.a(alt_errno.o)
 .debug_abbrev  0x000116d5       0x9f ../demo_board_bsp//libhal_bsp.a(alt_exit.o)
 .debug_abbrev  0x00011774      0x124 ../demo_board_bsp//libhal_bsp.a(alt_fstat.o)
 .debug_abbrev  0x00011898      0x124 ../demo_board_bsp//libhal_bsp.a(alt_isatty.o)
 .debug_abbrev  0x000119bc       0xb6 ../demo_board_bsp//libhal_bsp.a(alt_load.o)
 .debug_abbrev  0x00011a72      0x122 ../demo_board_bsp//libhal_bsp.a(alt_lseek.o)
 .debug_abbrev  0x00011b94       0xb7 ../demo_board_bsp//libhal_bsp.a(alt_main.o)
 .debug_abbrev  0x00011c4b      0x172 ../demo_board_bsp//libhal_bsp.a(alt_malloc_lock.o)
 .debug_abbrev  0x00011dbd      0x179 ../demo_board_bsp//libhal_bsp.a(alt_open.o)
 .debug_abbrev  0x00011f36      0x131 ../demo_board_bsp//libhal_bsp.a(alt_read.o)
 .debug_abbrev  0x00012067       0xdb ../demo_board_bsp//libhal_bsp.a(alt_release_fd.o)
 .debug_abbrev  0x00012142      0x10b ../demo_board_bsp//libhal_bsp.a(alt_sbrk.o)
 .debug_abbrev  0x0001224d      0x136 ../demo_board_bsp//libhal_bsp.a(alt_write.o)
 .debug_abbrev  0x00012383      0x19f ../demo_board_bsp//libhal_bsp.a(alt_sys_init.o)
 .debug_abbrev  0x00012522      0x213 ../demo_board_bsp//libhal_bsp.a(altera_avalon_cfi_flash.o)
 .debug_abbrev  0x00012735      0x286 ../demo_board_bsp//libhal_bsp.a(altera_avalon_cfi_flash_table.o)
 .debug_abbrev  0x000129bb      0x113 ../demo_board_bsp//libhal_bsp.a(altera_avalon_jtag_uart_fd.o)
 .debug_abbrev  0x00012ace      0x1a5 ../demo_board_bsp//libhal_bsp.a(altera_avalon_jtag_uart_init.o)
 .debug_abbrev  0x00012c73      0x10a ../demo_board_bsp//libhal_bsp.a(altera_avalon_jtag_uart_ioctl.o)
 .debug_abbrev  0x00012d7d      0x194 ../demo_board_bsp//libhal_bsp.a(altera_avalon_jtag_uart_read.o)
 .debug_abbrev  0x00012f11      0x18c ../demo_board_bsp//libhal_bsp.a(altera_avalon_jtag_uart_write.o)
 .debug_abbrev  0x0001309d      0x11d ../demo_board_bsp//libhal_bsp.a(altera_avalon_performance_counter.o)
 .debug_abbrev  0x000131ba      0x2ec ../demo_board_bsp//libhal_bsp.a(altera_ro_zipfs.o)
 .debug_abbrev  0x000134a6      0x26e ../demo_board_bsp//libhal_bsp.a(altera_up_avalon_video_pixel_buffer_dma.o)
 .debug_abbrev  0x00013714       0xa6 ../demo_board_bsp//libhal_bsp.a(perf_print_formatted_report.o)
 .debug_abbrev  0x000137ba      0x179 ../demo_board_bsp//libhal_bsp.a(alt_alarm_start.o)
 .debug_abbrev  0x00013933       0x71 ../demo_board_bsp//libhal_bsp.a(alt_dcache_flush.o)
 .debug_abbrev  0x000139a4       0x3f ../demo_board_bsp//libhal_bsp.a(alt_dcache_flush_all.o)
 .debug_abbrev  0x000139e3      0x117 ../demo_board_bsp//libhal_bsp.a(alt_dev_llist_insert.o)
 .debug_abbrev  0x00013afa       0x76 ../demo_board_bsp//libhal_bsp.a(alt_do_ctors.o)
 .debug_abbrev  0x00013b70       0x76 ../demo_board_bsp//libhal_bsp.a(alt_do_dtors.o)
 .debug_abbrev  0x00013be6       0xeb ../demo_board_bsp//libhal_bsp.a(alt_find_dev.o)
 .debug_abbrev  0x00013cd1       0xed ../demo_board_bsp//libhal_bsp.a(alt_find_file.o)
 .debug_abbrev  0x00013dbe      0x114 ../demo_board_bsp//libhal_bsp.a(alt_flash_dev.o)
 .debug_abbrev  0x00013ed2      0x101 ../demo_board_bsp//libhal_bsp.a(alt_fs_reg.o)
 .debug_abbrev  0x00013fd3      0x117 ../demo_board_bsp//libhal_bsp.a(alt_get_fd.o)
 .debug_abbrev  0x000140ea       0x3f ../demo_board_bsp//libhal_bsp.a(alt_icache_flush_all.o)
 .debug_abbrev  0x00014129      0x160 ../demo_board_bsp//libhal_bsp.a(alt_iic.o)
 .debug_abbrev  0x00014289      0x17c ../demo_board_bsp//libhal_bsp.a(alt_iic_isr_register.o)
 .debug_abbrev  0x00014405      0x142 ../demo_board_bsp//libhal_bsp.a(alt_io_redirect.o)
 .debug_abbrev  0x00014547       0x12 ../demo_board_bsp//libhal_bsp.a(alt_irq_entry.o)
 .debug_abbrev  0x00014559      0x115 ../demo_board_bsp//libhal_bsp.a(alt_irq_handler.o)
 .debug_abbrev  0x0001466e       0x44 ../demo_board_bsp//libhal_bsp.a(alt_irq_vars.o)
 .debug_abbrev  0x000146b2      0x173 ../demo_board_bsp//libhal_bsp.a(alt_tick.o)
 .debug_abbrev  0x00014825       0x3f ../demo_board_bsp//libhal_bsp.a(altera_nios2_qsys_irq.o)
 .debug_abbrev  0x00014864      0x1b4 ../demo_board_bsp//libhal_bsp.a(altera_avalon_cfi_flash_amd.o)
 .debug_abbrev  0x00014a18      0x12f ../demo_board_bsp//libhal_bsp.a(altera_avalon_cfi_flash_intel.o)
 .debug_abbrev  0x00014b47       0x12 ../demo_board_bsp//libhal_bsp.a(alt_exception_entry.o)
 .debug_abbrev  0x00014b59       0x5d ../demo_board_bsp//libhal_bsp.a(alt_usleep.o)
 .debug_abbrev  0x00014bb6       0x79 ../demo_board_bsp//libhal_bsp.a(alt_busy_sleep.o)
 .debug_abbrev  0x00014c2f       0xb7 /package/eda/altera/altera13.0sp1/nios2eds/bin/gnu/H-i686-pc-linux-gnu/bin/../lib/gcc/nios2-elf/4.1.2/../../../../nios2-elf/lib/mno-hw-mul/libc.a(lib_a-atexit.o)
 .debug_abbrev  0x00014ce6       0x7c /package/eda/altera/altera13.0sp1/nios2eds/bin/gnu/H-i686-pc-linux-gnu/bin/../lib/gcc/nios2-elf/4.1.2/../../../../nios2-elf/lib/mno-hw-mul/libc.a(lib_a-memcmp.o)
 .debug_abbrev  0x00014d62      0x1ae /package/eda/altera/altera13.0sp1/nios2eds/bin/gnu/H-i686-pc-linux-gnu/bin/../lib/gcc/nios2-elf/4.1.2/../../../../nios2-elf/lib/mno-hw-mul/libc.a(lib_a-__atexit.o)
 .debug_abbrev  0x00014f10       0x6c /package/eda/altera/altera13.0sp1/nios2eds/bin/gnu/H-i686-pc-linux-gnu/bin/../lib/gcc/nios2-elf/4.1.2/mno-hw-mul/libgcc.a(_floatundidf.o)
 .debug_abbrev  0x00014f7c       0x5a /package/eda/altera/altera13.0sp1/nios2eds/bin/gnu/H-i686-pc-linux-gnu/bin/../lib/gcc/nios2-elf/4.1.2/mno-hw-mul/libgcc.a(lib2-divtable.o)

.debug_line     0x00000000    0x42b4b
 *(.debug_line)
 .debug_line    0x00000000       0x66 ../demo_board_bsp//obj/HAL/src/crt0.o
 .debug_line    0x00000066      0x2f5 obj/default/cdjpeg.o
 .debug_line    0x0000035b      0xc19 obj/default/djpeg.o
 .debug_line    0x00000f74      0x596 obj/default/jcapimin.o
 .debug_line    0x0000150a      0x45c obj/default/jcapistd.o
 .debug_line    0x00001966      0x97d obj/default/jccoefct.o
 .debug_line    0x000022e3      0x94f obj/default/jccolor.o
 .debug_line    0x00002c32      0x790 obj/default/jcdctmgr.o
 .debug_line    0x000033c2     0x15a4 obj/default/jchuff.o
 .debug_line    0x00004966      0x2c3 obj/default/jcinit.o
 .debug_line    0x00004c29      0x433 obj/default/jcmainct.o
 .debug_line    0x0000505c      0xc0b obj/default/jcmarker.o
 .debug_line    0x00005c67      0xda8 obj/default/jcmaster.o
 .debug_line    0x00006a0f      0x308 obj/default/jcomapi.o
 .debug_line    0x00006d17      0xb90 obj/default/jcparam.o
 .debug_line    0x000078a7     0x1c02 obj/default/jcphuff.o
 .debug_line    0x000094a9      0x73d obj/default/jcprepct.o
 .debug_line    0x00009be6      0xde2 obj/default/jcsample.o
 .debug_line    0x0000a9c8      0x84f obj/default/jctrans.o
 .debug_line    0x0000b217      0x7ac obj/default/jdapimin.o
 .debug_line    0x0000b9c3      0x700 obj/default/jdapistd.o
 .debug_line    0x0000c0c3      0x413 obj/default/jdatadst.o
 .debug_line    0x0000c4d6      0x41a obj/default/jdatasrc.o
 .debug_line    0x0000c8f0     0x1023 obj/default/jdcoefct.o
 .debug_line    0x0000d913      0x86f obj/default/jdcolor.o
 .debug_line    0x0000e182      0x43e obj/default/jddctmgr.o
 .debug_line    0x0000e5c0      0xc47 obj/default/jdhuff.o
 .debug_line    0x0000f207      0x7fb obj/default/jdinput.o
 .debug_line    0x0000fa02      0x9d6 obj/default/jdmainct.o
 .debug_line    0x000103d8     0x14f9 obj/default/jdmarker.o
 .debug_line    0x000118d1      0x9a1 obj/default/jdmaster.o
 .debug_line    0x00012272      0xb89 obj/default/jdmerge.o
 .debug_line    0x00012dfb      0xeb7 obj/default/jdphuff.o
 .debug_line    0x00013cb2      0x597 obj/default/jdpostct.o
 .debug_line    0x00014249      0xa87 obj/default/jdsample.o
 .debug_line    0x00014cd0      0x36d obj/default/jdtrans.o
 .debug_line    0x0001503d      0x479 obj/default/jerror.o
 .debug_line    0x000154b6      0x6e7 obj/default/jfdctflt.o
 .debug_line    0x00015b9d      0x60b obj/default/jfdctfst.o
 .debug_line    0x000161a8      0x6e1 obj/default/jfdctint.o
 .debug_line    0x00016889      0x973 obj/default/jidctflt.o
 .debug_line    0x000171fc      0x9b7 obj/default/jidctfst.o
 .debug_line    0x00017bb3      0xb75 obj/default/jidctint.o
 .debug_line    0x00018728      0x8fe obj/default/jidctred.o
 .debug_line    0x00019026     0x12fa obj/default/jmemmgr.o
 .debug_line    0x0001a320      0x2f4 obj/default/jmemnobs.o
 .debug_line    0x0001a614     0x10b1 obj/default/jquant1.o
 .debug_line    0x0001b6c5     0x1a19 obj/default/jquant2.o
 .debug_line    0x0001d0de      0x33d obj/default/jutils.o
 .debug_line    0x0001d41b      0x67f obj/default/rdcolmap.o
 .debug_line    0x0001da9a      0xb38 obj/default/wrbmp.o
 .debug_line    0x0001e5d2      0xb24 obj/default/wrgif.o
 .debug_line    0x0001f0f6      0x663 obj/default/wrppm.o
 .debug_line    0x0001f759      0x21a obj/default/wrrle.o
 .debug_line    0x0001f973      0x73e obj/default/wrtarga.o
 .debug_line    0x000200b1      0x3af /package/eda/altera/altera13.0sp1/nios2eds/bin/gnu/H-i686-pc-linux-gnu/bin/../lib/gcc/nios2-elf/4.1.2/mno-hw-mul/libgcc.a(_addsub_sf.o)
 .debug_line    0x00020460      0x2c1 /package/eda/altera/altera13.0sp1/nios2eds/bin/gnu/H-i686-pc-linux-gnu/bin/../lib/gcc/nios2-elf/4.1.2/mno-hw-mul/libgcc.a(_mul_sf.o)
 .debug_line    0x00020721      0x187 /package/eda/altera/altera13.0sp1/nios2eds/bin/gnu/H-i686-pc-linux-gnu/bin/../lib/gcc/nios2-elf/4.1.2/mno-hw-mul/libgcc.a(_si_to_sf.o)
 .debug_line    0x000208a8      0x141 /package/eda/altera/altera13.0sp1/nios2eds/bin/gnu/H-i686-pc-linux-gnu/bin/../lib/gcc/nios2-elf/4.1.2/mno-hw-mul/libgcc.a(_sf_to_si.o)
 .debug_line    0x000209e9       0x94 /package/eda/altera/altera13.0sp1/nios2eds/bin/gnu/H-i686-pc-linux-gnu/bin/../lib/gcc/nios2-elf/4.1.2/mno-hw-mul/libgcc.a(_thenan_sf.o)
 .debug_line    0x00020a7d      0x3e5 /package/eda/altera/altera13.0sp1/nios2eds/bin/gnu/H-i686-pc-linux-gnu/bin/../lib/gcc/nios2-elf/4.1.2/mno-hw-mul/libgcc.a(_mul_df.o)
 .debug_line    0x00020e62      0x301 /package/eda/altera/altera13.0sp1/nios2eds/bin/gnu/H-i686-pc-linux-gnu/bin/../lib/gcc/nios2-elf/4.1.2/mno-hw-mul/libgcc.a(_div_df.o)
 .debug_line    0x00021163      0x121 /package/eda/altera/altera13.0sp1/nios2eds/bin/gnu/H-i686-pc-linux-gnu/bin/../lib/gcc/nios2-elf/4.1.2/mno-hw-mul/libgcc.a(_df_to_sf.o)
 .debug_line    0x00021284       0x94 /package/eda/altera/altera13.0sp1/nios2eds/bin/gnu/H-i686-pc-linux-gnu/bin/../lib/gcc/nios2-elf/4.1.2/mno-hw-mul/libgcc.a(_thenan_df.o)
 .debug_line    0x00021318      0x189 /package/eda/altera/altera13.0sp1/nios2eds/bin/gnu/H-i686-pc-linux-gnu/bin/../lib/gcc/nios2-elf/4.1.2/mno-hw-mul/libgcc.a(_usi_to_df.o)
 .debug_line    0x000214a1      0x2c6 /package/eda/altera/altera13.0sp1/nios2eds/bin/gnu/H-i686-pc-linux-gnu/bin/../lib/gcc/nios2-elf/4.1.2/mno-hw-mul/libgcc.a(lib2-divmod.o)
 .debug_line    0x00021767      0x191 /package/eda/altera/altera13.0sp1/nios2eds/bin/gnu/H-i686-pc-linux-gnu/bin/../lib/gcc/nios2-elf/4.1.2/mno-hw-mul/libgcc.a(lib2-mul.o)
 .debug_line    0x000218f8      0x1c6 /package/eda/altera/altera13.0sp1/nios2eds/bin/gnu/H-i686-pc-linux-gnu/bin/../lib/gcc/nios2-elf/4.1.2/mno-hw-mul/libgcc.a(_muldi3.o)
 .debug_line    0x00021abe      0x17c /package/eda/altera/altera13.0sp1/nios2eds/bin/gnu/H-i686-pc-linux-gnu/bin/../lib/gcc/nios2-elf/4.1.2/mno-hw-mul/libgcc.a(_clzsi2.o)
 .debug_line    0x00021c3a      0x1ca /package/eda/altera/altera13.0sp1/nios2eds/bin/gnu/H-i686-pc-linux-gnu/bin/../lib/gcc/nios2-elf/4.1.2/mno-hw-mul/libgcc.a(_pack_sf.o)
 .debug_line    0x00021e04      0x197 /package/eda/altera/altera13.0sp1/nios2eds/bin/gnu/H-i686-pc-linux-gnu/bin/../lib/gcc/nios2-elf/4.1.2/mno-hw-mul/libgcc.a(_unpack_sf.o)
 .debug_line    0x00021f9b       0xe1 /package/eda/altera/altera13.0sp1/nios2eds/bin/gnu/H-i686-pc-linux-gnu/bin/../lib/gcc/nios2-elf/4.1.2/mno-hw-mul/libgcc.a(_make_sf.o)
 .debug_line    0x0002207c      0x222 /package/eda/altera/altera13.0sp1/nios2eds/bin/gnu/H-i686-pc-linux-gnu/bin/../lib/gcc/nios2-elf/4.1.2/mno-hw-mul/libgcc.a(_pack_df.o)
 .debug_line    0x0002229e      0x1e4 /package/eda/altera/altera13.0sp1/nios2eds/bin/gnu/H-i686-pc-linux-gnu/bin/../lib/gcc/nios2-elf/4.1.2/mno-hw-mul/libgcc.a(_unpack_df.o)
 .debug_line    0x00022482      0x121 /package/eda/altera/altera13.0sp1/nios2eds/bin/gnu/H-i686-pc-linux-gnu/bin/../lib/gcc/nios2-elf/4.1.2/mno-hw-mul/libgcc.a(_clz.o)
 .debug_line    0x000225a3       0x81 /package/eda/altera/altera13.0sp1/nios2eds/bin/gnu/H-i686-pc-linux-gnu/bin/../lib/gcc/nios2-elf/4.1.2/../../../../nios2-elf/lib/mno-hw-mul/libc.a(lib_a-ctype_.o)
 .debug_line    0x00022624      0x23b /package/eda/altera/altera13.0sp1/nios2eds/bin/gnu/H-i686-pc-linux-gnu/bin/../lib/gcc/nios2-elf/4.1.2/../../../../nios2-elf/lib/mno-hw-mul/libc.a(lib_a-exit.o)
 .debug_line    0x0002285f      0x2eb /package/eda/altera/altera13.0sp1/nios2eds/bin/gnu/H-i686-pc-linux-gnu/bin/../lib/gcc/nios2-elf/4.1.2/../../../../nios2-elf/lib/mno-hw-mul/libc.a(lib_a-fclose.o)
 .debug_line    0x00022b4a      0x410 /package/eda/altera/altera13.0sp1/nios2eds/bin/gnu/H-i686-pc-linux-gnu/bin/../lib/gcc/nios2-elf/4.1.2/../../../../nios2-elf/lib/mno-hw-mul/libc.a(lib_a-fflush.o)
 .debug_line    0x00022f5a      0x60c /package/eda/altera/altera13.0sp1/nios2eds/bin/gnu/H-i686-pc-linux-gnu/bin/../lib/gcc/nios2-elf/4.1.2/../../../../nios2-elf/lib/mno-hw-mul/libc.a(lib_a-findfp.o)
 .debug_line    0x00023566      0x345 /package/eda/altera/altera13.0sp1/nios2eds/bin/gnu/H-i686-pc-linux-gnu/bin/../lib/gcc/nios2-elf/4.1.2/../../../../nios2-elf/lib/mno-hw-mul/libc.a(lib_a-fopen.o)
 .debug_line    0x000238ab      0x287 /package/eda/altera/altera13.0sp1/nios2eds/bin/gnu/H-i686-pc-linux-gnu/bin/../lib/gcc/nios2-elf/4.1.2/../../../../nios2-elf/lib/mno-hw-mul/libc.a(lib_a-fprintf.o)
 .debug_line    0x00023b32      0x288 /package/eda/altera/altera13.0sp1/nios2eds/bin/gnu/H-i686-pc-linux-gnu/bin/../lib/gcc/nios2-elf/4.1.2/../../../../nios2-elf/lib/mno-hw-mul/libc.a(lib_a-fputc.o)
 .debug_line    0x00023dba      0x469 /package/eda/altera/altera13.0sp1/nios2eds/bin/gnu/H-i686-pc-linux-gnu/bin/../lib/gcc/nios2-elf/4.1.2/../../../../nios2-elf/lib/mno-hw-mul/libc.a(lib_a-fread.o)
 .debug_line    0x00024223      0x5ee /package/eda/altera/altera13.0sp1/nios2eds/bin/gnu/H-i686-pc-linux-gnu/bin/../lib/gcc/nios2-elf/4.1.2/../../../../nios2-elf/lib/mno-hw-mul/libc.a(lib_a-freer.o)
 .debug_line    0x00024811      0x5ae /package/eda/altera/altera13.0sp1/nios2eds/bin/gnu/H-i686-pc-linux-gnu/bin/../lib/gcc/nios2-elf/4.1.2/../../../../nios2-elf/lib/mno-hw-mul/libc.a(lib_a-fseek.o)
 .debug_line    0x00024dbf      0x267 /package/eda/altera/altera13.0sp1/nios2eds/bin/gnu/H-i686-pc-linux-gnu/bin/../lib/gcc/nios2-elf/4.1.2/../../../../nios2-elf/lib/mno-hw-mul/libc.a(lib_a-fstatr.o)
 .debug_line    0x00025026      0x34d /package/eda/altera/altera13.0sp1/nios2eds/bin/gnu/H-i686-pc-linux-gnu/bin/../lib/gcc/nios2-elf/4.1.2/../../../../nios2-elf/lib/mno-hw-mul/libc.a(lib_a-fwalk.o)
 .debug_line    0x00025373      0x2e4 /package/eda/altera/altera13.0sp1/nios2eds/bin/gnu/H-i686-pc-linux-gnu/bin/../lib/gcc/nios2-elf/4.1.2/../../../../nios2-elf/lib/mno-hw-mul/libc.a(lib_a-fwrite.o)
 .debug_line    0x00025657      0x2a7 /package/eda/altera/altera13.0sp1/nios2eds/bin/gnu/H-i686-pc-linux-gnu/bin/../lib/gcc/nios2-elf/4.1.2/../../../../nios2-elf/lib/mno-hw-mul/libc.a(lib_a-getc.o)
 .debug_line    0x000258fe      0x259 /package/eda/altera/altera13.0sp1/nios2eds/bin/gnu/H-i686-pc-linux-gnu/bin/../lib/gcc/nios2-elf/4.1.2/../../../../nios2-elf/lib/mno-hw-mul/libc.a(lib_a-getenv.o)
 .debug_line    0x00025b57      0x2b3 /package/eda/altera/altera13.0sp1/nios2eds/bin/gnu/H-i686-pc-linux-gnu/bin/../lib/gcc/nios2-elf/4.1.2/../../../../nios2-elf/lib/mno-hw-mul/libc.a(lib_a-getenv_r.o)
 .debug_line    0x00025e0a      0x230 /package/eda/altera/altera13.0sp1/nios2eds/bin/gnu/H-i686-pc-linux-gnu/bin/../lib/gcc/nios2-elf/4.1.2/../../../../nios2-elf/lib/mno-hw-mul/libc.a(lib_a-impure.o)
 .debug_line    0x0002603a      0x1e2 /package/eda/altera/altera13.0sp1/nios2eds/bin/gnu/H-i686-pc-linux-gnu/bin/../lib/gcc/nios2-elf/4.1.2/../../../../nios2-elf/lib/mno-hw-mul/libc.a(lib_a-int_errno.o)
 .debug_line    0x0002621c      0x3c6 /package/eda/altera/altera13.0sp1/nios2eds/bin/gnu/H-i686-pc-linux-gnu/bin/../lib/gcc/nios2-elf/4.1.2/../../../../nios2-elf/lib/mno-hw-mul/libc.a(lib_a-makebuf.o)
 .debug_line    0x000265e2      0x24e /package/eda/altera/altera13.0sp1/nios2eds/bin/gnu/H-i686-pc-linux-gnu/bin/../lib/gcc/nios2-elf/4.1.2/../../../../nios2-elf/lib/mno-hw-mul/libc.a(lib_a-malloc.o)
 .debug_line    0x00026830      0x80d /package/eda/altera/altera13.0sp1/nios2eds/bin/gnu/H-i686-pc-linux-gnu/bin/../lib/gcc/nios2-elf/4.1.2/../../../../nios2-elf/lib/mno-hw-mul/libc.a(lib_a-mallocr.o)
 .debug_line    0x0002703d      0x1af /package/eda/altera/altera13.0sp1/nios2eds/bin/gnu/H-i686-pc-linux-gnu/bin/../lib/gcc/nios2-elf/4.1.2/../../../../nios2-elf/lib/mno-hw-mul/libc.a(lib_a-memcpy.o)
 .debug_line    0x000271ec      0x304 /package/eda/altera/altera13.0sp1/nios2eds/bin/gnu/H-i686-pc-linux-gnu/bin/../lib/gcc/nios2-elf/4.1.2/../../../../nios2-elf/lib/mno-hw-mul/libc.a(lib_a-memset.o)
 .debug_line    0x000274f0      0x27e /package/eda/altera/altera13.0sp1/nios2eds/bin/gnu/H-i686-pc-linux-gnu/bin/../lib/gcc/nios2-elf/4.1.2/../../../../nios2-elf/lib/mno-hw-mul/libc.a(lib_a-openr.o)
 .debug_line    0x0002776e      0x29e /package/eda/altera/altera13.0sp1/nios2eds/bin/gnu/H-i686-pc-linux-gnu/bin/../lib/gcc/nios2-elf/4.1.2/../../../../nios2-elf/lib/mno-hw-mul/libc.a(lib_a-printf.o)
 .debug_line    0x00027a0c      0x2c7 /package/eda/altera/altera13.0sp1/nios2eds/bin/gnu/H-i686-pc-linux-gnu/bin/../lib/gcc/nios2-elf/4.1.2/../../../../nios2-elf/lib/mno-hw-mul/libc.a(lib_a-putc.o)
 .debug_line    0x00027cd3      0x2fa /package/eda/altera/altera13.0sp1/nios2eds/bin/gnu/H-i686-pc-linux-gnu/bin/../lib/gcc/nios2-elf/4.1.2/../../../../nios2-elf/lib/mno-hw-mul/libc.a(lib_a-puts.o)
 .debug_line    0x00027fcd      0x3c7 /package/eda/altera/altera13.0sp1/nios2eds/bin/gnu/H-i686-pc-linux-gnu/bin/../lib/gcc/nios2-elf/4.1.2/../../../../nios2-elf/lib/mno-hw-mul/libc.a(lib_a-refill.o)
 .debug_line    0x00028394      0x290 /package/eda/altera/altera13.0sp1/nios2eds/bin/gnu/H-i686-pc-linux-gnu/bin/../lib/gcc/nios2-elf/4.1.2/../../../../nios2-elf/lib/mno-hw-mul/libc.a(lib_a-rget.o)
 .debug_line    0x00028624      0x29c /package/eda/altera/altera13.0sp1/nios2eds/bin/gnu/H-i686-pc-linux-gnu/bin/../lib/gcc/nios2-elf/4.1.2/../../../../nios2-elf/lib/mno-hw-mul/libc.a(lib_a-sbrkr.o)
 .debug_line    0x000288c0      0x325 /package/eda/altera/altera13.0sp1/nios2eds/bin/gnu/H-i686-pc-linux-gnu/bin/../lib/gcc/nios2-elf/4.1.2/../../../../nios2-elf/lib/mno-hw-mul/libc.a(lib_a-sprintf.o)
 .debug_line    0x00028be5      0x364 /package/eda/altera/altera13.0sp1/nios2eds/bin/gnu/H-i686-pc-linux-gnu/bin/../lib/gcc/nios2-elf/4.1.2/../../../../nios2-elf/lib/mno-hw-mul/libc.a(lib_a-sscanf.o)
 .debug_line    0x00028f49      0x38f /package/eda/altera/altera13.0sp1/nios2eds/bin/gnu/H-i686-pc-linux-gnu/bin/../lib/gcc/nios2-elf/4.1.2/../../../../nios2-elf/lib/mno-hw-mul/libc.a(lib_a-stdio.o)
 .debug_line    0x000292d8      0x212 /package/eda/altera/altera13.0sp1/nios2eds/bin/gnu/H-i686-pc-linux-gnu/bin/../lib/gcc/nios2-elf/4.1.2/../../../../nios2-elf/lib/mno-hw-mul/libc.a(lib_a-strdup.o)
 .debug_line    0x000294ea      0x234 /package/eda/altera/altera13.0sp1/nios2eds/bin/gnu/H-i686-pc-linux-gnu/bin/../lib/gcc/nios2-elf/4.1.2/../../../../nios2-elf/lib/mno-hw-mul/libc.a(lib_a-strdup_r.o)
 .debug_line    0x0002971e      0x270 /package/eda/altera/altera13.0sp1/nios2eds/bin/gnu/H-i686-pc-linux-gnu/bin/../lib/gcc/nios2-elf/4.1.2/../../../../nios2-elf/lib/mno-hw-mul/libc.a(lib_a-strlen.o)
 .debug_line    0x0002998e      0x301 /package/eda/altera/altera13.0sp1/nios2eds/bin/gnu/H-i686-pc-linux-gnu/bin/../lib/gcc/nios2-elf/4.1.2/../../../../nios2-elf/lib/mno-hw-mul/libc.a(lib_a-strncmp.o)
 .debug_line    0x00029c8f     0x110f /package/eda/altera/altera13.0sp1/nios2eds/bin/gnu/H-i686-pc-linux-gnu/bin/../lib/gcc/nios2-elf/4.1.2/../../../../nios2-elf/lib/mno-hw-mul/libc.a(lib_a-vfprintf.o)
 .debug_line    0x0002ad9e     0x1037 /package/eda/altera/altera13.0sp1/nios2eds/bin/gnu/H-i686-pc-linux-gnu/bin/../lib/gcc/nios2-elf/4.1.2/../../../../nios2-elf/lib/mno-hw-mul/libc.a(lib_a-vfscanf.o)
 .debug_line    0x0002bdd5      0x353 /package/eda/altera/altera13.0sp1/nios2eds/bin/gnu/H-i686-pc-linux-gnu/bin/../lib/gcc/nios2-elf/4.1.2/../../../../nios2-elf/lib/mno-hw-mul/libc.a(lib_a-wbuf.o)
 .debug_line    0x0002c128      0x29d /package/eda/altera/altera13.0sp1/nios2eds/bin/gnu/H-i686-pc-linux-gnu/bin/../lib/gcc/nios2-elf/4.1.2/../../../../nios2-elf/lib/mno-hw-mul/libc.a(lib_a-writer.o)
 .debug_line    0x0002c3c5      0x2f3 /package/eda/altera/altera13.0sp1/nios2eds/bin/gnu/H-i686-pc-linux-gnu/bin/../lib/gcc/nios2-elf/4.1.2/../../../../nios2-elf/lib/mno-hw-mul/libc.a(lib_a-wsetup.o)
 .debug_line    0x0002c6b8      0x36a /package/eda/altera/altera13.0sp1/nios2eds/bin/gnu/H-i686-pc-linux-gnu/bin/../lib/gcc/nios2-elf/4.1.2/../../../../nios2-elf/lib/mno-hw-mul/libc.a(lib_a-__call_atexit.o)
 .debug_line    0x0002ca22      0x29d /package/eda/altera/altera13.0sp1/nios2eds/bin/gnu/H-i686-pc-linux-gnu/bin/../lib/gcc/nios2-elf/4.1.2/../../../../nios2-elf/lib/mno-hw-mul/libc.a(lib_a-closer.o)
 .debug_line    0x0002ccbf     0x1309 /package/eda/altera/altera13.0sp1/nios2eds/bin/gnu/H-i686-pc-linux-gnu/bin/../lib/gcc/nios2-elf/4.1.2/../../../../nios2-elf/lib/mno-hw-mul/libc.a(lib_a-dtoa.o)
 .debug_line    0x0002dfc8       0x83 /package/eda/altera/altera13.0sp1/nios2eds/bin/gnu/H-i686-pc-linux-gnu/bin/../lib/gcc/nios2-elf/4.1.2/../../../../nios2-elf/lib/mno-hw-mul/libc.a(lib_a-environ.o)
 .debug_line    0x0002e04b      0x299 /package/eda/altera/altera13.0sp1/nios2eds/bin/gnu/H-i686-pc-linux-gnu/bin/../lib/gcc/nios2-elf/4.1.2/../../../../nios2-elf/lib/mno-hw-mul/libc.a(lib_a-flags.o)
 .debug_line    0x0002e2e4      0x644 /package/eda/altera/altera13.0sp1/nios2eds/bin/gnu/H-i686-pc-linux-gnu/bin/../lib/gcc/nios2-elf/4.1.2/../../../../nios2-elf/lib/mno-hw-mul/libc.a(lib_a-fvwrite.o)
 .debug_line    0x0002e928      0x29e /package/eda/altera/altera13.0sp1/nios2eds/bin/gnu/H-i686-pc-linux-gnu/bin/../lib/gcc/nios2-elf/4.1.2/../../../../nios2-elf/lib/mno-hw-mul/libc.a(lib_a-isattyr.o)
 .debug_line    0x0002ebc6      0x1fe /package/eda/altera/altera13.0sp1/nios2eds/bin/gnu/H-i686-pc-linux-gnu/bin/../lib/gcc/nios2-elf/4.1.2/../../../../nios2-elf/lib/mno-hw-mul/libc.a(lib_a-iswspace.o)
 .debug_line    0x0002edc4      0x2cb /package/eda/altera/altera13.0sp1/nios2eds/bin/gnu/H-i686-pc-linux-gnu/bin/../lib/gcc/nios2-elf/4.1.2/../../../../nios2-elf/lib/mno-hw-mul/libc.a(lib_a-locale.o)
 .debug_line    0x0002f08f      0x29d /package/eda/altera/altera13.0sp1/nios2eds/bin/gnu/H-i686-pc-linux-gnu/bin/../lib/gcc/nios2-elf/4.1.2/../../../../nios2-elf/lib/mno-hw-mul/libc.a(lib_a-lseekr.o)
 .debug_line    0x0002f32c      0x2c9 /package/eda/altera/altera13.0sp1/nios2eds/bin/gnu/H-i686-pc-linux-gnu/bin/../lib/gcc/nios2-elf/4.1.2/../../../../nios2-elf/lib/mno-hw-mul/libc.a(lib_a-mbrtowc.o)
 .debug_line    0x0002f5f5      0x239 /package/eda/altera/altera13.0sp1/nios2eds/bin/gnu/H-i686-pc-linux-gnu/bin/../lib/gcc/nios2-elf/4.1.2/../../../../nios2-elf/lib/mno-hw-mul/libc.a(lib_a-mbtowc_r.o)
 .debug_line    0x0002f82e      0x306 /package/eda/altera/altera13.0sp1/nios2eds/bin/gnu/H-i686-pc-linux-gnu/bin/../lib/gcc/nios2-elf/4.1.2/../../../../nios2-elf/lib/mno-hw-mul/libc.a(lib_a-memchr.o)
 .debug_line    0x0002fb34      0x30d /package/eda/altera/altera13.0sp1/nios2eds/bin/gnu/H-i686-pc-linux-gnu/bin/../lib/gcc/nios2-elf/4.1.2/../../../../nios2-elf/lib/mno-hw-mul/libc.a(lib_a-memmove.o)
 .debug_line    0x0002fe41     0x125e /package/eda/altera/altera13.0sp1/nios2eds/bin/gnu/H-i686-pc-linux-gnu/bin/../lib/gcc/nios2-elf/4.1.2/../../../../nios2-elf/lib/mno-hw-mul/libc.a(lib_a-mprec.o)
 .debug_line    0x0003109f      0x29c /package/eda/altera/altera13.0sp1/nios2eds/bin/gnu/H-i686-pc-linux-gnu/bin/../lib/gcc/nios2-elf/4.1.2/../../../../nios2-elf/lib/mno-hw-mul/libc.a(lib_a-readr.o)
 .debug_line    0x0003133b      0x58d /package/eda/altera/altera13.0sp1/nios2eds/bin/gnu/H-i686-pc-linux-gnu/bin/../lib/gcc/nios2-elf/4.1.2/../../../../nios2-elf/lib/mno-hw-mul/libc.a(lib_a-reallocr.o)
 .debug_line    0x000318c8      0x225 /package/eda/altera/altera13.0sp1/nios2eds/bin/gnu/H-i686-pc-linux-gnu/bin/../lib/gcc/nios2-elf/4.1.2/../../../../nios2-elf/lib/mno-hw-mul/libc.a(lib_a-s_isinfd.o)
 .debug_line    0x00031aed      0x21d /package/eda/altera/altera13.0sp1/nios2eds/bin/gnu/H-i686-pc-linux-gnu/bin/../lib/gcc/nios2-elf/4.1.2/../../../../nios2-elf/lib/mno-hw-mul/libc.a(lib_a-s_isnand.o)
 .debug_line    0x00031d0a      0x2cc /package/eda/altera/altera13.0sp1/nios2eds/bin/gnu/H-i686-pc-linux-gnu/bin/../lib/gcc/nios2-elf/4.1.2/../../../../nios2-elf/lib/mno-hw-mul/libc.a(lib_a-sccl.o)
 .debug_line    0x00031fd6      0x20b /package/eda/altera/altera13.0sp1/nios2eds/bin/gnu/H-i686-pc-linux-gnu/bin/../lib/gcc/nios2-elf/4.1.2/../../../../nios2-elf/lib/mno-hw-mul/libc.a(lib_a-sf_nan.o)
 .debug_line    0x000321e1      0x2d8 /package/eda/altera/altera13.0sp1/nios2eds/bin/gnu/H-i686-pc-linux-gnu/bin/../lib/gcc/nios2-elf/4.1.2/../../../../nios2-elf/lib/mno-hw-mul/libc.a(lib_a-strcmp.o)
 .debug_line    0x000324b9     0x1000 /package/eda/altera/altera13.0sp1/nios2eds/bin/gnu/H-i686-pc-linux-gnu/bin/../lib/gcc/nios2-elf/4.1.2/../../../../nios2-elf/lib/mno-hw-mul/libc.a(lib_a-strtod.o)
 .debug_line    0x000334b9      0x3f6 /package/eda/altera/altera13.0sp1/nios2eds/bin/gnu/H-i686-pc-linux-gnu/bin/../lib/gcc/nios2-elf/4.1.2/../../../../nios2-elf/lib/mno-hw-mul/libc.a(lib_a-strtol.o)
 .debug_line    0x000338af      0x409 /package/eda/altera/altera13.0sp1/nios2eds/bin/gnu/H-i686-pc-linux-gnu/bin/../lib/gcc/nios2-elf/4.1.2/../../../../nios2-elf/lib/mno-hw-mul/libc.a(lib_a-strtoll_r.o)
 .debug_line    0x00033cb8      0x3bd /package/eda/altera/altera13.0sp1/nios2eds/bin/gnu/H-i686-pc-linux-gnu/bin/../lib/gcc/nios2-elf/4.1.2/../../../../nios2-elf/lib/mno-hw-mul/libc.a(lib_a-strtoul.o)
 .debug_line    0x00034075      0x3b2 /package/eda/altera/altera13.0sp1/nios2eds/bin/gnu/H-i686-pc-linux-gnu/bin/../lib/gcc/nios2-elf/4.1.2/../../../../nios2-elf/lib/mno-hw-mul/libc.a(lib_a-strtoull_r.o)
 .debug_line    0x00034427      0x4a2 /package/eda/altera/altera13.0sp1/nios2eds/bin/gnu/H-i686-pc-linux-gnu/bin/../lib/gcc/nios2-elf/4.1.2/../../../../nios2-elf/lib/mno-hw-mul/libc.a(lib_a-ungetc.o)
 .debug_line    0x000348c9      0x25f /package/eda/altera/altera13.0sp1/nios2eds/bin/gnu/H-i686-pc-linux-gnu/bin/../lib/gcc/nios2-elf/4.1.2/../../../../nios2-elf/lib/mno-hw-mul/libc.a(lib_a-callocr.o)
 .debug_line    0x00034b28      0x920 /package/eda/altera/altera13.0sp1/nios2eds/bin/gnu/H-i686-pc-linux-gnu/bin/../lib/gcc/nios2-elf/4.1.2/../../../../nios2-elf/lib/mno-hw-mul/libc.a(lib_a-gdtoa-gethex.o)
 .debug_line    0x00035448      0x47e /package/eda/altera/altera13.0sp1/nios2eds/bin/gnu/H-i686-pc-linux-gnu/bin/../lib/gcc/nios2-elf/4.1.2/../../../../nios2-elf/lib/mno-hw-mul/libc.a(lib_a-gdtoa-hexnan.o)
 .debug_line    0x000358c6      0x176 /package/eda/altera/altera13.0sp1/nios2eds/bin/gnu/H-i686-pc-linux-gnu/bin/../lib/gcc/nios2-elf/4.1.2/mno-hw-mul/libgcc.a(_fixunsdfsi.o)
 .debug_line    0x00035a3c      0x369 /package/eda/altera/altera13.0sp1/nios2eds/bin/gnu/H-i686-pc-linux-gnu/bin/../lib/gcc/nios2-elf/4.1.2/mno-hw-mul/libgcc.a(_udivdi3.o)
 .debug_line    0x00035da5      0x47c /package/eda/altera/altera13.0sp1/nios2eds/bin/gnu/H-i686-pc-linux-gnu/bin/../lib/gcc/nios2-elf/4.1.2/mno-hw-mul/libgcc.a(_umoddi3.o)
 .debug_line    0x00036221      0x121 /package/eda/altera/altera13.0sp1/nios2eds/bin/gnu/H-i686-pc-linux-gnu/bin/../lib/gcc/nios2-elf/4.1.2/mno-hw-mul/libgcc.a(_ne_sf.o)
 .debug_line    0x00036342      0x121 /package/eda/altera/altera13.0sp1/nios2eds/bin/gnu/H-i686-pc-linux-gnu/bin/../lib/gcc/nios2-elf/4.1.2/mno-hw-mul/libgcc.a(_gt_sf.o)
 .debug_line    0x00036463      0x121 /package/eda/altera/altera13.0sp1/nios2eds/bin/gnu/H-i686-pc-linux-gnu/bin/../lib/gcc/nios2-elf/4.1.2/mno-hw-mul/libgcc.a(_lt_sf.o)
 .debug_line    0x00036584      0x430 /package/eda/altera/altera13.0sp1/nios2eds/bin/gnu/H-i686-pc-linux-gnu/bin/../lib/gcc/nios2-elf/4.1.2/mno-hw-mul/libgcc.a(_addsub_df.o)
 .debug_line    0x000369b4      0x129 /package/eda/altera/altera13.0sp1/nios2eds/bin/gnu/H-i686-pc-linux-gnu/bin/../lib/gcc/nios2-elf/4.1.2/mno-hw-mul/libgcc.a(_eq_df.o)
 .debug_line    0x00036add      0x129 /package/eda/altera/altera13.0sp1/nios2eds/bin/gnu/H-i686-pc-linux-gnu/bin/../lib/gcc/nios2-elf/4.1.2/mno-hw-mul/libgcc.a(_ne_df.o)
 .debug_line    0x00036c06      0x129 /package/eda/altera/altera13.0sp1/nios2eds/bin/gnu/H-i686-pc-linux-gnu/bin/../lib/gcc/nios2-elf/4.1.2/mno-hw-mul/libgcc.a(_gt_df.o)
 .debug_line    0x00036d2f      0x129 /package/eda/altera/altera13.0sp1/nios2eds/bin/gnu/H-i686-pc-linux-gnu/bin/../lib/gcc/nios2-elf/4.1.2/mno-hw-mul/libgcc.a(_ge_df.o)
 .debug_line    0x00036e58      0x129 /package/eda/altera/altera13.0sp1/nios2eds/bin/gnu/H-i686-pc-linux-gnu/bin/../lib/gcc/nios2-elf/4.1.2/mno-hw-mul/libgcc.a(_lt_df.o)
 .debug_line    0x00036f81      0x129 /package/eda/altera/altera13.0sp1/nios2eds/bin/gnu/H-i686-pc-linux-gnu/bin/../lib/gcc/nios2-elf/4.1.2/mno-hw-mul/libgcc.a(_le_df.o)
 .debug_line    0x000370aa      0x175 /package/eda/altera/altera13.0sp1/nios2eds/bin/gnu/H-i686-pc-linux-gnu/bin/../lib/gcc/nios2-elf/4.1.2/mno-hw-mul/libgcc.a(_si_to_df.o)
 .debug_line    0x0003721f      0x149 /package/eda/altera/altera13.0sp1/nios2eds/bin/gnu/H-i686-pc-linux-gnu/bin/../lib/gcc/nios2-elf/4.1.2/mno-hw-mul/libgcc.a(_df_to_si.o)
 .debug_line    0x00037368      0x177 /package/eda/altera/altera13.0sp1/nios2eds/bin/gnu/H-i686-pc-linux-gnu/bin/../lib/gcc/nios2-elf/4.1.2/mno-hw-mul/libgcc.a(_fpcmp_parts_sf.o)
 .debug_line    0x000374df      0x187 /package/eda/altera/altera13.0sp1/nios2eds/bin/gnu/H-i686-pc-linux-gnu/bin/../lib/gcc/nios2-elf/4.1.2/mno-hw-mul/libgcc.a(_fpcmp_parts_df.o)
 .debug_line    0x00037666      0x2d5 ../demo_board_bsp//libhal_bsp.a(alt_close.o)
 .debug_line    0x0003793b      0x276 ../demo_board_bsp//libhal_bsp.a(alt_dev.o)
 .debug_line    0x00037bb1      0x24b ../demo_board_bsp//libhal_bsp.a(alt_env_lock.o)
 .debug_line    0x00037dfc      0x1d4 ../demo_board_bsp//libhal_bsp.a(alt_errno.o)
 .debug_line    0x00037fd0      0x206 ../demo_board_bsp//libhal_bsp.a(alt_exit.o)
 .debug_line    0x000381d6      0x2e1 ../demo_board_bsp//libhal_bsp.a(alt_fstat.o)
 .debug_line    0x000384b7      0x2d8 ../demo_board_bsp//libhal_bsp.a(alt_isatty.o)
 .debug_line    0x0003878f      0x2a5 ../demo_board_bsp//libhal_bsp.a(alt_load.o)
 .debug_line    0x00038a34      0x2d5 ../demo_board_bsp//libhal_bsp.a(alt_lseek.o)
 .debug_line    0x00038d09      0x304 ../demo_board_bsp//libhal_bsp.a(alt_main.o)
 .debug_line    0x0003900d      0x24e ../demo_board_bsp//libhal_bsp.a(alt_malloc_lock.o)
 .debug_line    0x0003925b      0x348 ../demo_board_bsp//libhal_bsp.a(alt_open.o)
 .debug_line    0x000395a3      0x30c ../demo_board_bsp//libhal_bsp.a(alt_read.o)
 .debug_line    0x000398af      0x11d ../demo_board_bsp//libhal_bsp.a(alt_release_fd.o)
 .debug_line    0x000399cc      0x27e ../demo_board_bsp//libhal_bsp.a(alt_sbrk.o)
 .debug_line    0x00039c4a      0x30d ../demo_board_bsp//libhal_bsp.a(alt_write.o)
 .debug_line    0x00039f57      0x3c2 ../demo_board_bsp//libhal_bsp.a(alt_sys_init.o)
 .debug_line    0x0003a319      0x67d ../demo_board_bsp//libhal_bsp.a(altera_avalon_cfi_flash.o)
 .debug_line    0x0003a996      0xbf7 ../demo_board_bsp//libhal_bsp.a(altera_avalon_cfi_flash_table.o)
 .debug_line    0x0003b58d      0x232 ../demo_board_bsp//libhal_bsp.a(altera_avalon_jtag_uart_fd.o)
 .debug_line    0x0003b7bf      0x51d ../demo_board_bsp//libhal_bsp.a(altera_avalon_jtag_uart_init.o)
 .debug_line    0x0003bcdc      0x337 ../demo_board_bsp//libhal_bsp.a(altera_avalon_jtag_uart_ioctl.o)
 .debug_line    0x0003c013      0x460 ../demo_board_bsp//libhal_bsp.a(altera_avalon_jtag_uart_read.o)
 .debug_line    0x0003c473      0x479 ../demo_board_bsp//libhal_bsp.a(altera_avalon_jtag_uart_write.o)
 .debug_line    0x0003c8ec      0x119 ../demo_board_bsp//libhal_bsp.a(altera_avalon_performance_counter.o)
 .debug_line    0x0003ca05      0xc3f ../demo_board_bsp//libhal_bsp.a(altera_ro_zipfs.o)
 .debug_line    0x0003d644      0xd18 ../demo_board_bsp//libhal_bsp.a(altera_up_avalon_video_pixel_buffer_dma.o)
 .debug_line    0x0003e35c      0x2dd ../demo_board_bsp//libhal_bsp.a(perf_print_formatted_report.o)
 .debug_line    0x0003e639      0x2e8 ../demo_board_bsp//libhal_bsp.a(alt_alarm_start.o)
 .debug_line    0x0003e921      0x1db ../demo_board_bsp//libhal_bsp.a(alt_dcache_flush.o)
 .debug_line    0x0003eafc      0x1df ../demo_board_bsp//libhal_bsp.a(alt_dcache_flush_all.o)
 .debug_line    0x0003ecdb      0x28e ../demo_board_bsp//libhal_bsp.a(alt_dev_llist_insert.o)
 .debug_line    0x0003ef69       0xa3 ../demo_board_bsp//libhal_bsp.a(alt_do_ctors.o)
 .debug_line    0x0003f00c       0xa3 ../demo_board_bsp//libhal_bsp.a(alt_do_dtors.o)
 .debug_line    0x0003f0af      0x2a7 ../demo_board_bsp//libhal_bsp.a(alt_find_dev.o)
 .debug_line    0x0003f356      0x2d6 ../demo_board_bsp//libhal_bsp.a(alt_find_file.o)
 .debug_line    0x0003f62c      0x2bc ../demo_board_bsp//libhal_bsp.a(alt_flash_dev.o)
 .debug_line    0x0003f8e8      0x27f ../demo_board_bsp//libhal_bsp.a(alt_fs_reg.o)
 .debug_line    0x0003fb67      0x2c9 ../demo_board_bsp//libhal_bsp.a(alt_get_fd.o)
 .debug_line    0x0003fe30      0x1df ../demo_board_bsp//libhal_bsp.a(alt_icache_flush_all.o)
 .debug_line    0x0004000f      0x2a9 ../demo_board_bsp//libhal_bsp.a(alt_iic.o)
 .debug_line    0x000402b8      0x27d ../demo_board_bsp//libhal_bsp.a(alt_iic_isr_register.o)
 .debug_line    0x00040535      0x3dc ../demo_board_bsp//libhal_bsp.a(alt_io_redirect.o)
 .debug_line    0x00040911       0x6b ../demo_board_bsp//libhal_bsp.a(alt_irq_entry.o)
 .debug_line    0x0004097c      0x28f ../demo_board_bsp//libhal_bsp.a(alt_irq_handler.o)
 .debug_line    0x00040c0b       0x72 ../demo_board_bsp//libhal_bsp.a(alt_irq_vars.o)
 .debug_line    0x00040c7d      0x384 ../demo_board_bsp//libhal_bsp.a(alt_tick.o)
 .debug_line    0x00041001      0x1f8 ../demo_board_bsp//libhal_bsp.a(altera_nios2_qsys_irq.o)
 .debug_line    0x000411f9      0x4b0 ../demo_board_bsp//libhal_bsp.a(altera_avalon_cfi_flash_amd.o)
 .debug_line    0x000416a9      0x4cc ../demo_board_bsp//libhal_bsp.a(altera_avalon_cfi_flash_intel.o)
 .debug_line    0x00041b75       0xab ../demo_board_bsp//libhal_bsp.a(alt_exception_entry.o)
 .debug_line    0x00041c20      0x241 ../demo_board_bsp//libhal_bsp.a(alt_usleep.o)
 .debug_line    0x00041e61      0x2a5 ../demo_board_bsp//libhal_bsp.a(alt_busy_sleep.o)
 .debug_line    0x00042106      0x203 /package/eda/altera/altera13.0sp1/nios2eds/bin/gnu/H-i686-pc-linux-gnu/bin/../lib/gcc/nios2-elf/4.1.2/../../../../nios2-elf/lib/mno-hw-mul/libc.a(lib_a-atexit.o)
 .debug_line    0x00042309      0x2a2 /package/eda/altera/altera13.0sp1/nios2eds/bin/gnu/H-i686-pc-linux-gnu/bin/../lib/gcc/nios2-elf/4.1.2/../../../../nios2-elf/lib/mno-hw-mul/libc.a(lib_a-memcmp.o)
 .debug_line    0x000425ab      0x316 /package/eda/altera/altera13.0sp1/nios2eds/bin/gnu/H-i686-pc-linux-gnu/bin/../lib/gcc/nios2-elf/4.1.2/../../../../nios2-elf/lib/mno-hw-mul/libc.a(lib_a-__atexit.o)
 .debug_line    0x000428c1      0x156 /package/eda/altera/altera13.0sp1/nios2eds/bin/gnu/H-i686-pc-linux-gnu/bin/../lib/gcc/nios2-elf/4.1.2/mno-hw-mul/libgcc.a(_floatundidf.o)
 .debug_line    0x00042a17      0x134 /package/eda/altera/altera13.0sp1/nios2eds/bin/gnu/H-i686-pc-linux-gnu/bin/../lib/gcc/nios2-elf/4.1.2/mno-hw-mul/libgcc.a(lib2-divtable.o)

.debug_frame    0x00000000     0x5128
 *(.debug_frame)
 .debug_frame   0x00000000       0x40 obj/default/cdjpeg.o
 .debug_frame   0x00000040       0xe8 obj/default/djpeg.o
 .debug_frame   0x00000128       0xb0 obj/default/jcapimin.o
 .debug_frame   0x000001d8       0x68 obj/default/jcapistd.o
 .debug_frame   0x00000240       0xe4 obj/default/jccoefct.o
 .debug_frame   0x00000324       0xec obj/default/jccolor.o
 .debug_frame   0x00000410       0xb0 obj/default/jcdctmgr.o
 .debug_frame   0x000004c0      0x164 obj/default/jchuff.o
 .debug_frame   0x00000624       0x2c obj/default/jcinit.o
 .debug_frame   0x00000650       0x68 obj/default/jcmainct.o
 .debug_frame   0x000006b8      0x18c obj/default/jcmarker.o
 .debug_frame   0x00000844       0xe0 obj/default/jcmaster.o
 .debug_frame   0x00000924       0x74 obj/default/jcomapi.o
 .debug_frame   0x00000998      0x144 obj/default/jcparam.o
 .debug_frame   0x00000adc      0x1e8 obj/default/jcphuff.o
 .debug_frame   0x00000cc4       0xd0 obj/default/jcprepct.o
 .debug_frame   0x00000d94      0x16c obj/default/jcsample.o
 .debug_frame   0x00000f00       0xac obj/default/jctrans.o
 .debug_frame   0x00000fac       0xdc obj/default/jdapimin.o
 .debug_frame   0x00001088       0xb4 obj/default/jdapistd.o
 .debug_frame   0x0000113c       0x88 obj/default/jdatadst.o
 .debug_frame   0x000011c4       0x8c obj/default/jdatasrc.o
 .debug_frame   0x00001250      0x134 obj/default/jdcoefct.o
 .debug_frame   0x00001384       0xd0 obj/default/jdcolor.o
 .debug_frame   0x00001454       0x5c obj/default/jddctmgr.o
 .debug_frame   0x000014b0       0xe0 obj/default/jdhuff.o
 .debug_frame   0x00001590       0x9c obj/default/jdinput.o
 .debug_frame   0x0000162c       0xd0 obj/default/jdmainct.o
 .debug_frame   0x000016fc      0x160 obj/default/jdmarker.o
 .debug_frame   0x0000185c       0xb8 obj/default/jdmaster.o
 .debug_frame   0x00001914       0xd0 obj/default/jdmerge.o
 .debug_frame   0x000019e4      0x110 obj/default/jdphuff.o
 .debug_frame   0x00001af4       0xb0 obj/default/jdpostct.o
 .debug_frame   0x00001ba4      0x12c obj/default/jdsample.o
 .debug_frame   0x00001cd0       0x2c obj/default/jdtrans.o
 .debug_frame   0x00001cfc       0x90 obj/default/jerror.o
 .debug_frame   0x00001d8c       0x38 obj/default/jfdctflt.o
 .debug_frame   0x00001dc4       0x38 obj/default/jfdctfst.o
 .debug_frame   0x00001dfc       0x38 obj/default/jfdctint.o
 .debug_frame   0x00001e34       0x3c obj/default/jidctflt.o
 .debug_frame   0x00001e70       0x3c obj/default/jidctfst.o
 .debug_frame   0x00001eac       0x3c obj/default/jidctint.o
 .debug_frame   0x00001ee8       0x84 obj/default/jidctred.o
 .debug_frame   0x00001f6c      0x228 obj/default/jmemmgr.o
 .debug_frame   0x00002194       0x90 obj/default/jmemnobs.o
 .debug_frame   0x00002224      0x1a0 obj/default/jquant1.o
 .debug_frame   0x000023c4      0x17c obj/default/jquant2.o
 .debug_frame   0x00002540       0x84 obj/default/jutils.o
 .debug_frame   0x000025c4       0xa8 obj/default/rdcolmap.o
 .debug_frame   0x0000266c       0xcc obj/default/wrbmp.o
 .debug_frame   0x00002738      0x130 obj/default/wrgif.o
 .debug_frame   0x00002868       0x98 obj/default/wrppm.o
 .debug_frame   0x00002900       0xb8 obj/default/wrtarga.o
 .debug_frame   0x000029b8       0x58 /package/eda/altera/altera13.0sp1/nios2eds/bin/gnu/H-i686-pc-linux-gnu/bin/../lib/gcc/nios2-elf/4.1.2/mno-hw-mul/libgcc.a(_addsub_sf.o)
 .debug_frame   0x00002a10       0x2c /package/eda/altera/altera13.0sp1/nios2eds/bin/gnu/H-i686-pc-linux-gnu/bin/../lib/gcc/nios2-elf/4.1.2/mno-hw-mul/libgcc.a(_mul_sf.o)
 .debug_frame   0x00002a3c       0x28 /package/eda/altera/altera13.0sp1/nios2eds/bin/gnu/H-i686-pc-linux-gnu/bin/../lib/gcc/nios2-elf/4.1.2/mno-hw-mul/libgcc.a(_si_to_sf.o)
 .debug_frame   0x00002a64       0x28 /package/eda/altera/altera13.0sp1/nios2eds/bin/gnu/H-i686-pc-linux-gnu/bin/../lib/gcc/nios2-elf/4.1.2/mno-hw-mul/libgcc.a(_sf_to_si.o)
 .debug_frame   0x00002a8c       0x3c /package/eda/altera/altera13.0sp1/nios2eds/bin/gnu/H-i686-pc-linux-gnu/bin/../lib/gcc/nios2-elf/4.1.2/mno-hw-mul/libgcc.a(_mul_df.o)
 .debug_frame   0x00002ac8       0x30 /package/eda/altera/altera13.0sp1/nios2eds/bin/gnu/H-i686-pc-linux-gnu/bin/../lib/gcc/nios2-elf/4.1.2/mno-hw-mul/libgcc.a(_div_df.o)
 .debug_frame   0x00002af8       0x28 /package/eda/altera/altera13.0sp1/nios2eds/bin/gnu/H-i686-pc-linux-gnu/bin/../lib/gcc/nios2-elf/4.1.2/mno-hw-mul/libgcc.a(_df_to_sf.o)
 .debug_frame   0x00002b20       0x38 /package/eda/altera/altera13.0sp1/nios2eds/bin/gnu/H-i686-pc-linux-gnu/bin/../lib/gcc/nios2-elf/4.1.2/mno-hw-mul/libgcc.a(_usi_to_df.o)
 .debug_frame   0x00002b58       0x70 /package/eda/altera/altera13.0sp1/nios2eds/bin/gnu/H-i686-pc-linux-gnu/bin/../lib/gcc/nios2-elf/4.1.2/mno-hw-mul/libgcc.a(lib2-divmod.o)
 .debug_frame   0x00002bc8       0x20 /package/eda/altera/altera13.0sp1/nios2eds/bin/gnu/H-i686-pc-linux-gnu/bin/../lib/gcc/nios2-elf/4.1.2/mno-hw-mul/libgcc.a(lib2-mul.o)
 .debug_frame   0x00002be8       0x40 /package/eda/altera/altera13.0sp1/nios2eds/bin/gnu/H-i686-pc-linux-gnu/bin/../lib/gcc/nios2-elf/4.1.2/mno-hw-mul/libgcc.a(_muldi3.o)
 .debug_frame   0x00002c28       0x20 /package/eda/altera/altera13.0sp1/nios2eds/bin/gnu/H-i686-pc-linux-gnu/bin/../lib/gcc/nios2-elf/4.1.2/mno-hw-mul/libgcc.a(_clzsi2.o)
 .debug_frame   0x00002c48       0x20 /package/eda/altera/altera13.0sp1/nios2eds/bin/gnu/H-i686-pc-linux-gnu/bin/../lib/gcc/nios2-elf/4.1.2/mno-hw-mul/libgcc.a(_pack_sf.o)
 .debug_frame   0x00002c68       0x20 /package/eda/altera/altera13.0sp1/nios2eds/bin/gnu/H-i686-pc-linux-gnu/bin/../lib/gcc/nios2-elf/4.1.2/mno-hw-mul/libgcc.a(_unpack_sf.o)
 .debug_frame   0x00002c88       0x28 /package/eda/altera/altera13.0sp1/nios2eds/bin/gnu/H-i686-pc-linux-gnu/bin/../lib/gcc/nios2-elf/4.1.2/mno-hw-mul/libgcc.a(_make_sf.o)
 .debug_frame   0x00002cb0       0x2c /package/eda/altera/altera13.0sp1/nios2eds/bin/gnu/H-i686-pc-linux-gnu/bin/../lib/gcc/nios2-elf/4.1.2/mno-hw-mul/libgcc.a(_pack_df.o)
 .debug_frame   0x00002cdc       0x20 /package/eda/altera/altera13.0sp1/nios2eds/bin/gnu/H-i686-pc-linux-gnu/bin/../lib/gcc/nios2-elf/4.1.2/mno-hw-mul/libgcc.a(_unpack_df.o)
 .debug_frame   0x00002cfc       0x28 /package/eda/altera/altera13.0sp1/nios2eds/bin/gnu/H-i686-pc-linux-gnu/bin/../lib/gcc/nios2-elf/4.1.2/../../../../nios2-elf/lib/mno-hw-mul/libc.a(lib_a-exit.o)
 .debug_frame   0x00002d24       0x3c /package/eda/altera/altera13.0sp1/nios2eds/bin/gnu/H-i686-pc-linux-gnu/bin/../lib/gcc/nios2-elf/4.1.2/../../../../nios2-elf/lib/mno-hw-mul/libc.a(lib_a-fclose.o)
 .debug_frame   0x00002d60       0x40 /package/eda/altera/altera13.0sp1/nios2eds/bin/gnu/H-i686-pc-linux-gnu/bin/../lib/gcc/nios2-elf/4.1.2/../../../../nios2-elf/lib/mno-hw-mul/libc.a(lib_a-fflush.o)
 .debug_frame   0x00002da0      0x118 /package/eda/altera/altera13.0sp1/nios2eds/bin/gnu/H-i686-pc-linux-gnu/bin/../lib/gcc/nios2-elf/4.1.2/../../../../nios2-elf/lib/mno-hw-mul/libc.a(lib_a-findfp.o)
 .debug_frame   0x00002eb8       0x40 /package/eda/altera/altera13.0sp1/nios2eds/bin/gnu/H-i686-pc-linux-gnu/bin/../lib/gcc/nios2-elf/4.1.2/../../../../nios2-elf/lib/mno-hw-mul/libc.a(lib_a-fopen.o)
 .debug_frame   0x00002ef8       0x40 /package/eda/altera/altera13.0sp1/nios2eds/bin/gnu/H-i686-pc-linux-gnu/bin/../lib/gcc/nios2-elf/4.1.2/../../../../nios2-elf/lib/mno-hw-mul/libc.a(lib_a-fprintf.o)
 .debug_frame   0x00002f38       0x4c /package/eda/altera/altera13.0sp1/nios2eds/bin/gnu/H-i686-pc-linux-gnu/bin/../lib/gcc/nios2-elf/4.1.2/../../../../nios2-elf/lib/mno-hw-mul/libc.a(lib_a-fputc.o)
 .debug_frame   0x00002f84       0x54 /package/eda/altera/altera13.0sp1/nios2eds/bin/gnu/H-i686-pc-linux-gnu/bin/../lib/gcc/nios2-elf/4.1.2/../../../../nios2-elf/lib/mno-hw-mul/libc.a(lib_a-fread.o)
 .debug_frame   0x00002fd8       0x4c /package/eda/altera/altera13.0sp1/nios2eds/bin/gnu/H-i686-pc-linux-gnu/bin/../lib/gcc/nios2-elf/4.1.2/../../../../nios2-elf/lib/mno-hw-mul/libc.a(lib_a-freer.o)
 .debug_frame   0x00003024       0x48 /package/eda/altera/altera13.0sp1/nios2eds/bin/gnu/H-i686-pc-linux-gnu/bin/../lib/gcc/nios2-elf/4.1.2/../../../../nios2-elf/lib/mno-hw-mul/libc.a(lib_a-fseek.o)
 .debug_frame   0x0000306c       0x2c /package/eda/altera/altera13.0sp1/nios2eds/bin/gnu/H-i686-pc-linux-gnu/bin/../lib/gcc/nios2-elf/4.1.2/../../../../nios2-elf/lib/mno-hw-mul/libc.a(lib_a-fstatr.o)
 .debug_frame   0x00003098       0x60 /package/eda/altera/altera13.0sp1/nios2eds/bin/gnu/H-i686-pc-linux-gnu/bin/../lib/gcc/nios2-elf/4.1.2/../../../../nios2-elf/lib/mno-hw-mul/libc.a(lib_a-fwalk.o)
 .debug_frame   0x000030f8       0x48 /package/eda/altera/altera13.0sp1/nios2eds/bin/gnu/H-i686-pc-linux-gnu/bin/../lib/gcc/nios2-elf/4.1.2/../../../../nios2-elf/lib/mno-hw-mul/libc.a(lib_a-fwrite.o)
 .debug_frame   0x00003140       0x48 /package/eda/altera/altera13.0sp1/nios2eds/bin/gnu/H-i686-pc-linux-gnu/bin/../lib/gcc/nios2-elf/4.1.2/../../../../nios2-elf/lib/mno-hw-mul/libc.a(lib_a-getc.o)
 .debug_frame   0x00003188       0x38 /package/eda/altera/altera13.0sp1/nios2eds/bin/gnu/H-i686-pc-linux-gnu/bin/../lib/gcc/nios2-elf/4.1.2/../../../../nios2-elf/lib/mno-hw-mul/libc.a(lib_a-getenv.o)
 .debug_frame   0x000031c0       0x50 /package/eda/altera/altera13.0sp1/nios2eds/bin/gnu/H-i686-pc-linux-gnu/bin/../lib/gcc/nios2-elf/4.1.2/../../../../nios2-elf/lib/mno-hw-mul/libc.a(lib_a-getenv_r.o)
 .debug_frame   0x00003210       0x2c /package/eda/altera/altera13.0sp1/nios2eds/bin/gnu/H-i686-pc-linux-gnu/bin/../lib/gcc/nios2-elf/4.1.2/../../../../nios2-elf/lib/mno-hw-mul/libc.a(lib_a-makebuf.o)
 .debug_frame   0x0000323c       0x30 /package/eda/altera/altera13.0sp1/nios2eds/bin/gnu/H-i686-pc-linux-gnu/bin/../lib/gcc/nios2-elf/4.1.2/../../../../nios2-elf/lib/mno-hw-mul/libc.a(lib_a-malloc.o)
 .debug_frame   0x0000326c       0x38 /package/eda/altera/altera13.0sp1/nios2eds/bin/gnu/H-i686-pc-linux-gnu/bin/../lib/gcc/nios2-elf/4.1.2/../../../../nios2-elf/lib/mno-hw-mul/libc.a(lib_a-mallocr.o)
 .debug_frame   0x000032a4       0x20 /package/eda/altera/altera13.0sp1/nios2eds/bin/gnu/H-i686-pc-linux-gnu/bin/../lib/gcc/nios2-elf/4.1.2/../../../../nios2-elf/lib/mno-hw-mul/libc.a(lib_a-memcpy.o)
 .debug_frame   0x000032c4       0x20 /package/eda/altera/altera13.0sp1/nios2eds/bin/gnu/H-i686-pc-linux-gnu/bin/../lib/gcc/nios2-elf/4.1.2/../../../../nios2-elf/lib/mno-hw-mul/libc.a(lib_a-memset.o)
 .debug_frame   0x000032e4       0x2c /package/eda/altera/altera13.0sp1/nios2eds/bin/gnu/H-i686-pc-linux-gnu/bin/../lib/gcc/nios2-elf/4.1.2/../../../../nios2-elf/lib/mno-hw-mul/libc.a(lib_a-openr.o)
 .debug_frame   0x00003310       0x40 /package/eda/altera/altera13.0sp1/nios2eds/bin/gnu/H-i686-pc-linux-gnu/bin/../lib/gcc/nios2-elf/4.1.2/../../../../nios2-elf/lib/mno-hw-mul/libc.a(lib_a-printf.o)
 .debug_frame   0x00003350       0x4c /package/eda/altera/altera13.0sp1/nios2eds/bin/gnu/H-i686-pc-linux-gnu/bin/../lib/gcc/nios2-elf/4.1.2/../../../../nios2-elf/lib/mno-hw-mul/libc.a(lib_a-putc.o)
 .debug_frame   0x0000339c       0x3c /package/eda/altera/altera13.0sp1/nios2eds/bin/gnu/H-i686-pc-linux-gnu/bin/../lib/gcc/nios2-elf/4.1.2/../../../../nios2-elf/lib/mno-hw-mul/libc.a(lib_a-puts.o)
 .debug_frame   0x000033d8       0x3c /package/eda/altera/altera13.0sp1/nios2eds/bin/gnu/H-i686-pc-linux-gnu/bin/../lib/gcc/nios2-elf/4.1.2/../../../../nios2-elf/lib/mno-hw-mul/libc.a(lib_a-refill.o)
 .debug_frame   0x00003414       0x38 /package/eda/altera/altera13.0sp1/nios2eds/bin/gnu/H-i686-pc-linux-gnu/bin/../lib/gcc/nios2-elf/4.1.2/../../../../nios2-elf/lib/mno-hw-mul/libc.a(lib_a-rget.o)
 .debug_frame   0x0000344c       0x2c /package/eda/altera/altera13.0sp1/nios2eds/bin/gnu/H-i686-pc-linux-gnu/bin/../lib/gcc/nios2-elf/4.1.2/../../../../nios2-elf/lib/mno-hw-mul/libc.a(lib_a-sbrkr.o)
 .debug_frame   0x00003478       0x40 /package/eda/altera/altera13.0sp1/nios2eds/bin/gnu/H-i686-pc-linux-gnu/bin/../lib/gcc/nios2-elf/4.1.2/../../../../nios2-elf/lib/mno-hw-mul/libc.a(lib_a-sprintf.o)
 .debug_frame   0x000034b8       0x54 /package/eda/altera/altera13.0sp1/nios2eds/bin/gnu/H-i686-pc-linux-gnu/bin/../lib/gcc/nios2-elf/4.1.2/../../../../nios2-elf/lib/mno-hw-mul/libc.a(lib_a-sscanf.o)
 .debug_frame   0x0000350c       0x78 /package/eda/altera/altera13.0sp1/nios2eds/bin/gnu/H-i686-pc-linux-gnu/bin/../lib/gcc/nios2-elf/4.1.2/../../../../nios2-elf/lib/mno-hw-mul/libc.a(lib_a-stdio.o)
 .debug_frame   0x00003584       0x20 /package/eda/altera/altera13.0sp1/nios2eds/bin/gnu/H-i686-pc-linux-gnu/bin/../lib/gcc/nios2-elf/4.1.2/../../../../nios2-elf/lib/mno-hw-mul/libc.a(lib_a-strdup.o)
 .debug_frame   0x000035a4       0x30 /package/eda/altera/altera13.0sp1/nios2eds/bin/gnu/H-i686-pc-linux-gnu/bin/../lib/gcc/nios2-elf/4.1.2/../../../../nios2-elf/lib/mno-hw-mul/libc.a(lib_a-strdup_r.o)
 .debug_frame   0x000035d4       0x20 /package/eda/altera/altera13.0sp1/nios2eds/bin/gnu/H-i686-pc-linux-gnu/bin/../lib/gcc/nios2-elf/4.1.2/../../../../nios2-elf/lib/mno-hw-mul/libc.a(lib_a-strlen.o)
 .debug_frame   0x000035f4       0x20 /package/eda/altera/altera13.0sp1/nios2eds/bin/gnu/H-i686-pc-linux-gnu/bin/../lib/gcc/nios2-elf/4.1.2/../../../../nios2-elf/lib/mno-hw-mul/libc.a(lib_a-strncmp.o)
 .debug_frame   0x00003614       0x64 /package/eda/altera/altera13.0sp1/nios2eds/bin/gnu/H-i686-pc-linux-gnu/bin/../lib/gcc/nios2-elf/4.1.2/../../../../nios2-elf/lib/mno-hw-mul/libc.a(lib_a-vfprintf.o)
 .debug_frame   0x00003678       0x8c /package/eda/altera/altera13.0sp1/nios2eds/bin/gnu/H-i686-pc-linux-gnu/bin/../lib/gcc/nios2-elf/4.1.2/../../../../nios2-elf/lib/mno-hw-mul/libc.a(lib_a-vfscanf.o)
 .debug_frame   0x00003704       0x3c /package/eda/altera/altera13.0sp1/nios2eds/bin/gnu/H-i686-pc-linux-gnu/bin/../lib/gcc/nios2-elf/4.1.2/../../../../nios2-elf/lib/mno-hw-mul/libc.a(lib_a-wbuf.o)
 .debug_frame   0x00003740       0x2c /package/eda/altera/altera13.0sp1/nios2eds/bin/gnu/H-i686-pc-linux-gnu/bin/../lib/gcc/nios2-elf/4.1.2/../../../../nios2-elf/lib/mno-hw-mul/libc.a(lib_a-writer.o)
 .debug_frame   0x0000376c       0x2c /package/eda/altera/altera13.0sp1/nios2eds/bin/gnu/H-i686-pc-linux-gnu/bin/../lib/gcc/nios2-elf/4.1.2/../../../../nios2-elf/lib/mno-hw-mul/libc.a(lib_a-wsetup.o)
 .debug_frame   0x00003798       0x4c /package/eda/altera/altera13.0sp1/nios2eds/bin/gnu/H-i686-pc-linux-gnu/bin/../lib/gcc/nios2-elf/4.1.2/../../../../nios2-elf/lib/mno-hw-mul/libc.a(lib_a-__call_atexit.o)
 .debug_frame   0x000037e4       0x2c /package/eda/altera/altera13.0sp1/nios2eds/bin/gnu/H-i686-pc-linux-gnu/bin/../lib/gcc/nios2-elf/4.1.2/../../../../nios2-elf/lib/mno-hw-mul/libc.a(lib_a-closer.o)
 .debug_frame   0x00003810       0x64 /package/eda/altera/altera13.0sp1/nios2eds/bin/gnu/H-i686-pc-linux-gnu/bin/../lib/gcc/nios2-elf/4.1.2/../../../../nios2-elf/lib/mno-hw-mul/libc.a(lib_a-dtoa.o)
 .debug_frame   0x00003874       0x20 /package/eda/altera/altera13.0sp1/nios2eds/bin/gnu/H-i686-pc-linux-gnu/bin/../lib/gcc/nios2-elf/4.1.2/../../../../nios2-elf/lib/mno-hw-mul/libc.a(lib_a-flags.o)
 .debug_frame   0x00003894       0x38 /package/eda/altera/altera13.0sp1/nios2eds/bin/gnu/H-i686-pc-linux-gnu/bin/../lib/gcc/nios2-elf/4.1.2/../../../../nios2-elf/lib/mno-hw-mul/libc.a(lib_a-fvwrite.o)
 .debug_frame   0x000038cc       0x2c /package/eda/altera/altera13.0sp1/nios2eds/bin/gnu/H-i686-pc-linux-gnu/bin/../lib/gcc/nios2-elf/4.1.2/../../../../nios2-elf/lib/mno-hw-mul/libc.a(lib_a-isattyr.o)
 .debug_frame   0x000038f8       0x20 /package/eda/altera/altera13.0sp1/nios2eds/bin/gnu/H-i686-pc-linux-gnu/bin/../lib/gcc/nios2-elf/4.1.2/../../../../nios2-elf/lib/mno-hw-mul/libc.a(lib_a-iswspace.o)
 .debug_frame   0x00003918       0x70 /package/eda/altera/altera13.0sp1/nios2eds/bin/gnu/H-i686-pc-linux-gnu/bin/../lib/gcc/nios2-elf/4.1.2/../../../../nios2-elf/lib/mno-hw-mul/libc.a(lib_a-locale.o)
 .debug_frame   0x00003988       0x2c /package/eda/altera/altera13.0sp1/nios2eds/bin/gnu/H-i686-pc-linux-gnu/bin/../lib/gcc/nios2-elf/4.1.2/../../../../nios2-elf/lib/mno-hw-mul/libc.a(lib_a-lseekr.o)
 .debug_frame   0x000039b4       0x44 /package/eda/altera/altera13.0sp1/nios2eds/bin/gnu/H-i686-pc-linux-gnu/bin/../lib/gcc/nios2-elf/4.1.2/../../../../nios2-elf/lib/mno-hw-mul/libc.a(lib_a-mbrtowc.o)
 .debug_frame   0x000039f8       0x24 /package/eda/altera/altera13.0sp1/nios2eds/bin/gnu/H-i686-pc-linux-gnu/bin/../lib/gcc/nios2-elf/4.1.2/../../../../nios2-elf/lib/mno-hw-mul/libc.a(lib_a-mbtowc_r.o)
 .debug_frame   0x00003a1c       0x20 /package/eda/altera/altera13.0sp1/nios2eds/bin/gnu/H-i686-pc-linux-gnu/bin/../lib/gcc/nios2-elf/4.1.2/../../../../nios2-elf/lib/mno-hw-mul/libc.a(lib_a-memchr.o)
 .debug_frame   0x00003a3c       0x20 /package/eda/altera/altera13.0sp1/nios2eds/bin/gnu/H-i686-pc-linux-gnu/bin/../lib/gcc/nios2-elf/4.1.2/../../../../nios2-elf/lib/mno-hw-mul/libc.a(lib_a-memmove.o)
 .debug_frame   0x00003a5c      0x228 /package/eda/altera/altera13.0sp1/nios2eds/bin/gnu/H-i686-pc-linux-gnu/bin/../lib/gcc/nios2-elf/4.1.2/../../../../nios2-elf/lib/mno-hw-mul/libc.a(lib_a-mprec.o)
 .debug_frame   0x00003c84       0x2c /package/eda/altera/altera13.0sp1/nios2eds/bin/gnu/H-i686-pc-linux-gnu/bin/../lib/gcc/nios2-elf/4.1.2/../../../../nios2-elf/lib/mno-hw-mul/libc.a(lib_a-readr.o)
 .debug_frame   0x00003cb0       0x38 /package/eda/altera/altera13.0sp1/nios2eds/bin/gnu/H-i686-pc-linux-gnu/bin/../lib/gcc/nios2-elf/4.1.2/../../../../nios2-elf/lib/mno-hw-mul/libc.a(lib_a-reallocr.o)
 .debug_frame   0x00003ce8       0x20 /package/eda/altera/altera13.0sp1/nios2eds/bin/gnu/H-i686-pc-linux-gnu/bin/../lib/gcc/nios2-elf/4.1.2/../../../../nios2-elf/lib/mno-hw-mul/libc.a(lib_a-s_isinfd.o)
 .debug_frame   0x00003d08       0x20 /package/eda/altera/altera13.0sp1/nios2eds/bin/gnu/H-i686-pc-linux-gnu/bin/../lib/gcc/nios2-elf/4.1.2/../../../../nios2-elf/lib/mno-hw-mul/libc.a(lib_a-s_isnand.o)
 .debug_frame   0x00003d28       0x20 /package/eda/altera/altera13.0sp1/nios2eds/bin/gnu/H-i686-pc-linux-gnu/bin/../lib/gcc/nios2-elf/4.1.2/../../../../nios2-elf/lib/mno-hw-mul/libc.a(lib_a-sccl.o)
 .debug_frame   0x00003d48       0x20 /package/eda/altera/altera13.0sp1/nios2eds/bin/gnu/H-i686-pc-linux-gnu/bin/../lib/gcc/nios2-elf/4.1.2/../../../../nios2-elf/lib/mno-hw-mul/libc.a(lib_a-sf_nan.o)
 .debug_frame   0x00003d68       0x20 /package/eda/altera/altera13.0sp1/nios2eds/bin/gnu/H-i686-pc-linux-gnu/bin/../lib/gcc/nios2-elf/4.1.2/../../../../nios2-elf/lib/mno-hw-mul/libc.a(lib_a-strcmp.o)
 .debug_frame   0x00003d88       0x80 /package/eda/altera/altera13.0sp1/nios2eds/bin/gnu/H-i686-pc-linux-gnu/bin/../lib/gcc/nios2-elf/4.1.2/../../../../nios2-elf/lib/mno-hw-mul/libc.a(lib_a-strtod.o)
 .debug_frame   0x00003e08       0x4c /package/eda/altera/altera13.0sp1/nios2eds/bin/gnu/H-i686-pc-linux-gnu/bin/../lib/gcc/nios2-elf/4.1.2/../../../../nios2-elf/lib/mno-hw-mul/libc.a(lib_a-strtol.o)
 .debug_frame   0x00003e54       0x3c /package/eda/altera/altera13.0sp1/nios2eds/bin/gnu/H-i686-pc-linux-gnu/bin/../lib/gcc/nios2-elf/4.1.2/../../../../nios2-elf/lib/mno-hw-mul/libc.a(lib_a-strtoll_r.o)
 .debug_frame   0x00003e90       0x4c /package/eda/altera/altera13.0sp1/nios2eds/bin/gnu/H-i686-pc-linux-gnu/bin/../lib/gcc/nios2-elf/4.1.2/../../../../nios2-elf/lib/mno-hw-mul/libc.a(lib_a-strtoul.o)
 .debug_frame   0x00003edc       0x3c /package/eda/altera/altera13.0sp1/nios2eds/bin/gnu/H-i686-pc-linux-gnu/bin/../lib/gcc/nios2-elf/4.1.2/../../../../nios2-elf/lib/mno-hw-mul/libc.a(lib_a-strtoull_r.o)
 .debug_frame   0x00003f18       0x60 /package/eda/altera/altera13.0sp1/nios2eds/bin/gnu/H-i686-pc-linux-gnu/bin/../lib/gcc/nios2-elf/4.1.2/../../../../nios2-elf/lib/mno-hw-mul/libc.a(lib_a-ungetc.o)
 .debug_frame   0x00003f78       0x2c /package/eda/altera/altera13.0sp1/nios2eds/bin/gnu/H-i686-pc-linux-gnu/bin/../lib/gcc/nios2-elf/4.1.2/../../../../nios2-elf/lib/mno-hw-mul/libc.a(lib_a-callocr.o)
 .debug_frame   0x00003fa4       0x74 /package/eda/altera/altera13.0sp1/nios2eds/bin/gnu/H-i686-pc-linux-gnu/bin/../lib/gcc/nios2-elf/4.1.2/../../../../nios2-elf/lib/mno-hw-mul/libc.a(lib_a-gdtoa-gethex.o)
 .debug_frame   0x00004018       0x4c /package/eda/altera/altera13.0sp1/nios2eds/bin/gnu/H-i686-pc-linux-gnu/bin/../lib/gcc/nios2-elf/4.1.2/../../../../nios2-elf/lib/mno-hw-mul/libc.a(lib_a-gdtoa-hexnan.o)
 .debug_frame   0x00004064       0x30 /package/eda/altera/altera13.0sp1/nios2eds/bin/gnu/H-i686-pc-linux-gnu/bin/../lib/gcc/nios2-elf/4.1.2/mno-hw-mul/libgcc.a(_fixunsdfsi.o)
 .debug_frame   0x00004094       0x38 /package/eda/altera/altera13.0sp1/nios2eds/bin/gnu/H-i686-pc-linux-gnu/bin/../lib/gcc/nios2-elf/4.1.2/mno-hw-mul/libgcc.a(_udivdi3.o)
 .debug_frame   0x000040cc       0x38 /package/eda/altera/altera13.0sp1/nios2eds/bin/gnu/H-i686-pc-linux-gnu/bin/../lib/gcc/nios2-elf/4.1.2/mno-hw-mul/libgcc.a(_umoddi3.o)
 .debug_frame   0x00004104       0x2c /package/eda/altera/altera13.0sp1/nios2eds/bin/gnu/H-i686-pc-linux-gnu/bin/../lib/gcc/nios2-elf/4.1.2/mno-hw-mul/libgcc.a(_ne_sf.o)
 .debug_frame   0x00004130       0x2c /package/eda/altera/altera13.0sp1/nios2eds/bin/gnu/H-i686-pc-linux-gnu/bin/../lib/gcc/nios2-elf/4.1.2/mno-hw-mul/libgcc.a(_gt_sf.o)
 .debug_frame   0x0000415c       0x2c /package/eda/altera/altera13.0sp1/nios2eds/bin/gnu/H-i686-pc-linux-gnu/bin/../lib/gcc/nios2-elf/4.1.2/mno-hw-mul/libgcc.a(_lt_sf.o)
 .debug_frame   0x00004188       0x70 /package/eda/altera/altera13.0sp1/nios2eds/bin/gnu/H-i686-pc-linux-gnu/bin/../lib/gcc/nios2-elf/4.1.2/mno-hw-mul/libgcc.a(_addsub_df.o)
 .debug_frame   0x000041f8       0x2c /package/eda/altera/altera13.0sp1/nios2eds/bin/gnu/H-i686-pc-linux-gnu/bin/../lib/gcc/nios2-elf/4.1.2/mno-hw-mul/libgcc.a(_eq_df.o)
 .debug_frame   0x00004224       0x2c /package/eda/altera/altera13.0sp1/nios2eds/bin/gnu/H-i686-pc-linux-gnu/bin/../lib/gcc/nios2-elf/4.1.2/mno-hw-mul/libgcc.a(_ne_df.o)
 .debug_frame   0x00004250       0x2c /package/eda/altera/altera13.0sp1/nios2eds/bin/gnu/H-i686-pc-linux-gnu/bin/../lib/gcc/nios2-elf/4.1.2/mno-hw-mul/libgcc.a(_gt_df.o)
 .debug_frame   0x0000427c       0x2c /package/eda/altera/altera13.0sp1/nios2eds/bin/gnu/H-i686-pc-linux-gnu/bin/../lib/gcc/nios2-elf/4.1.2/mno-hw-mul/libgcc.a(_ge_df.o)
 .debug_frame   0x000042a8       0x2c /package/eda/altera/altera13.0sp1/nios2eds/bin/gnu/H-i686-pc-linux-gnu/bin/../lib/gcc/nios2-elf/4.1.2/mno-hw-mul/libgcc.a(_lt_df.o)
 .debug_frame   0x000042d4       0x2c /package/eda/altera/altera13.0sp1/nios2eds/bin/gnu/H-i686-pc-linux-gnu/bin/../lib/gcc/nios2-elf/4.1.2/mno-hw-mul/libgcc.a(_le_df.o)
 .debug_frame   0x00004300       0x30 /package/eda/altera/altera13.0sp1/nios2eds/bin/gnu/H-i686-pc-linux-gnu/bin/../lib/gcc/nios2-elf/4.1.2/mno-hw-mul/libgcc.a(_si_to_df.o)
 .debug_frame   0x00004330       0x28 /package/eda/altera/altera13.0sp1/nios2eds/bin/gnu/H-i686-pc-linux-gnu/bin/../lib/gcc/nios2-elf/4.1.2/mno-hw-mul/libgcc.a(_df_to_si.o)
 .debug_frame   0x00004358       0x20 /package/eda/altera/altera13.0sp1/nios2eds/bin/gnu/H-i686-pc-linux-gnu/bin/../lib/gcc/nios2-elf/4.1.2/mno-hw-mul/libgcc.a(_fpcmp_parts_sf.o)
 .debug_frame   0x00004378       0x20 /package/eda/altera/altera13.0sp1/nios2eds/bin/gnu/H-i686-pc-linux-gnu/bin/../lib/gcc/nios2-elf/4.1.2/mno-hw-mul/libgcc.a(_fpcmp_parts_df.o)
 .debug_frame   0x00004398       0x2c ../demo_board_bsp//libhal_bsp.a(alt_close.o)
 .debug_frame   0x000043c4       0x20 ../demo_board_bsp//libhal_bsp.a(alt_dev.o)
 .debug_frame   0x000043e4       0x30 ../demo_board_bsp//libhal_bsp.a(alt_env_lock.o)
 .debug_frame   0x00004414       0x20 ../demo_board_bsp//libhal_bsp.a(alt_exit.o)
 .debug_frame   0x00004434       0x28 ../demo_board_bsp//libhal_bsp.a(alt_fstat.o)
 .debug_frame   0x0000445c       0x28 ../demo_board_bsp//libhal_bsp.a(alt_isatty.o)
 .debug_frame   0x00004484       0x28 ../demo_board_bsp//libhal_bsp.a(alt_load.o)
 .debug_frame   0x000044ac       0x2c ../demo_board_bsp//libhal_bsp.a(alt_lseek.o)
 .debug_frame   0x000044d8       0x28 ../demo_board_bsp//libhal_bsp.a(alt_main.o)
 .debug_frame   0x00004500       0x30 ../demo_board_bsp//libhal_bsp.a(alt_malloc_lock.o)
 .debug_frame   0x00004530       0x34 ../demo_board_bsp//libhal_bsp.a(alt_open.o)
 .debug_frame   0x00004564       0x2c ../demo_board_bsp//libhal_bsp.a(alt_read.o)
 .debug_frame   0x00004590       0x2c ../demo_board_bsp//libhal_bsp.a(alt_release_fd.o)
 .debug_frame   0x000045bc       0x20 ../demo_board_bsp//libhal_bsp.a(alt_sbrk.o)
 .debug_frame   0x000045dc       0x2c ../demo_board_bsp//libhal_bsp.a(alt_write.o)
 .debug_frame   0x00004608       0x40 ../demo_board_bsp//libhal_bsp.a(alt_sys_init.o)
 .debug_frame   0x00004648       0xb8 ../demo_board_bsp//libhal_bsp.a(altera_avalon_cfi_flash.o)
 .debug_frame   0x00004700      0x148 ../demo_board_bsp//libhal_bsp.a(altera_avalon_cfi_flash_table.o)
 .debug_frame   0x00004848       0x50 ../demo_board_bsp//libhal_bsp.a(altera_avalon_jtag_uart_fd.o)
 .debug_frame   0x00004898       0x5c ../demo_board_bsp//libhal_bsp.a(altera_avalon_jtag_uart_init.o)
 .debug_frame   0x000048f4       0x20 ../demo_board_bsp//libhal_bsp.a(altera_avalon_jtag_uart_ioctl.o)
 .debug_frame   0x00004914       0x38 ../demo_board_bsp//libhal_bsp.a(altera_avalon_jtag_uart_read.o)
 .debug_frame   0x0000494c       0x38 ../demo_board_bsp//libhal_bsp.a(altera_avalon_jtag_uart_write.o)
 .debug_frame   0x00004984       0x60 ../demo_board_bsp//libhal_bsp.a(altera_avalon_performance_counter.o)
 .debug_frame   0x000049e4       0xb4 ../demo_board_bsp//libhal_bsp.a(altera_ro_zipfs.o)
 .debug_frame   0x00004a98      0x164 ../demo_board_bsp//libhal_bsp.a(altera_up_avalon_video_pixel_buffer_dma.o)
 .debug_frame   0x00004bfc       0x3c ../demo_board_bsp//libhal_bsp.a(perf_print_formatted_report.o)
 .debug_frame   0x00004c38       0x20 ../demo_board_bsp//libhal_bsp.a(alt_alarm_start.o)
 .debug_frame   0x00004c58       0x20 ../demo_board_bsp//libhal_bsp.a(alt_dcache_flush.o)
 .debug_frame   0x00004c78       0x20 ../demo_board_bsp//libhal_bsp.a(alt_dcache_flush_all.o)
 .debug_frame   0x00004c98       0x28 ../demo_board_bsp//libhal_bsp.a(alt_dev_llist_insert.o)
 .debug_frame   0x00004cc0       0x2c ../demo_board_bsp//libhal_bsp.a(alt_do_ctors.o)
 .debug_frame   0x00004cec       0x2c ../demo_board_bsp//libhal_bsp.a(alt_do_dtors.o)
 .debug_frame   0x00004d18       0x30 ../demo_board_bsp//libhal_bsp.a(alt_find_dev.o)
 .debug_frame   0x00004d48       0x34 ../demo_board_bsp//libhal_bsp.a(alt_find_file.o)
 .debug_frame   0x00004d7c       0x38 ../demo_board_bsp//libhal_bsp.a(alt_flash_dev.o)
 .debug_frame   0x00004db4       0x20 ../demo_board_bsp//libhal_bsp.a(alt_fs_reg.o)
 .debug_frame   0x00004dd4       0x20 ../demo_board_bsp//libhal_bsp.a(alt_get_fd.o)
 .debug_frame   0x00004df4       0x20 ../demo_board_bsp//libhal_bsp.a(alt_icache_flush_all.o)
 .debug_frame   0x00004e14       0x50 ../demo_board_bsp//libhal_bsp.a(alt_iic.o)
 .debug_frame   0x00004e64       0x28 ../demo_board_bsp//libhal_bsp.a(alt_iic_isr_register.o)
 .debug_frame   0x00004e8c       0x34 ../demo_board_bsp//libhal_bsp.a(alt_io_redirect.o)
 .debug_frame   0x00004ec0       0x28 ../demo_board_bsp//libhal_bsp.a(alt_irq_handler.o)
 .debug_frame   0x00004ee8       0x40 ../demo_board_bsp//libhal_bsp.a(alt_tick.o)
 .debug_frame   0x00004f28       0x20 ../demo_board_bsp//libhal_bsp.a(altera_nios2_qsys_irq.o)
 .debug_frame   0x00004f48       0x60 ../demo_board_bsp//libhal_bsp.a(altera_avalon_cfi_flash_amd.o)
 .debug_frame   0x00004fa8       0x94 ../demo_board_bsp//libhal_bsp.a(altera_avalon_cfi_flash_intel.o)
 .debug_frame   0x0000503c       0x20 ../demo_board_bsp//libhal_bsp.a(alt_usleep.o)
 .debug_frame   0x0000505c       0x28 ../demo_board_bsp//libhal_bsp.a(alt_busy_sleep.o)
 .debug_frame   0x00005084       0x20 /package/eda/altera/altera13.0sp1/nios2eds/bin/gnu/H-i686-pc-linux-gnu/bin/../lib/gcc/nios2-elf/4.1.2/../../../../nios2-elf/lib/mno-hw-mul/libc.a(lib_a-atexit.o)
 .debug_frame   0x000050a4       0x20 /package/eda/altera/altera13.0sp1/nios2eds/bin/gnu/H-i686-pc-linux-gnu/bin/../lib/gcc/nios2-elf/4.1.2/../../../../nios2-elf/lib/mno-hw-mul/libc.a(lib_a-memcmp.o)
 .debug_frame   0x000050c4       0x34 /package/eda/altera/altera13.0sp1/nios2eds/bin/gnu/H-i686-pc-linux-gnu/bin/../lib/gcc/nios2-elf/4.1.2/../../../../nios2-elf/lib/mno-hw-mul/libc.a(lib_a-__atexit.o)
 .debug_frame   0x000050f8       0x30 /package/eda/altera/altera13.0sp1/nios2eds/bin/gnu/H-i686-pc-linux-gnu/bin/../lib/gcc/nios2-elf/4.1.2/mno-hw-mul/libgcc.a(_floatundidf.o)

.debug_str      0x00000000     0x8db6
 *(.debug_str)
 .debug_str     0x00000000      0x40d obj/default/cdjpeg.o
                                0x4e4 (size before relaxing)
 .debug_str     0x0000040d      0xee2 obj/default/djpeg.o
                               0x1503 (size before relaxing)
 .debug_str     0x000012ef      0x388 obj/default/jcapimin.o
                                0xbf8 (size before relaxing)
 .debug_str     0x00001677       0x80 obj/default/jcapistd.o
                                0xbb9 (size before relaxing)
 .debug_str     0x000016f7      0x1c4 obj/default/jccoefct.o
                                0xcf7 (size before relaxing)
 .debug_str     0x000018bb      0x10d obj/default/jccolor.o
                                0xc50 (size before relaxing)
 .debug_str     0x000019c8      0x12c obj/default/jcdctmgr.o
                                0xca1 (size before relaxing)
 .debug_str     0x00001af4      0x20a obj/default/jchuff.o
                                0xde2 (size before relaxing)
 .debug_str     0x00001cfe       0x1f obj/default/jcinit.o
                                0xb41 (size before relaxing)
 .debug_str     0x00001d1d       0xa8 obj/default/jcmainct.o
                                0xbfe (size before relaxing)
 .debug_str     0x00001dc5      0x22d obj/default/jcmarker.o
                                0xda6 (size before relaxing)
 .debug_str     0x00001ff2      0x143 obj/default/jcmaster.o
                                0xc9d (size before relaxing)
 .debug_str     0x00002135       0x4f obj/default/jcomapi.o
                                0x45e (size before relaxing)
 .debug_str     0x00002184      0x1fe obj/default/jcparam.o
                                0xd57 (size before relaxing)
 .debug_str     0x00002382      0x12e obj/default/jcphuff.o
                                0xd81 (size before relaxing)
 .debug_str     0x000024b0      0x14c obj/default/jcprepct.o
                                0xcd3 (size before relaxing)
 .debug_str     0x000025fc      0x21b obj/default/jcsample.o
                                0xda0 (size before relaxing)
 .debug_str     0x00002817       0xb8 obj/default/jctrans.o
                               0x12ff (size before relaxing)
 .debug_str     0x000028cf      0x122 obj/default/jdapimin.o
                                0xf48 (size before relaxing)
 .debug_str     0x000029f1       0x97 obj/default/jdapistd.o
                                0xee8 (size before relaxing)
 .debug_str     0x00002a88       0x4c obj/default/jdatadst.o
                                0xf0f (size before relaxing)
 .debug_str     0x00002ad4       0x59 obj/default/jdatasrc.o
                               0x120d (size before relaxing)
 .debug_str     0x00002b2d      0x122 obj/default/jdcoefct.o
                               0x1058 (size before relaxing)
 .debug_str     0x00002c4f      0x11e obj/default/jdcolor.o
                                0xfba (size before relaxing)
 .debug_str     0x00002d6d       0x85 obj/default/jddctmgr.o
                                0xee2 (size before relaxing)
 .debug_str     0x00002df2      0x182 obj/default/jdhuff.o
                               0x108c (size before relaxing)
 .debug_str     0x00002f74       0x72 obj/default/jdinput.o
                                0xebe (size before relaxing)
 .debug_str     0x00002fe6      0x138 obj/default/jdmainct.o
                                0xfdf (size before relaxing)
 .debug_str     0x0000311e       0xe8 obj/default/jdmarker.o
                                0xf5d (size before relaxing)
 .debug_str     0x00003206       0xd9 obj/default/jdmaster.o
                                0xf4b (size before relaxing)
 .debug_str     0x000032df      0x126 obj/default/jdmerge.o
                               0x100f (size before relaxing)
 .debug_str     0x00003405       0xef obj/default/jdphuff.o
                               0x1099 (size before relaxing)
 .debug_str     0x000034f4       0xbe obj/default/jdpostct.o
                                0xf66 (size before relaxing)
 .debug_str     0x000035b2      0x145 obj/default/jdsample.o
                               0x1066 (size before relaxing)
 .debug_str     0x000036f7       0x3e obj/default/jdtrans.o
                                0xe60 (size before relaxing)
 .debug_str     0x00003735       0x51 obj/default/jerror.o
                                0x7c0 (size before relaxing)
 .debug_str     0x00003786       0x5b obj/default/jfdctflt.o
                                0x13d (size before relaxing)
 .debug_str     0x000037e1       0x1b obj/default/jfdctfst.o
                                0x145 (size before relaxing)
 .debug_str     0x000037fc       0x1b obj/default/jfdctint.o
                                0x14b (size before relaxing)
 .debug_str     0x00003817       0x3b obj/default/jidctflt.o
                                0xee5 (size before relaxing)
 .debug_str     0x00003852       0x1b obj/default/jidctfst.o
                                0xeed (size before relaxing)
 .debug_str     0x0000386d       0x1b obj/default/jidctint.o
                                0xed7 (size before relaxing)
 .debug_str     0x00003888       0x35 obj/default/jidctred.o
                                0xedb (size before relaxing)
 .debug_str     0x000038bd      0x34a obj/default/jmemmgr.o
                                0xb49 (size before relaxing)
 .debug_str     0x00003c07       0xd7 obj/default/jmemnobs.o
                                0x8c7 (size before relaxing)
 .debug_str     0x00003cde      0x2d1 obj/default/jquant1.o
                               0x1172 (size before relaxing)
 .debug_str     0x00003faf      0x34e obj/default/jquant2.o
                               0x12b4 (size before relaxing)
 .debug_str     0x000042fd       0x8d obj/default/jutils.o
                                0x1f9 (size before relaxing)
 .debug_str     0x0000438a       0x6f obj/default/rdcolmap.o
                               0x1256 (size before relaxing)
 .debug_str     0x000043f9      0x1b8 obj/default/wrbmp.o
                               0x1410 (size before relaxing)
 .debug_str     0x000045b1      0x1ad obj/default/wrgif.o
                               0x1411 (size before relaxing)
 .debug_str     0x0000475e      0x119 obj/default/wrppm.o
                               0x137b (size before relaxing)
 .debug_str     0x00004877        0x8 obj/default/wrrle.o
                                 0xd7 (size before relaxing)
 .debug_str     0x0000487f       0x75 obj/default/wrtarga.o
                               0x1308 (size before relaxing)
 .debug_str     0x000048f4      0x1b6 /package/eda/altera/altera13.0sp1/nios2eds/bin/gnu/H-i686-pc-linux-gnu/bin/../lib/gcc/nios2-elf/4.1.2/mno-hw-mul/libgcc.a(_addsub_sf.o)
                                0x26e (size before relaxing)
 .debug_str     0x00004aaa       0x2a /package/eda/altera/altera13.0sp1/nios2eds/bin/gnu/H-i686-pc-linux-gnu/bin/../lib/gcc/nios2-elf/4.1.2/mno-hw-mul/libgcc.a(_mul_sf.o)
                                0x225 (size before relaxing)
 .debug_str     0x00004ad4       0x18 /package/eda/altera/altera13.0sp1/nios2eds/bin/gnu/H-i686-pc-linux-gnu/bin/../lib/gcc/nios2-elf/4.1.2/mno-hw-mul/libgcc.a(_si_to_sf.o)
                                0x1e3 (size before relaxing)
 .debug_str     0x00004aec        0xa /package/eda/altera/altera13.0sp1/nios2eds/bin/gnu/H-i686-pc-linux-gnu/bin/../lib/gcc/nios2-elf/4.1.2/mno-hw-mul/libgcc.a(_sf_to_si.o)
                                0x206 (size before relaxing)
 .debug_str     0x00000000      0x1a8 /package/eda/altera/altera13.0sp1/nios2eds/bin/gnu/H-i686-pc-linux-gnu/bin/../lib/gcc/nios2-elf/4.1.2/mno-hw-mul/libgcc.a(_thenan_sf.o)
 .debug_str     0x00004af6       0x55 /package/eda/altera/altera13.0sp1/nios2eds/bin/gnu/H-i686-pc-linux-gnu/bin/../lib/gcc/nios2-elf/4.1.2/mno-hw-mul/libgcc.a(_mul_df.o)
                                0x246 (size before relaxing)
 .debug_str     0x00004b4b       0x35 /package/eda/altera/altera13.0sp1/nios2eds/bin/gnu/H-i686-pc-linux-gnu/bin/../lib/gcc/nios2-elf/4.1.2/mno-hw-mul/libgcc.a(_div_df.o)
                                0x236 (size before relaxing)
 .debug_str     0x00004b80       0x14 /package/eda/altera/altera13.0sp1/nios2eds/bin/gnu/H-i686-pc-linux-gnu/bin/../lib/gcc/nios2-elf/4.1.2/mno-hw-mul/libgcc.a(_df_to_sf.o)
                                0x203 (size before relaxing)
 .debug_str     0x00000000      0x1a8 /package/eda/altera/altera13.0sp1/nios2eds/bin/gnu/H-i686-pc-linux-gnu/bin/../lib/gcc/nios2-elf/4.1.2/mno-hw-mul/libgcc.a(_thenan_df.o)
 .debug_str     0x00004b94       0x14 /package/eda/altera/altera13.0sp1/nios2eds/bin/gnu/H-i686-pc-linux-gnu/bin/../lib/gcc/nios2-elf/4.1.2/mno-hw-mul/libgcc.a(_usi_to_df.o)
                                0x1df (size before relaxing)
 .debug_str     0x00004ba8       0x93 /package/eda/altera/altera13.0sp1/nios2eds/bin/gnu/H-i686-pc-linux-gnu/bin/../lib/gcc/nios2-elf/4.1.2/mno-hw-mul/libgcc.a(lib2-divmod.o)
                                0x1b9 (size before relaxing)
 .debug_str     0x00004c3b       0x37 /package/eda/altera/altera13.0sp1/nios2eds/bin/gnu/H-i686-pc-linux-gnu/bin/../lib/gcc/nios2-elf/4.1.2/mno-hw-mul/libgcc.a(lib2-mul.o)
                                0x17a (size before relaxing)
 .debug_str     0x00004c72       0x62 /package/eda/altera/altera13.0sp1/nios2eds/bin/gnu/H-i686-pc-linux-gnu/bin/../lib/gcc/nios2-elf/4.1.2/mno-hw-mul/libgcc.a(_muldi3.o)
                                0x1b1 (size before relaxing)
 .debug_str     0x00004cd4       0x20 /package/eda/altera/altera13.0sp1/nios2eds/bin/gnu/H-i686-pc-linux-gnu/bin/../lib/gcc/nios2-elf/4.1.2/mno-hw-mul/libgcc.a(_clzsi2.o)
                                0x183 (size before relaxing)
 .debug_str     0x00004cf4       0x10 /package/eda/altera/altera13.0sp1/nios2eds/bin/gnu/H-i686-pc-linux-gnu/bin/../lib/gcc/nios2-elf/4.1.2/mno-hw-mul/libgcc.a(_pack_sf.o)
                                0x205 (size before relaxing)
 .debug_str     0x00004d04        0xb /package/eda/altera/altera13.0sp1/nios2eds/bin/gnu/H-i686-pc-linux-gnu/bin/../lib/gcc/nios2-elf/4.1.2/mno-hw-mul/libgcc.a(_unpack_sf.o)
                                0x1e7 (size before relaxing)
 .debug_str     0x00004d0f        0xa /package/eda/altera/altera13.0sp1/nios2eds/bin/gnu/H-i686-pc-linux-gnu/bin/../lib/gcc/nios2-elf/4.1.2/mno-hw-mul/libgcc.a(_make_sf.o)
                                0x1be (size before relaxing)
 .debug_str     0x00004d19        0x9 /package/eda/altera/altera13.0sp1/nios2eds/bin/gnu/H-i686-pc-linux-gnu/bin/../lib/gcc/nios2-elf/4.1.2/mno-hw-mul/libgcc.a(_pack_df.o)
                                0x20b (size before relaxing)
 .debug_str     0x00004d22        0xb /package/eda/altera/altera13.0sp1/nios2eds/bin/gnu/H-i686-pc-linux-gnu/bin/../lib/gcc/nios2-elf/4.1.2/mno-hw-mul/libgcc.a(_unpack_df.o)
                                0x1ed (size before relaxing)
 .debug_str     0x00000000      0x166 /package/eda/altera/altera13.0sp1/nios2eds/bin/gnu/H-i686-pc-linux-gnu/bin/../lib/gcc/nios2-elf/4.1.2/mno-hw-mul/libgcc.a(_clz.o)
 .debug_str     0x00004d2d       0xe9 /package/eda/altera/altera13.0sp1/nios2eds/bin/gnu/H-i686-pc-linux-gnu/bin/../lib/gcc/nios2-elf/4.1.2/../../../../nios2-elf/lib/mno-hw-mul/libc.a(lib_a-ctype_.o)
                                0x118 (size before relaxing)
 .debug_str     0x00004e16       0xeb /package/eda/altera/altera13.0sp1/nios2eds/bin/gnu/H-i686-pc-linux-gnu/bin/../lib/gcc/nios2-elf/4.1.2/../../../../nios2-elf/lib/mno-hw-mul/libc.a(lib_a-exit.o)
                                0x51f (size before relaxing)
 .debug_str     0x00004f01       0xe9 /package/eda/altera/altera13.0sp1/nios2eds/bin/gnu/H-i686-pc-linux-gnu/bin/../lib/gcc/nios2-elf/4.1.2/../../../../nios2-elf/lib/mno-hw-mul/libc.a(lib_a-fclose.o)
                                0x529 (size before relaxing)
 .debug_str     0x00004fea       0x55 /package/eda/altera/altera13.0sp1/nios2eds/bin/gnu/H-i686-pc-linux-gnu/bin/../lib/gcc/nios2-elf/4.1.2/../../../../nios2-elf/lib/mno-hw-mul/libc.a(lib_a-fflush.o)
                                0x545 (size before relaxing)
 .debug_str     0x0000503f       0xff /package/eda/altera/altera13.0sp1/nios2eds/bin/gnu/H-i686-pc-linux-gnu/bin/../lib/gcc/nios2-elf/4.1.2/../../../../nios2-elf/lib/mno-hw-mul/libc.a(lib_a-findfp.o)
                                0x607 (size before relaxing)
 .debug_str     0x0000513e       0x52 /package/eda/altera/altera13.0sp1/nios2eds/bin/gnu/H-i686-pc-linux-gnu/bin/../lib/gcc/nios2-elf/4.1.2/../../../../nios2-elf/lib/mno-hw-mul/libc.a(lib_a-fopen.o)
                                0x538 (size before relaxing)
 .debug_str     0x00005190       0x60 /package/eda/altera/altera13.0sp1/nios2eds/bin/gnu/H-i686-pc-linux-gnu/bin/../lib/gcc/nios2-elf/4.1.2/../../../../nios2-elf/lib/mno-hw-mul/libc.a(lib_a-fprintf.o)
                                0x532 (size before relaxing)
 .debug_str     0x000051f0       0x4b /package/eda/altera/altera13.0sp1/nios2eds/bin/gnu/H-i686-pc-linux-gnu/bin/../lib/gcc/nios2-elf/4.1.2/../../../../nios2-elf/lib/mno-hw-mul/libc.a(lib_a-fputc.o)
                                0x52d (size before relaxing)
 .debug_str     0x0000523b       0x67 /package/eda/altera/altera13.0sp1/nios2eds/bin/gnu/H-i686-pc-linux-gnu/bin/../lib/gcc/nios2-elf/4.1.2/../../../../nios2-elf/lib/mno-hw-mul/libc.a(lib_a-fread.o)
                                0x561 (size before relaxing)
 .debug_str     0x000052a2      0x15e /package/eda/altera/altera13.0sp1/nios2eds/bin/gnu/H-i686-pc-linux-gnu/bin/../lib/gcc/nios2-elf/4.1.2/../../../../nios2-elf/lib/mno-hw-mul/libc.a(lib_a-freer.o)
                                0x656 (size before relaxing)
 .debug_str     0x00005400      0x136 /package/eda/altera/altera13.0sp1/nios2eds/bin/gnu/H-i686-pc-linux-gnu/bin/../lib/gcc/nios2-elf/4.1.2/../../../../nios2-elf/lib/mno-hw-mul/libc.a(lib_a-fseek.o)
                                0x645 (size before relaxing)
 .debug_str     0x00005536       0xe7 /package/eda/altera/altera13.0sp1/nios2eds/bin/gnu/H-i686-pc-linux-gnu/bin/../lib/gcc/nios2-elf/4.1.2/../../../../nios2-elf/lib/mno-hw-mul/libc.a(lib_a-fstatr.o)
                                0x604 (size before relaxing)
 .debug_str     0x0000561d       0x61 /package/eda/altera/altera13.0sp1/nios2eds/bin/gnu/H-i686-pc-linux-gnu/bin/../lib/gcc/nios2-elf/4.1.2/../../../../nios2-elf/lib/mno-hw-mul/libc.a(lib_a-fwalk.o)
                                0x548 (size before relaxing)
 .debug_str     0x0000567e       0x8a /package/eda/altera/altera13.0sp1/nios2eds/bin/gnu/H-i686-pc-linux-gnu/bin/../lib/gcc/nios2-elf/4.1.2/../../../../nios2-elf/lib/mno-hw-mul/libc.a(lib_a-fwrite.o)
                                0x572 (size before relaxing)
 .debug_str     0x00005708       0x43 /package/eda/altera/altera13.0sp1/nios2eds/bin/gnu/H-i686-pc-linux-gnu/bin/../lib/gcc/nios2-elf/4.1.2/../../../../nios2-elf/lib/mno-hw-mul/libc.a(lib_a-getc.o)
                                0x525 (size before relaxing)
 .debug_str     0x0000574b       0x4e /package/eda/altera/altera13.0sp1/nios2eds/bin/gnu/H-i686-pc-linux-gnu/bin/../lib/gcc/nios2-elf/4.1.2/../../../../nios2-elf/lib/mno-hw-mul/libc.a(lib_a-getenv.o)
                                0x52c (size before relaxing)
 .debug_str     0x00005799       0x5f /package/eda/altera/altera13.0sp1/nios2eds/bin/gnu/H-i686-pc-linux-gnu/bin/../lib/gcc/nios2-elf/4.1.2/../../../../nios2-elf/lib/mno-hw-mul/libc.a(lib_a-getenv_r.o)
                                0x543 (size before relaxing)
 .debug_str     0x000057f8       0x49 /package/eda/altera/altera13.0sp1/nios2eds/bin/gnu/H-i686-pc-linux-gnu/bin/../lib/gcc/nios2-elf/4.1.2/../../../../nios2-elf/lib/mno-hw-mul/libc.a(lib_a-impure.o)
                                0x52d (size before relaxing)
 .debug_str     0x00005841       0x40 /package/eda/altera/altera13.0sp1/nios2eds/bin/gnu/H-i686-pc-linux-gnu/bin/../lib/gcc/nios2-elf/4.1.2/../../../../nios2-elf/lib/mno-hw-mul/libc.a(lib_a-int_errno.o)
                                0x176 (size before relaxing)
 .debug_str     0x00005881       0x56 /package/eda/altera/altera13.0sp1/nios2eds/bin/gnu/H-i686-pc-linux-gnu/bin/../lib/gcc/nios2-elf/4.1.2/../../../../nios2-elf/lib/mno-hw-mul/libc.a(lib_a-makebuf.o)
                                0x619 (size before relaxing)
 .debug_str     0x000058d7       0x3e /package/eda/altera/altera13.0sp1/nios2eds/bin/gnu/H-i686-pc-linux-gnu/bin/../lib/gcc/nios2-elf/4.1.2/../../../../nios2-elf/lib/mno-hw-mul/libc.a(lib_a-malloc.o)
                                0x52f (size before relaxing)
 .debug_str     0x00005915       0xe3 /package/eda/altera/altera13.0sp1/nios2eds/bin/gnu/H-i686-pc-linux-gnu/bin/../lib/gcc/nios2-elf/4.1.2/../../../../nios2-elf/lib/mno-hw-mul/libc.a(lib_a-mallocr.o)
                                0x704 (size before relaxing)
 .debug_str     0x000059f8      0x108 /package/eda/altera/altera13.0sp1/nios2eds/bin/gnu/H-i686-pc-linux-gnu/bin/../lib/gcc/nios2-elf/4.1.2/../../../../nios2-elf/lib/mno-hw-mul/libc.a(lib_a-memcpy.o)
                                0x13b (size before relaxing)
 .debug_str     0x00005b00       0x52 /package/eda/altera/altera13.0sp1/nios2eds/bin/gnu/H-i686-pc-linux-gnu/bin/../lib/gcc/nios2-elf/4.1.2/../../../../nios2-elf/lib/mno-hw-mul/libc.a(lib_a-memset.o)
                                0x191 (size before relaxing)
 .debug_str     0x00005b52       0x44 /package/eda/altera/altera13.0sp1/nios2eds/bin/gnu/H-i686-pc-linux-gnu/bin/../lib/gcc/nios2-elf/4.1.2/../../../../nios2-elf/lib/mno-hw-mul/libc.a(lib_a-openr.o)
                                0x51f (size before relaxing)
 .debug_str     0x00005b96       0x47 /package/eda/altera/altera13.0sp1/nios2eds/bin/gnu/H-i686-pc-linux-gnu/bin/../lib/gcc/nios2-elf/4.1.2/../../../../nios2-elf/lib/mno-hw-mul/libc.a(lib_a-printf.o)
                                0x536 (size before relaxing)
 .debug_str     0x00005bdd       0x43 /package/eda/altera/altera13.0sp1/nios2eds/bin/gnu/H-i686-pc-linux-gnu/bin/../lib/gcc/nios2-elf/4.1.2/../../../../nios2-elf/lib/mno-hw-mul/libc.a(lib_a-putc.o)
                                0x525 (size before relaxing)
 .debug_str     0x00005c20       0x48 /package/eda/altera/altera13.0sp1/nios2eds/bin/gnu/H-i686-pc-linux-gnu/bin/../lib/gcc/nios2-elf/4.1.2/../../../../nios2-elf/lib/mno-hw-mul/libc.a(lib_a-puts.o)
                                0x55c (size before relaxing)
 .debug_str     0x00005c68       0x50 /package/eda/altera/altera13.0sp1/nios2eds/bin/gnu/H-i686-pc-linux-gnu/bin/../lib/gcc/nios2-elf/4.1.2/../../../../nios2-elf/lib/mno-hw-mul/libc.a(lib_a-refill.o)
                                0x52d (size before relaxing)
 .debug_str     0x00005cb8       0x4d /package/eda/altera/altera13.0sp1/nios2eds/bin/gnu/H-i686-pc-linux-gnu/bin/../lib/gcc/nios2-elf/4.1.2/../../../../nios2-elf/lib/mno-hw-mul/libc.a(lib_a-rget.o)
                                0x523 (size before relaxing)
 .debug_str     0x00005d05       0x53 /package/eda/altera/altera13.0sp1/nios2eds/bin/gnu/H-i686-pc-linux-gnu/bin/../lib/gcc/nios2-elf/4.1.2/../../../../nios2-elf/lib/mno-hw-mul/libc.a(lib_a-sbrkr.o)
                                0x51e (size before relaxing)
 .debug_str     0x00005d58       0x51 /package/eda/altera/altera13.0sp1/nios2eds/bin/gnu/H-i686-pc-linux-gnu/bin/../lib/gcc/nios2-elf/4.1.2/../../../../nios2-elf/lib/mno-hw-mul/libc.a(lib_a-sprintf.o)
                                0x53e (size before relaxing)
 .debug_str     0x00005da9       0x56 /package/eda/altera/altera13.0sp1/nios2eds/bin/gnu/H-i686-pc-linux-gnu/bin/../lib/gcc/nios2-elf/4.1.2/../../../../nios2-elf/lib/mno-hw-mul/libc.a(lib_a-sscanf.o)
                                0x54a (size before relaxing)
 .debug_str     0x00005dff       0x5e /package/eda/altera/altera13.0sp1/nios2eds/bin/gnu/H-i686-pc-linux-gnu/bin/../lib/gcc/nios2-elf/4.1.2/../../../../nios2-elf/lib/mno-hw-mul/libc.a(lib_a-stdio.o)
                                0x544 (size before relaxing)
 .debug_str     0x00005e5d       0x45 /package/eda/altera/altera13.0sp1/nios2eds/bin/gnu/H-i686-pc-linux-gnu/bin/../lib/gcc/nios2-elf/4.1.2/../../../../nios2-elf/lib/mno-hw-mul/libc.a(lib_a-strdup.o)
                                0x517 (size before relaxing)
 .debug_str     0x00005ea2       0x4a /package/eda/altera/altera13.0sp1/nios2eds/bin/gnu/H-i686-pc-linux-gnu/bin/../lib/gcc/nios2-elf/4.1.2/../../../../nios2-elf/lib/mno-hw-mul/libc.a(lib_a-strdup_r.o)
                                0x526 (size before relaxing)
 .debug_str     0x00005eec       0x45 /package/eda/altera/altera13.0sp1/nios2eds/bin/gnu/H-i686-pc-linux-gnu/bin/../lib/gcc/nios2-elf/4.1.2/../../../../nios2-elf/lib/mno-hw-mul/libc.a(lib_a-strlen.o)
                                0x190 (size before relaxing)
 .debug_str     0x00005f31       0x47 /package/eda/altera/altera13.0sp1/nios2eds/bin/gnu/H-i686-pc-linux-gnu/bin/../lib/gcc/nios2-elf/4.1.2/../../../../nios2-elf/lib/mno-hw-mul/libc.a(lib_a-strncmp.o)
                                0x17f (size before relaxing)
 .debug_str     0x00005f78      0x15d /package/eda/altera/altera13.0sp1/nios2eds/bin/gnu/H-i686-pc-linux-gnu/bin/../lib/gcc/nios2-elf/4.1.2/../../../../nios2-elf/lib/mno-hw-mul/libc.a(lib_a-vfprintf.o)
                                0x70b (size before relaxing)
 .debug_str     0x000060d5      0x13b /package/eda/altera/altera13.0sp1/nios2eds/bin/gnu/H-i686-pc-linux-gnu/bin/../lib/gcc/nios2-elf/4.1.2/../../../../nios2-elf/lib/mno-hw-mul/libc.a(lib_a-vfscanf.o)
                                0x6a4 (size before relaxing)
 .debug_str     0x00006210       0x4d /package/eda/altera/altera13.0sp1/nios2eds/bin/gnu/H-i686-pc-linux-gnu/bin/../lib/gcc/nios2-elf/4.1.2/../../../../nios2-elf/lib/mno-hw-mul/libc.a(lib_a-wbuf.o)
                                0x523 (size before relaxing)
 .debug_str     0x0000625d       0x4f /package/eda/altera/altera13.0sp1/nios2eds/bin/gnu/H-i686-pc-linux-gnu/bin/../lib/gcc/nios2-elf/4.1.2/../../../../nios2-elf/lib/mno-hw-mul/libc.a(lib_a-writer.o)
                                0x521 (size before relaxing)
 .debug_str     0x000062ac       0x49 /package/eda/altera/altera13.0sp1/nios2eds/bin/gnu/H-i686-pc-linux-gnu/bin/../lib/gcc/nios2-elf/4.1.2/../../../../nios2-elf/lib/mno-hw-mul/libc.a(lib_a-wsetup.o)
                                0x51f (size before relaxing)
 .debug_str     0x000062f5       0x70 /package/eda/altera/altera13.0sp1/nios2eds/bin/gnu/H-i686-pc-linux-gnu/bin/../lib/gcc/nios2-elf/4.1.2/../../../../nios2-elf/lib/mno-hw-mul/libc.a(lib_a-__call_atexit.o)
                                0x561 (size before relaxing)
 .debug_str     0x00006365       0x46 /package/eda/altera/altera13.0sp1/nios2eds/bin/gnu/H-i686-pc-linux-gnu/bin/../lib/gcc/nios2-elf/4.1.2/../../../../nios2-elf/lib/mno-hw-mul/libc.a(lib_a-closer.o)
                                0x511 (size before relaxing)
 .debug_str     0x000063ab       0xf9 /package/eda/altera/altera13.0sp1/nios2eds/bin/gnu/H-i686-pc-linux-gnu/bin/../lib/gcc/nios2-elf/4.1.2/../../../../nios2-elf/lib/mno-hw-mul/libc.a(lib_a-dtoa.o)
                                0x614 (size before relaxing)
 .debug_str     0x000064a4       0x4b /package/eda/altera/altera13.0sp1/nios2eds/bin/gnu/H-i686-pc-linux-gnu/bin/../lib/gcc/nios2-elf/4.1.2/../../../../nios2-elf/lib/mno-hw-mul/libc.a(lib_a-environ.o)
                                0x112 (size before relaxing)
 .debug_str     0x000064ef       0x4a /package/eda/altera/altera13.0sp1/nios2eds/bin/gnu/H-i686-pc-linux-gnu/bin/../lib/gcc/nios2-elf/4.1.2/../../../../nios2-elf/lib/mno-hw-mul/libc.a(lib_a-flags.o)
                                0x514 (size before relaxing)
 .debug_str     0x00006539       0x69 /package/eda/altera/altera13.0sp1/nios2eds/bin/gnu/H-i686-pc-linux-gnu/bin/../lib/gcc/nios2-elf/4.1.2/../../../../nios2-elf/lib/mno-hw-mul/libc.a(lib_a-fvwrite.o)
                                0x576 (size before relaxing)
 .debug_str     0x000065a2       0x48 /package/eda/altera/altera13.0sp1/nios2eds/bin/gnu/H-i686-pc-linux-gnu/bin/../lib/gcc/nios2-elf/4.1.2/../../../../nios2-elf/lib/mno-hw-mul/libc.a(lib_a-isattyr.o)
                                0x513 (size before relaxing)
 .debug_str     0x000065ea       0x5b /package/eda/altera/altera13.0sp1/nios2eds/bin/gnu/H-i686-pc-linux-gnu/bin/../lib/gcc/nios2-elf/4.1.2/../../../../nios2-elf/lib/mno-hw-mul/libc.a(lib_a-iswspace.o)
                                0x19e (size before relaxing)
 .debug_str     0x00006645      0x220 /package/eda/altera/altera13.0sp1/nios2eds/bin/gnu/H-i686-pc-linux-gnu/bin/../lib/gcc/nios2-elf/4.1.2/../../../../nios2-elf/lib/mno-hw-mul/libc.a(lib_a-locale.o)
                                0x6bc (size before relaxing)
 .debug_str     0x00006865       0x46 /package/eda/altera/altera13.0sp1/nios2eds/bin/gnu/H-i686-pc-linux-gnu/bin/../lib/gcc/nios2-elf/4.1.2/../../../../nios2-elf/lib/mno-hw-mul/libc.a(lib_a-lseekr.o)
                                0x51f (size before relaxing)
 .debug_str     0x000068ab       0x59 /package/eda/altera/altera13.0sp1/nios2eds/bin/gnu/H-i686-pc-linux-gnu/bin/../lib/gcc/nios2-elf/4.1.2/../../../../nios2-elf/lib/mno-hw-mul/libc.a(lib_a-mbrtowc.o)
                                0x544 (size before relaxing)
 .debug_str     0x00006904       0x4a /package/eda/altera/altera13.0sp1/nios2eds/bin/gnu/H-i686-pc-linux-gnu/bin/../lib/gcc/nios2-elf/4.1.2/../../../../nios2-elf/lib/mno-hw-mul/libc.a(lib_a-mbtowc_r.o)
                                0x535 (size before relaxing)
 .debug_str     0x0000694e       0x4e /package/eda/altera/altera13.0sp1/nios2eds/bin/gnu/H-i686-pc-linux-gnu/bin/../lib/gcc/nios2-elf/4.1.2/../../../../nios2-elf/lib/mno-hw-mul/libc.a(lib_a-memchr.o)
                                0x19e (size before relaxing)
 .debug_str     0x0000699c       0x50 /package/eda/altera/altera13.0sp1/nios2eds/bin/gnu/H-i686-pc-linux-gnu/bin/../lib/gcc/nios2-elf/4.1.2/../../../../nios2-elf/lib/mno-hw-mul/libc.a(lib_a-memmove.o)
                                0x1b0 (size before relaxing)
 .debug_str     0x000069ec       0xfb /package/eda/altera/altera13.0sp1/nios2eds/bin/gnu/H-i686-pc-linux-gnu/bin/../lib/gcc/nios2-elf/4.1.2/../../../../nios2-elf/lib/mno-hw-mul/libc.a(lib_a-mprec.o)
                                0x621 (size before relaxing)
 .debug_str     0x00006ae7       0x44 /package/eda/altera/altera13.0sp1/nios2eds/bin/gnu/H-i686-pc-linux-gnu/bin/../lib/gcc/nios2-elf/4.1.2/../../../../nios2-elf/lib/mno-hw-mul/libc.a(lib_a-readr.o)
                                0x51f (size before relaxing)
 .debug_str     0x00006b2b       0x59 /package/eda/altera/altera13.0sp1/nios2eds/bin/gnu/H-i686-pc-linux-gnu/bin/../lib/gcc/nios2-elf/4.1.2/../../../../nios2-elf/lib/mno-hw-mul/libc.a(lib_a-reallocr.o)
                                0x5d6 (size before relaxing)
 .debug_str     0x00006b84       0xef /package/eda/altera/altera13.0sp1/nios2eds/bin/gnu/H-i686-pc-linux-gnu/bin/../lib/gcc/nios2-elf/4.1.2/../../../../nios2-elf/lib/mno-hw-mul/libc.a(lib_a-s_isinfd.o)
                                0x19d (size before relaxing)
 .debug_str     0x00006c73       0x49 /package/eda/altera/altera13.0sp1/nios2eds/bin/gnu/H-i686-pc-linux-gnu/bin/../lib/gcc/nios2-elf/4.1.2/../../../../nios2-elf/lib/mno-hw-mul/libc.a(lib_a-s_isnand.o)
                                0x19d (size before relaxing)
 .debug_str     0x00006cbc       0x52 /package/eda/altera/altera13.0sp1/nios2eds/bin/gnu/H-i686-pc-linux-gnu/bin/../lib/gcc/nios2-elf/4.1.2/../../../../nios2-elf/lib/mno-hw-mul/libc.a(lib_a-sccl.o)
                                0x182 (size before relaxing)
 .debug_str     0x00006d0e       0x43 /package/eda/altera/altera13.0sp1/nios2eds/bin/gnu/H-i686-pc-linux-gnu/bin/../lib/gcc/nios2-elf/4.1.2/../../../../nios2-elf/lib/mno-hw-mul/libc.a(lib_a-sf_nan.o)
                                0x194 (size before relaxing)
 .debug_str     0x00006d51       0x45 /package/eda/altera/altera13.0sp1/nios2eds/bin/gnu/H-i686-pc-linux-gnu/bin/../lib/gcc/nios2-elf/4.1.2/../../../../nios2-elf/lib/mno-hw-mul/libc.a(lib_a-strcmp.o)
                                0x176 (size before relaxing)
 .debug_str     0x00006d96       0xe5 /package/eda/altera/altera13.0sp1/nios2eds/bin/gnu/H-i686-pc-linux-gnu/bin/../lib/gcc/nios2-elf/4.1.2/../../../../nios2-elf/lib/mno-hw-mul/libc.a(lib_a-strtod.o)
                                0x634 (size before relaxing)
 .debug_str     0x00006e7b       0x64 /package/eda/altera/altera13.0sp1/nios2eds/bin/gnu/H-i686-pc-linux-gnu/bin/../lib/gcc/nios2-elf/4.1.2/../../../../nios2-elf/lib/mno-hw-mul/libc.a(lib_a-strtol.o)
                                0x551 (size before relaxing)
 .debug_str     0x00006edf       0x4c /package/eda/altera/altera13.0sp1/nios2eds/bin/gnu/H-i686-pc-linux-gnu/bin/../lib/gcc/nios2-elf/4.1.2/../../../../nios2-elf/lib/mno-hw-mul/libc.a(lib_a-strtoll_r.o)
                                0x542 (size before relaxing)
 .debug_str     0x00006f2b       0x52 /package/eda/altera/altera13.0sp1/nios2eds/bin/gnu/H-i686-pc-linux-gnu/bin/../lib/gcc/nios2-elf/4.1.2/../../../../nios2-elf/lib/mno-hw-mul/libc.a(lib_a-strtoul.o)
                                0x554 (size before relaxing)
 .debug_str     0x00006f7d       0x4e /package/eda/altera/altera13.0sp1/nios2eds/bin/gnu/H-i686-pc-linux-gnu/bin/../lib/gcc/nios2-elf/4.1.2/../../../../nios2-elf/lib/mno-hw-mul/libc.a(lib_a-strtoull_r.o)
                                0x544 (size before relaxing)
 .debug_str     0x00006fcb       0x58 /package/eda/altera/altera13.0sp1/nios2eds/bin/gnu/H-i686-pc-linux-gnu/bin/../lib/gcc/nios2-elf/4.1.2/../../../../nios2-elf/lib/mno-hw-mul/libc.a(lib_a-ungetc.o)
                                0x533 (size before relaxing)
 .debug_str     0x00007023       0x19 /package/eda/altera/altera13.0sp1/nios2eds/bin/gnu/H-i686-pc-linux-gnu/bin/../lib/gcc/nios2-elf/4.1.2/../../../../nios2-elf/lib/mno-hw-mul/libc.a(lib_a-callocr.o)
                                0x555 (size before relaxing)
 .debug_str     0x0000703c       0xa1 /package/eda/altera/altera13.0sp1/nios2eds/bin/gnu/H-i686-pc-linux-gnu/bin/../lib/gcc/nios2-elf/4.1.2/../../../../nios2-elf/lib/mno-hw-mul/libc.a(lib_a-gdtoa-gethex.o)
                                0x5cf (size before relaxing)
 .debug_str     0x000070dd       0x55 /package/eda/altera/altera13.0sp1/nios2eds/bin/gnu/H-i686-pc-linux-gnu/bin/../lib/gcc/nios2-elf/4.1.2/../../../../nios2-elf/lib/mno-hw-mul/libc.a(lib_a-gdtoa-hexnan.o)
                                0x1e2 (size before relaxing)
 .debug_str     0x00007132        0xd /package/eda/altera/altera13.0sp1/nios2eds/bin/gnu/H-i686-pc-linux-gnu/bin/../lib/gcc/nios2-elf/4.1.2/mno-hw-mul/libgcc.a(_fixunsdfsi.o)
                                0x170 (size before relaxing)
 .debug_str     0x0000713f       0x35 /package/eda/altera/altera13.0sp1/nios2eds/bin/gnu/H-i686-pc-linux-gnu/bin/../lib/gcc/nios2-elf/4.1.2/mno-hw-mul/libgcc.a(_udivdi3.o)
                                0x1fc (size before relaxing)
 .debug_str     0x00007174        0xa /package/eda/altera/altera13.0sp1/nios2eds/bin/gnu/H-i686-pc-linux-gnu/bin/../lib/gcc/nios2-elf/4.1.2/mno-hw-mul/libgcc.a(_umoddi3.o)
                                0x1fc (size before relaxing)
 .debug_str     0x0000717e        0x8 /package/eda/altera/altera13.0sp1/nios2eds/bin/gnu/H-i686-pc-linux-gnu/bin/../lib/gcc/nios2-elf/4.1.2/mno-hw-mul/libgcc.a(_ne_sf.o)
                                0x1fd (size before relaxing)
 .debug_str     0x00007186        0x8 /package/eda/altera/altera13.0sp1/nios2eds/bin/gnu/H-i686-pc-linux-gnu/bin/../lib/gcc/nios2-elf/4.1.2/mno-hw-mul/libgcc.a(_gt_sf.o)
                                0x1fd (size before relaxing)
 .debug_str     0x0000718e        0x8 /package/eda/altera/altera13.0sp1/nios2eds/bin/gnu/H-i686-pc-linux-gnu/bin/../lib/gcc/nios2-elf/4.1.2/mno-hw-mul/libgcc.a(_lt_sf.o)
                                0x1fd (size before relaxing)
 .debug_str     0x00007196       0x12 /package/eda/altera/altera13.0sp1/nios2eds/bin/gnu/H-i686-pc-linux-gnu/bin/../lib/gcc/nios2-elf/4.1.2/mno-hw-mul/libgcc.a(_addsub_df.o)
                                0x274 (size before relaxing)
 .debug_str     0x000071a8        0x8 /package/eda/altera/altera13.0sp1/nios2eds/bin/gnu/H-i686-pc-linux-gnu/bin/../lib/gcc/nios2-elf/4.1.2/mno-hw-mul/libgcc.a(_eq_df.o)
                                0x203 (size before relaxing)
 .debug_str     0x000071b0        0x8 /package/eda/altera/altera13.0sp1/nios2eds/bin/gnu/H-i686-pc-linux-gnu/bin/../lib/gcc/nios2-elf/4.1.2/mno-hw-mul/libgcc.a(_ne_df.o)
                                0x203 (size before relaxing)
 .debug_str     0x000071b8        0x8 /package/eda/altera/altera13.0sp1/nios2eds/bin/gnu/H-i686-pc-linux-gnu/bin/../lib/gcc/nios2-elf/4.1.2/mno-hw-mul/libgcc.a(_gt_df.o)
                                0x203 (size before relaxing)
 .debug_str     0x000071c0        0x8 /package/eda/altera/altera13.0sp1/nios2eds/bin/gnu/H-i686-pc-linux-gnu/bin/../lib/gcc/nios2-elf/4.1.2/mno-hw-mul/libgcc.a(_ge_df.o)
                                0x203 (size before relaxing)
 .debug_str     0x000071c8        0x8 /package/eda/altera/altera13.0sp1/nios2eds/bin/gnu/H-i686-pc-linux-gnu/bin/../lib/gcc/nios2-elf/4.1.2/mno-hw-mul/libgcc.a(_lt_df.o)
                                0x203 (size before relaxing)
 .debug_str     0x000071d0        0x8 /package/eda/altera/altera13.0sp1/nios2eds/bin/gnu/H-i686-pc-linux-gnu/bin/../lib/gcc/nios2-elf/4.1.2/mno-hw-mul/libgcc.a(_le_df.o)
                                0x203 (size before relaxing)
 .debug_str     0x000071d8        0xc /package/eda/altera/altera13.0sp1/nios2eds/bin/gnu/H-i686-pc-linux-gnu/bin/../lib/gcc/nios2-elf/4.1.2/mno-hw-mul/libgcc.a(_si_to_df.o)
                                0x1e3 (size before relaxing)
 .debug_str     0x000071e4        0xa /package/eda/altera/altera13.0sp1/nios2eds/bin/gnu/H-i686-pc-linux-gnu/bin/../lib/gcc/nios2-elf/4.1.2/mno-hw-mul/libgcc.a(_df_to_si.o)
                                0x20c (size before relaxing)
 .debug_str     0x000071ee       0x10 /package/eda/altera/altera13.0sp1/nios2eds/bin/gnu/H-i686-pc-linux-gnu/bin/../lib/gcc/nios2-elf/4.1.2/mno-hw-mul/libgcc.a(_fpcmp_parts_sf.o)
                                0x1cb (size before relaxing)
 .debug_str     0x000071fe       0x10 /package/eda/altera/altera13.0sp1/nios2eds/bin/gnu/H-i686-pc-linux-gnu/bin/../lib/gcc/nios2-elf/4.1.2/mno-hw-mul/libgcc.a(_fpcmp_parts_df.o)
                                0x1cb (size before relaxing)
 .debug_str     0x0000720e       0x76 ../demo_board_bsp//libhal_bsp.a(alt_close.o)
                                0x1b6 (size before relaxing)
 .debug_str     0x00007284       0x50 ../demo_board_bsp//libhal_bsp.a(alt_dev.o)
                                0x2b0 (size before relaxing)
 .debug_str     0x000072d4       0x2f ../demo_board_bsp//libhal_bsp.a(alt_env_lock.o)
                                0x490 (size before relaxing)
 .debug_str     0x00007303       0x14 ../demo_board_bsp//libhal_bsp.a(alt_errno.o)
                                 0xf0 (size before relaxing)
 .debug_str     0x00007317       0x2a ../demo_board_bsp//libhal_bsp.a(alt_exit.o)
                                 0xfc (size before relaxing)
 .debug_str     0x00007341       0x14 ../demo_board_bsp//libhal_bsp.a(alt_fstat.o)
                                0x297 (size before relaxing)
 .debug_str     0x00007355       0x1c ../demo_board_bsp//libhal_bsp.a(alt_isatty.o)
                                0x29f (size before relaxing)
 .debug_str     0x00007371       0xf1 ../demo_board_bsp//libhal_bsp.a(alt_load.o)
                                0x1bd (size before relaxing)
 .debug_str     0x00007462       0x14 ../demo_board_bsp//libhal_bsp.a(alt_lseek.o)
                                0x1bc (size before relaxing)
 .debug_str     0x00007476       0x44 ../demo_board_bsp//libhal_bsp.a(alt_main.o)
                                0x148 (size before relaxing)
 .debug_str     0x000074ba       0x38 ../demo_board_bsp//libhal_bsp.a(alt_malloc_lock.o)
                                0x499 (size before relaxing)
 .debug_str     0x000074f2       0x29 ../demo_board_bsp//libhal_bsp.a(alt_open.o)
                                0x1f6 (size before relaxing)
 .debug_str     0x0000751b       0x13 ../demo_board_bsp//libhal_bsp.a(alt_read.o)
                                0x2a2 (size before relaxing)
 .debug_str     0x0000752e       0x28 ../demo_board_bsp//libhal_bsp.a(alt_release_fd.o)
                                0x193 (size before relaxing)
 .debug_str     0x00007556       0x9d ../demo_board_bsp//libhal_bsp.a(alt_sbrk.o)
                                0x17f (size before relaxing)
 .debug_str     0x000075f3       0x14 ../demo_board_bsp//libhal_bsp.a(alt_write.o)
                                0x2a3 (size before relaxing)
 .debug_str     0x00007607      0x3c6 ../demo_board_bsp//libhal_bsp.a(alt_sys_init.o)
                                0x662 (size before relaxing)
 .debug_str     0x000079cd      0x1a8 ../demo_board_bsp//libhal_bsp.a(altera_avalon_cfi_flash.o)
                                0x4da (size before relaxing)
 .debug_str     0x00007b75      0x2c5 ../demo_board_bsp//libhal_bsp.a(altera_avalon_cfi_flash_table.o)
                                0x600 (size before relaxing)
 .debug_str     0x00007e3a       0xac ../demo_board_bsp//libhal_bsp.a(altera_avalon_jtag_uart_fd.o)
                                0x34f (size before relaxing)
 .debug_str     0x00007ee6       0xc9 ../demo_board_bsp//libhal_bsp.a(altera_avalon_jtag_uart_init.o)
                                0x2e3 (size before relaxing)
 .debug_str     0x00007faf       0x4a ../demo_board_bsp//libhal_bsp.a(altera_avalon_jtag_uart_ioctl.o)
                                0x23e (size before relaxing)
 .debug_str     0x00007ff9       0x48 ../demo_board_bsp//libhal_bsp.a(altera_avalon_jtag_uart_read.o)
                                0x293 (size before relaxing)
 .debug_str     0x00008041       0x4a ../demo_board_bsp//libhal_bsp.a(altera_avalon_jtag_uart_write.o)
                                0x294 (size before relaxing)
 .debug_str     0x0000808b       0xc6 ../demo_board_bsp//libhal_bsp.a(altera_avalon_performance_counter.o)
                                0x18f (size before relaxing)
 .debug_str     0x00008151      0x1aa ../demo_board_bsp//libhal_bsp.a(altera_ro_zipfs.o)
                                0x4e8 (size before relaxing)
 .debug_str     0x000082fb      0x278 ../demo_board_bsp//libhal_bsp.a(altera_up_avalon_video_pixel_buffer_dma.o)
                                0x4bc (size before relaxing)
 .debug_str     0x00008573       0xcf ../demo_board_bsp//libhal_bsp.a(perf_print_formatted_report.o)
                                0x1c9 (size before relaxing)
 .debug_str     0x00008642       0x59 ../demo_board_bsp//libhal_bsp.a(alt_alarm_start.o)
                                0x229 (size before relaxing)
 .debug_str     0x0000869b       0x2c ../demo_board_bsp//libhal_bsp.a(alt_dcache_flush.o)
                                0x106 (size before relaxing)
 .debug_str     0x000086c7       0x34 ../demo_board_bsp//libhal_bsp.a(alt_dcache_flush_all.o)
                                0x100 (size before relaxing)
 .debug_str     0x000086fb       0x42 ../demo_board_bsp//libhal_bsp.a(alt_dev_llist_insert.o)
                                0x177 (size before relaxing)
 .debug_str     0x0000873d       0x48 ../demo_board_bsp//libhal_bsp.a(alt_do_ctors.o)
                                 0x90 (size before relaxing)
 .debug_str     0x00008785       0x4c ../demo_board_bsp//libhal_bsp.a(alt_do_dtors.o)
                                 0x8f (size before relaxing)
 .debug_str     0x000087d1       0x24 ../demo_board_bsp//libhal_bsp.a(alt_find_dev.o)
                                0x197 (size before relaxing)
 .debug_str     0x000087f5       0x26 ../demo_board_bsp//libhal_bsp.a(alt_find_file.o)
                                0x1a5 (size before relaxing)
 .debug_str     0x0000881b       0x3f ../demo_board_bsp//libhal_bsp.a(alt_flash_dev.o)
                                0x29a (size before relaxing)
 .debug_str     0x0000885a       0x20 ../demo_board_bsp//libhal_bsp.a(alt_fs_reg.o)
                                0x1b4 (size before relaxing)
 .debug_str     0x0000887a       0x30 ../demo_board_bsp//libhal_bsp.a(alt_get_fd.o)
                                0x1c7 (size before relaxing)
 .debug_str     0x000088aa       0x34 ../demo_board_bsp//libhal_bsp.a(alt_icache_flush_all.o)
                                0x100 (size before relaxing)
 .debug_str     0x000088de       0xbd ../demo_board_bsp//libhal_bsp.a(alt_iic.o)
                                0x1e9 (size before relaxing)
 .debug_str     0x0000899b       0x4c ../demo_board_bsp//libhal_bsp.a(alt_iic_isr_register.o)
                                0x193 (size before relaxing)
 .debug_str     0x000089e7       0x56 ../demo_board_bsp//libhal_bsp.a(alt_io_redirect.o)
                                0x2c1 (size before relaxing)
 .debug_str     0x00008a3d       0x3a ../demo_board_bsp//libhal_bsp.a(alt_irq_handler.o)
                                0x142 (size before relaxing)
 .debug_str     0x00008a77       0x17 ../demo_board_bsp//libhal_bsp.a(alt_irq_vars.o)
                                 0xfa (size before relaxing)
 .debug_str     0x00008a8e       0x4a ../demo_board_bsp//libhal_bsp.a(alt_tick.o)
                                0x1fd (size before relaxing)
 .debug_str     0x00008ad8       0x3b ../demo_board_bsp//libhal_bsp.a(altera_nios2_qsys_irq.o)
                                0x107 (size before relaxing)
 .debug_str     0x00008b13       0x93 ../demo_board_bsp//libhal_bsp.a(altera_avalon_cfi_flash_amd.o)
                                0x3da (size before relaxing)
 .debug_str     0x00008ba6       0x80 ../demo_board_bsp//libhal_bsp.a(altera_avalon_cfi_flash_intel.o)
                                0x3d7 (size before relaxing)
 .debug_str     0x00008c26       0x27 ../demo_board_bsp//libhal_bsp.a(alt_usleep.o)
                                 0xf3 (size before relaxing)
 .debug_str     0x00008c4d       0x42 ../demo_board_bsp//libhal_bsp.a(alt_busy_sleep.o)
                                0x116 (size before relaxing)
 .debug_str     0x00008c8f       0x3e /package/eda/altera/altera13.0sp1/nios2eds/bin/gnu/H-i686-pc-linux-gnu/bin/../lib/gcc/nios2-elf/4.1.2/../../../../nios2-elf/lib/mno-hw-mul/libc.a(lib_a-atexit.o)
                                0x1d2 (size before relaxing)
 .debug_str     0x00008ccd       0x45 /package/eda/altera/altera13.0sp1/nios2eds/bin/gnu/H-i686-pc-linux-gnu/bin/../lib/gcc/nios2-elf/4.1.2/../../../../nios2-elf/lib/mno-hw-mul/libc.a(lib_a-memcmp.o)
                                0x17d (size before relaxing)
 .debug_str     0x00008d12       0x54 /package/eda/altera/altera13.0sp1/nios2eds/bin/gnu/H-i686-pc-linux-gnu/bin/../lib/gcc/nios2-elf/4.1.2/../../../../nios2-elf/lib/mno-hw-mul/libc.a(lib_a-__atexit.o)
                                0x537 (size before relaxing)
 .debug_str     0x00008d66        0xe /package/eda/altera/altera13.0sp1/nios2eds/bin/gnu/H-i686-pc-linux-gnu/bin/../lib/gcc/nios2-elf/4.1.2/mno-hw-mul/libgcc.a(_floatundidf.o)
                                0x171 (size before relaxing)
 .debug_str     0x00008d74       0x42 /package/eda/altera/altera13.0sp1/nios2eds/bin/gnu/H-i686-pc-linux-gnu/bin/../lib/gcc/nios2-elf/4.1.2/mno-hw-mul/libgcc.a(lib2-divtable.o)
                                0x14c (size before relaxing)

.debug_loc      0x00000000    0x307ef
 *(.debug_loc)
 .debug_loc     0x00000000       0x5a obj/default/cdjpeg.o
 .debug_loc     0x0000005a      0x621 obj/default/djpeg.o
 .debug_loc     0x0000067b      0x2dd obj/default/jcapimin.o
 .debug_loc     0x00000958      0x22f obj/default/jcapistd.o
 .debug_loc     0x00000b87      0x6e7 obj/default/jccoefct.o
 .debug_loc     0x0000126e      0x602 obj/default/jccolor.o
 .debug_loc     0x00001870      0x433 obj/default/jcdctmgr.o
 .debug_loc     0x00001ca3     0x1743 obj/default/jchuff.o
 .debug_loc     0x000033e6       0x53 obj/default/jcinit.o
 .debug_loc     0x00003439      0x2b9 obj/default/jcmainct.o
 .debug_loc     0x000036f2      0xa1a obj/default/jcmarker.o
 .debug_loc     0x0000410c      0xb5b obj/default/jcmaster.o
 .debug_loc     0x00004c67       0xf4 obj/default/jcomapi.o
 .debug_loc     0x00004d5b      0x970 obj/default/jcparam.o
 .debug_loc     0x000056cb     0x1bdf obj/default/jcphuff.o
 .debug_loc     0x000072aa      0x664 obj/default/jcprepct.o
 .debug_loc     0x0000790e      0xb01 obj/default/jcsample.o
 .debug_loc     0x0000840f      0x3cd obj/default/jctrans.o
 .debug_loc     0x000087dc      0x4ae obj/default/jdapimin.o
 .debug_loc     0x00008c8a      0x48d obj/default/jdapistd.o
 .debug_loc     0x00009117      0x1ed obj/default/jdatadst.o
 .debug_loc     0x00009304      0x17c obj/default/jdatasrc.o
 .debug_loc     0x00009480      0xfe3 obj/default/jdcoefct.o
 .debug_loc     0x0000a463      0x5c1 obj/default/jdcolor.o
 .debug_loc     0x0000aa24      0x111 obj/default/jddctmgr.o
 .debug_loc     0x0000ab35      0xf19 obj/default/jdhuff.o
 .debug_loc     0x0000ba4e      0x36f obj/default/jdinput.o
 .debug_loc     0x0000bdbd      0x819 obj/default/jdmainct.o
 .debug_loc     0x0000c5d6     0x2bef obj/default/jdmarker.o
 .debug_loc     0x0000f1c5      0x360 obj/default/jdmaster.o
 .debug_loc     0x0000f525      0x7a4 obj/default/jdmerge.o
 .debug_loc     0x0000fcc9     0x11a0 obj/default/jdphuff.o
 .debug_loc     0x00010e69      0x531 obj/default/jdpostct.o
 .debug_loc     0x0001139a      0xa04 obj/default/jdsample.o
 .debug_loc     0x00011d9e      0x129 obj/default/jdtrans.o
 .debug_loc     0x00011ec7      0x206 obj/default/jerror.o
 .debug_loc     0x000120cd      0x475 obj/default/jfdctflt.o
 .debug_loc     0x00012542      0x2a3 obj/default/jfdctfst.o
 .debug_loc     0x000127e5      0x261 obj/default/jfdctint.o
 .debug_loc     0x00012a46      0x551 obj/default/jidctflt.o
 .debug_loc     0x00012f97      0x3c2 obj/default/jidctfst.o
 .debug_loc     0x00013359      0x3cf obj/default/jidctint.o
 .debug_loc     0x00013728      0x4be obj/default/jidctred.o
 .debug_loc     0x00013be6     0x1534 obj/default/jmemmgr.o
 .debug_loc     0x0001511a       0xf7 obj/default/jmemnobs.o
 .debug_loc     0x00015211     0x1121 obj/default/jquant1.o
 .debug_loc     0x00016332     0x187f obj/default/jquant2.o
 .debug_loc     0x00017bb1      0x251 obj/default/jutils.o
 .debug_loc     0x00017e02      0x61f obj/default/rdcolmap.o
 .debug_loc     0x00018421      0x796 obj/default/wrbmp.o
 .debug_loc     0x00018bb7      0x63e obj/default/wrgif.o
 .debug_loc     0x000191f5      0x3c9 obj/default/wrppm.o
 .debug_loc     0x000195be      0x441 obj/default/wrtarga.o
 .debug_loc     0x000199ff      0x289 /package/eda/altera/altera13.0sp1/nios2eds/bin/gnu/H-i686-pc-linux-gnu/bin/../lib/gcc/nios2-elf/4.1.2/mno-hw-mul/libgcc.a(_addsub_sf.o)
 .debug_loc     0x00019c88      0x103 /package/eda/altera/altera13.0sp1/nios2eds/bin/gnu/H-i686-pc-linux-gnu/bin/../lib/gcc/nios2-elf/4.1.2/mno-hw-mul/libgcc.a(_mul_sf.o)
 .debug_loc     0x00019d8b       0x8f /package/eda/altera/altera13.0sp1/nios2eds/bin/gnu/H-i686-pc-linux-gnu/bin/../lib/gcc/nios2-elf/4.1.2/mno-hw-mul/libgcc.a(_si_to_sf.o)
 .debug_loc     0x00019e1a       0x66 /package/eda/altera/altera13.0sp1/nios2eds/bin/gnu/H-i686-pc-linux-gnu/bin/../lib/gcc/nios2-elf/4.1.2/mno-hw-mul/libgcc.a(_sf_to_si.o)
 .debug_loc     0x00019e80      0x3b4 /package/eda/altera/altera13.0sp1/nios2eds/bin/gnu/H-i686-pc-linux-gnu/bin/../lib/gcc/nios2-elf/4.1.2/mno-hw-mul/libgcc.a(_mul_df.o)
 .debug_loc     0x0001a234      0x1df /package/eda/altera/altera13.0sp1/nios2eds/bin/gnu/H-i686-pc-linux-gnu/bin/../lib/gcc/nios2-elf/4.1.2/mno-hw-mul/libgcc.a(_div_df.o)
 .debug_loc     0x0001a413       0x6a /package/eda/altera/altera13.0sp1/nios2eds/bin/gnu/H-i686-pc-linux-gnu/bin/../lib/gcc/nios2-elf/4.1.2/mno-hw-mul/libgcc.a(_df_to_sf.o)
 .debug_loc     0x0001a47d       0x5b /package/eda/altera/altera13.0sp1/nios2eds/bin/gnu/H-i686-pc-linux-gnu/bin/../lib/gcc/nios2-elf/4.1.2/mno-hw-mul/libgcc.a(_usi_to_df.o)
 .debug_loc     0x0001a4d8      0x1d2 /package/eda/altera/altera13.0sp1/nios2eds/bin/gnu/H-i686-pc-linux-gnu/bin/../lib/gcc/nios2-elf/4.1.2/mno-hw-mul/libgcc.a(lib2-divmod.o)
 .debug_loc     0x0001a6aa       0x4f /package/eda/altera/altera13.0sp1/nios2eds/bin/gnu/H-i686-pc-linux-gnu/bin/../lib/gcc/nios2-elf/4.1.2/mno-hw-mul/libgcc.a(lib2-mul.o)
 .debug_loc     0x0001a6f9      0x103 /package/eda/altera/altera13.0sp1/nios2eds/bin/gnu/H-i686-pc-linux-gnu/bin/../lib/gcc/nios2-elf/4.1.2/mno-hw-mul/libgcc.a(_muldi3.o)
 .debug_loc     0x0001a7fc       0x1e /package/eda/altera/altera13.0sp1/nios2eds/bin/gnu/H-i686-pc-linux-gnu/bin/../lib/gcc/nios2-elf/4.1.2/mno-hw-mul/libgcc.a(_clzsi2.o)
 .debug_loc     0x0001a81a       0xf9 /package/eda/altera/altera13.0sp1/nios2eds/bin/gnu/H-i686-pc-linux-gnu/bin/../lib/gcc/nios2-elf/4.1.2/mno-hw-mul/libgcc.a(_pack_sf.o)
 .debug_loc     0x0001a913       0x31 /package/eda/altera/altera13.0sp1/nios2eds/bin/gnu/H-i686-pc-linux-gnu/bin/../lib/gcc/nios2-elf/4.1.2/mno-hw-mul/libgcc.a(_unpack_sf.o)
 .debug_loc     0x0001a944       0x6b /package/eda/altera/altera13.0sp1/nios2eds/bin/gnu/H-i686-pc-linux-gnu/bin/../lib/gcc/nios2-elf/4.1.2/mno-hw-mul/libgcc.a(_make_sf.o)
 .debug_loc     0x0001a9af      0x184 /package/eda/altera/altera13.0sp1/nios2eds/bin/gnu/H-i686-pc-linux-gnu/bin/../lib/gcc/nios2-elf/4.1.2/mno-hw-mul/libgcc.a(_pack_df.o)
 .debug_loc     0x0001ab33       0xe5 /package/eda/altera/altera13.0sp1/nios2eds/bin/gnu/H-i686-pc-linux-gnu/bin/../lib/gcc/nios2-elf/4.1.2/mno-hw-mul/libgcc.a(_unpack_df.o)
 .debug_loc     0x0001ac18       0x3d /package/eda/altera/altera13.0sp1/nios2eds/bin/gnu/H-i686-pc-linux-gnu/bin/../lib/gcc/nios2-elf/4.1.2/../../../../nios2-elf/lib/mno-hw-mul/libc.a(lib_a-exit.o)
 .debug_loc     0x0001ac55       0xe4 /package/eda/altera/altera13.0sp1/nios2eds/bin/gnu/H-i686-pc-linux-gnu/bin/../lib/gcc/nios2-elf/4.1.2/../../../../nios2-elf/lib/mno-hw-mul/libc.a(lib_a-fclose.o)
 .debug_loc     0x0001ad39      0x1f6 /package/eda/altera/altera13.0sp1/nios2eds/bin/gnu/H-i686-pc-linux-gnu/bin/../lib/gcc/nios2-elf/4.1.2/../../../../nios2-elf/lib/mno-hw-mul/libc.a(lib_a-fflush.o)
 .debug_loc     0x0001af2f      0x1e1 /package/eda/altera/altera13.0sp1/nios2eds/bin/gnu/H-i686-pc-linux-gnu/bin/../lib/gcc/nios2-elf/4.1.2/../../../../nios2-elf/lib/mno-hw-mul/libc.a(lib_a-findfp.o)
 .debug_loc     0x0001b110      0x1c9 /package/eda/altera/altera13.0sp1/nios2eds/bin/gnu/H-i686-pc-linux-gnu/bin/../lib/gcc/nios2-elf/4.1.2/../../../../nios2-elf/lib/mno-hw-mul/libc.a(lib_a-fopen.o)
 .debug_loc     0x0001b2d9       0xf1 /package/eda/altera/altera13.0sp1/nios2eds/bin/gnu/H-i686-pc-linux-gnu/bin/../lib/gcc/nios2-elf/4.1.2/../../../../nios2-elf/lib/mno-hw-mul/libc.a(lib_a-fprintf.o)
 .debug_loc     0x0001b3ca      0x14d /package/eda/altera/altera13.0sp1/nios2eds/bin/gnu/H-i686-pc-linux-gnu/bin/../lib/gcc/nios2-elf/4.1.2/../../../../nios2-elf/lib/mno-hw-mul/libc.a(lib_a-fputc.o)
 .debug_loc     0x0001b517      0x2ed /package/eda/altera/altera13.0sp1/nios2eds/bin/gnu/H-i686-pc-linux-gnu/bin/../lib/gcc/nios2-elf/4.1.2/../../../../nios2-elf/lib/mno-hw-mul/libc.a(lib_a-fread.o)
 .debug_loc     0x0001b804      0x4a7 /package/eda/altera/altera13.0sp1/nios2eds/bin/gnu/H-i686-pc-linux-gnu/bin/../lib/gcc/nios2-elf/4.1.2/../../../../nios2-elf/lib/mno-hw-mul/libc.a(lib_a-freer.o)
 .debug_loc     0x0001bcab      0x348 /package/eda/altera/altera13.0sp1/nios2eds/bin/gnu/H-i686-pc-linux-gnu/bin/../lib/gcc/nios2-elf/4.1.2/../../../../nios2-elf/lib/mno-hw-mul/libc.a(lib_a-fseek.o)
 .debug_loc     0x0001bff3       0x79 /package/eda/altera/altera13.0sp1/nios2eds/bin/gnu/H-i686-pc-linux-gnu/bin/../lib/gcc/nios2-elf/4.1.2/../../../../nios2-elf/lib/mno-hw-mul/libc.a(lib_a-fstatr.o)
 .debug_loc     0x0001c06c      0x1d2 /package/eda/altera/altera13.0sp1/nios2eds/bin/gnu/H-i686-pc-linux-gnu/bin/../lib/gcc/nios2-elf/4.1.2/../../../../nios2-elf/lib/mno-hw-mul/libc.a(lib_a-fwalk.o)
 .debug_loc     0x0001c23e      0x183 /package/eda/altera/altera13.0sp1/nios2eds/bin/gnu/H-i686-pc-linux-gnu/bin/../lib/gcc/nios2-elf/4.1.2/../../../../nios2-elf/lib/mno-hw-mul/libc.a(lib_a-fwrite.o)
 .debug_loc     0x0001c3c1      0x10b /package/eda/altera/altera13.0sp1/nios2eds/bin/gnu/H-i686-pc-linux-gnu/bin/../lib/gcc/nios2-elf/4.1.2/../../../../nios2-elf/lib/mno-hw-mul/libc.a(lib_a-getc.o)
 .debug_loc     0x0001c4cc       0x79 /package/eda/altera/altera13.0sp1/nios2eds/bin/gnu/H-i686-pc-linux-gnu/bin/../lib/gcc/nios2-elf/4.1.2/../../../../nios2-elf/lib/mno-hw-mul/libc.a(lib_a-getenv.o)
 .debug_loc     0x0001c545      0x144 /package/eda/altera/altera13.0sp1/nios2eds/bin/gnu/H-i686-pc-linux-gnu/bin/../lib/gcc/nios2-elf/4.1.2/../../../../nios2-elf/lib/mno-hw-mul/libc.a(lib_a-getenv_r.o)
 .debug_loc     0x0001c689      0x11c /package/eda/altera/altera13.0sp1/nios2eds/bin/gnu/H-i686-pc-linux-gnu/bin/../lib/gcc/nios2-elf/4.1.2/../../../../nios2-elf/lib/mno-hw-mul/libc.a(lib_a-makebuf.o)
 .debug_loc     0x0001c7a5       0x3c /package/eda/altera/altera13.0sp1/nios2eds/bin/gnu/H-i686-pc-linux-gnu/bin/../lib/gcc/nios2-elf/4.1.2/../../../../nios2-elf/lib/mno-hw-mul/libc.a(lib_a-malloc.o)
 .debug_loc     0x0001c7e1      0xaeb /package/eda/altera/altera13.0sp1/nios2eds/bin/gnu/H-i686-pc-linux-gnu/bin/../lib/gcc/nios2-elf/4.1.2/../../../../nios2-elf/lib/mno-hw-mul/libc.a(lib_a-mallocr.o)
 .debug_loc     0x0001d2cc       0xca /package/eda/altera/altera13.0sp1/nios2eds/bin/gnu/H-i686-pc-linux-gnu/bin/../lib/gcc/nios2-elf/4.1.2/../../../../nios2-elf/lib/mno-hw-mul/libc.a(lib_a-memcpy.o)
 .debug_loc     0x0001d396       0xa1 /package/eda/altera/altera13.0sp1/nios2eds/bin/gnu/H-i686-pc-linux-gnu/bin/../lib/gcc/nios2-elf/4.1.2/../../../../nios2-elf/lib/mno-hw-mul/libc.a(lib_a-memset.o)
 .debug_loc     0x0001d437       0x97 /package/eda/altera/altera13.0sp1/nios2eds/bin/gnu/H-i686-pc-linux-gnu/bin/../lib/gcc/nios2-elf/4.1.2/../../../../nios2-elf/lib/mno-hw-mul/libc.a(lib_a-openr.o)
 .debug_loc     0x0001d4ce       0xcb /package/eda/altera/altera13.0sp1/nios2eds/bin/gnu/H-i686-pc-linux-gnu/bin/../lib/gcc/nios2-elf/4.1.2/../../../../nios2-elf/lib/mno-hw-mul/libc.a(lib_a-printf.o)
 .debug_loc     0x0001d599      0x20d /package/eda/altera/altera13.0sp1/nios2eds/bin/gnu/H-i686-pc-linux-gnu/bin/../lib/gcc/nios2-elf/4.1.2/../../../../nios2-elf/lib/mno-hw-mul/libc.a(lib_a-putc.o)
 .debug_loc     0x0001d7a6       0xa2 /package/eda/altera/altera13.0sp1/nios2eds/bin/gnu/H-i686-pc-linux-gnu/bin/../lib/gcc/nios2-elf/4.1.2/../../../../nios2-elf/lib/mno-hw-mul/libc.a(lib_a-puts.o)
 .debug_loc     0x0001d848       0xd1 /package/eda/altera/altera13.0sp1/nios2eds/bin/gnu/H-i686-pc-linux-gnu/bin/../lib/gcc/nios2-elf/4.1.2/../../../../nios2-elf/lib/mno-hw-mul/libc.a(lib_a-refill.o)
 .debug_loc     0x0001d919       0x6e /package/eda/altera/altera13.0sp1/nios2eds/bin/gnu/H-i686-pc-linux-gnu/bin/../lib/gcc/nios2-elf/4.1.2/../../../../nios2-elf/lib/mno-hw-mul/libc.a(lib_a-rget.o)
 .debug_loc     0x0001d987       0x5b /package/eda/altera/altera13.0sp1/nios2eds/bin/gnu/H-i686-pc-linux-gnu/bin/../lib/gcc/nios2-elf/4.1.2/../../../../nios2-elf/lib/mno-hw-mul/libc.a(lib_a-sbrkr.o)
 .debug_loc     0x0001d9e2       0xc0 /package/eda/altera/altera13.0sp1/nios2eds/bin/gnu/H-i686-pc-linux-gnu/bin/../lib/gcc/nios2-elf/4.1.2/../../../../nios2-elf/lib/mno-hw-mul/libc.a(lib_a-sprintf.o)
 .debug_loc     0x0001daa2       0xc0 /package/eda/altera/altera13.0sp1/nios2eds/bin/gnu/H-i686-pc-linux-gnu/bin/../lib/gcc/nios2-elf/4.1.2/../../../../nios2-elf/lib/mno-hw-mul/libc.a(lib_a-sscanf.o)
 .debug_loc     0x0001db62      0x21f /package/eda/altera/altera13.0sp1/nios2eds/bin/gnu/H-i686-pc-linux-gnu/bin/../lib/gcc/nios2-elf/4.1.2/../../../../nios2-elf/lib/mno-hw-mul/libc.a(lib_a-stdio.o)
 .debug_loc     0x0001dd81       0x1e /package/eda/altera/altera13.0sp1/nios2eds/bin/gnu/H-i686-pc-linux-gnu/bin/../lib/gcc/nios2-elf/4.1.2/../../../../nios2-elf/lib/mno-hw-mul/libc.a(lib_a-strdup.o)
 .debug_loc     0x0001dd9f       0xe4 /package/eda/altera/altera13.0sp1/nios2eds/bin/gnu/H-i686-pc-linux-gnu/bin/../lib/gcc/nios2-elf/4.1.2/../../../../nios2-elf/lib/mno-hw-mul/libc.a(lib_a-strdup_r.o)
 .debug_loc     0x0001de83       0x3c /package/eda/altera/altera13.0sp1/nios2eds/bin/gnu/H-i686-pc-linux-gnu/bin/../lib/gcc/nios2-elf/4.1.2/../../../../nios2-elf/lib/mno-hw-mul/libc.a(lib_a-strlen.o)
 .debug_loc     0x0001debf       0x78 /package/eda/altera/altera13.0sp1/nios2eds/bin/gnu/H-i686-pc-linux-gnu/bin/../lib/gcc/nios2-elf/4.1.2/../../../../nios2-elf/lib/mno-hw-mul/libc.a(lib_a-strncmp.o)
 .debug_loc     0x0001df37     0x1dc0 /package/eda/altera/altera13.0sp1/nios2eds/bin/gnu/H-i686-pc-linux-gnu/bin/../lib/gcc/nios2-elf/4.1.2/../../../../nios2-elf/lib/mno-hw-mul/libc.a(lib_a-vfprintf.o)
 .debug_loc     0x0001fcf7     0x13e9 /package/eda/altera/altera13.0sp1/nios2eds/bin/gnu/H-i686-pc-linux-gnu/bin/../lib/gcc/nios2-elf/4.1.2/../../../../nios2-elf/lib/mno-hw-mul/libc.a(lib_a-vfscanf.o)
 .debug_loc     0x000210e0      0x157 /package/eda/altera/altera13.0sp1/nios2eds/bin/gnu/H-i686-pc-linux-gnu/bin/../lib/gcc/nios2-elf/4.1.2/../../../../nios2-elf/lib/mno-hw-mul/libc.a(lib_a-wbuf.o)
 .debug_loc     0x00021237       0x97 /package/eda/altera/altera13.0sp1/nios2eds/bin/gnu/H-i686-pc-linux-gnu/bin/../lib/gcc/nios2-elf/4.1.2/../../../../nios2-elf/lib/mno-hw-mul/libc.a(lib_a-writer.o)
 .debug_loc     0x000212ce       0x7c /package/eda/altera/altera13.0sp1/nios2eds/bin/gnu/H-i686-pc-linux-gnu/bin/../lib/gcc/nios2-elf/4.1.2/../../../../nios2-elf/lib/mno-hw-mul/libc.a(lib_a-wsetup.o)
 .debug_loc     0x0002134a      0x1cb /package/eda/altera/altera13.0sp1/nios2eds/bin/gnu/H-i686-pc-linux-gnu/bin/../lib/gcc/nios2-elf/4.1.2/../../../../nios2-elf/lib/mno-hw-mul/libc.a(lib_a-__call_atexit.o)
 .debug_loc     0x00021515       0x5b /package/eda/altera/altera13.0sp1/nios2eds/bin/gnu/H-i686-pc-linux-gnu/bin/../lib/gcc/nios2-elf/4.1.2/../../../../nios2-elf/lib/mno-hw-mul/libc.a(lib_a-closer.o)
 .debug_loc     0x00021570     0x1da7 /package/eda/altera/altera13.0sp1/nios2eds/bin/gnu/H-i686-pc-linux-gnu/bin/../lib/gcc/nios2-elf/4.1.2/../../../../nios2-elf/lib/mno-hw-mul/libc.a(lib_a-dtoa.o)
 .debug_loc     0x00023317       0xa4 /package/eda/altera/altera13.0sp1/nios2eds/bin/gnu/H-i686-pc-linux-gnu/bin/../lib/gcc/nios2-elf/4.1.2/../../../../nios2-elf/lib/mno-hw-mul/libc.a(lib_a-flags.o)
 .debug_loc     0x000233bb      0x4e4 /package/eda/altera/altera13.0sp1/nios2eds/bin/gnu/H-i686-pc-linux-gnu/bin/../lib/gcc/nios2-elf/4.1.2/../../../../nios2-elf/lib/mno-hw-mul/libc.a(lib_a-fvwrite.o)
 .debug_loc     0x0002389f       0x5b /package/eda/altera/altera13.0sp1/nios2eds/bin/gnu/H-i686-pc-linux-gnu/bin/../lib/gcc/nios2-elf/4.1.2/../../../../nios2-elf/lib/mno-hw-mul/libc.a(lib_a-isattyr.o)
 .debug_loc     0x000238fa       0xe1 /package/eda/altera/altera13.0sp1/nios2eds/bin/gnu/H-i686-pc-linux-gnu/bin/../lib/gcc/nios2-elf/4.1.2/../../../../nios2-elf/lib/mno-hw-mul/libc.a(lib_a-locale.o)
 .debug_loc     0x000239db       0x97 /package/eda/altera/altera13.0sp1/nios2eds/bin/gnu/H-i686-pc-linux-gnu/bin/../lib/gcc/nios2-elf/4.1.2/../../../../nios2-elf/lib/mno-hw-mul/libc.a(lib_a-lseekr.o)
 .debug_loc     0x00023a72      0x182 /package/eda/altera/altera13.0sp1/nios2eds/bin/gnu/H-i686-pc-linux-gnu/bin/../lib/gcc/nios2-elf/4.1.2/../../../../nios2-elf/lib/mno-hw-mul/libc.a(lib_a-mbrtowc.o)
 .debug_loc     0x00023bf4       0x1f /package/eda/altera/altera13.0sp1/nios2eds/bin/gnu/H-i686-pc-linux-gnu/bin/../lib/gcc/nios2-elf/4.1.2/../../../../nios2-elf/lib/mno-hw-mul/libc.a(lib_a-mbtowc_r.o)
 .debug_loc     0x00023c13      0x106 /package/eda/altera/altera13.0sp1/nios2eds/bin/gnu/H-i686-pc-linux-gnu/bin/../lib/gcc/nios2-elf/4.1.2/../../../../nios2-elf/lib/mno-hw-mul/libc.a(lib_a-memchr.o)
 .debug_loc     0x00023d19      0x117 /package/eda/altera/altera13.0sp1/nios2eds/bin/gnu/H-i686-pc-linux-gnu/bin/../lib/gcc/nios2-elf/4.1.2/../../../../nios2-elf/lib/mno-hw-mul/libc.a(lib_a-memmove.o)
 .debug_loc     0x00023e30     0x1547 /package/eda/altera/altera13.0sp1/nios2eds/bin/gnu/H-i686-pc-linux-gnu/bin/../lib/gcc/nios2-elf/4.1.2/../../../../nios2-elf/lib/mno-hw-mul/libc.a(lib_a-mprec.o)
 .debug_loc     0x00025377       0x97 /package/eda/altera/altera13.0sp1/nios2eds/bin/gnu/H-i686-pc-linux-gnu/bin/../lib/gcc/nios2-elf/4.1.2/../../../../nios2-elf/lib/mno-hw-mul/libc.a(lib_a-readr.o)
 .debug_loc     0x0002540e      0x8c0 /package/eda/altera/altera13.0sp1/nios2eds/bin/gnu/H-i686-pc-linux-gnu/bin/../lib/gcc/nios2-elf/4.1.2/../../../../nios2-elf/lib/mno-hw-mul/libc.a(lib_a-reallocr.o)
 .debug_loc     0x00025cce       0x36 /package/eda/altera/altera13.0sp1/nios2eds/bin/gnu/H-i686-pc-linux-gnu/bin/../lib/gcc/nios2-elf/4.1.2/../../../../nios2-elf/lib/mno-hw-mul/libc.a(lib_a-s_isinfd.o)
 .debug_loc     0x00025d04       0x18 /package/eda/altera/altera13.0sp1/nios2eds/bin/gnu/H-i686-pc-linux-gnu/bin/../lib/gcc/nios2-elf/4.1.2/../../../../nios2-elf/lib/mno-hw-mul/libc.a(lib_a-s_isnand.o)
 .debug_loc     0x00025d1c       0xdb /package/eda/altera/altera13.0sp1/nios2eds/bin/gnu/H-i686-pc-linux-gnu/bin/../lib/gcc/nios2-elf/4.1.2/../../../../nios2-elf/lib/mno-hw-mul/libc.a(lib_a-sccl.o)
 .debug_loc     0x00025df7       0x65 /package/eda/altera/altera13.0sp1/nios2eds/bin/gnu/H-i686-pc-linux-gnu/bin/../lib/gcc/nios2-elf/4.1.2/../../../../nios2-elf/lib/mno-hw-mul/libc.a(lib_a-strcmp.o)
 .debug_loc     0x00025e5c     0x20c3 /package/eda/altera/altera13.0sp1/nios2eds/bin/gnu/H-i686-pc-linux-gnu/bin/../lib/gcc/nios2-elf/4.1.2/../../../../nios2-elf/lib/mno-hw-mul/libc.a(lib_a-strtod.o)
 .debug_loc     0x00027f1f      0x327 /package/eda/altera/altera13.0sp1/nios2eds/bin/gnu/H-i686-pc-linux-gnu/bin/../lib/gcc/nios2-elf/4.1.2/../../../../nios2-elf/lib/mno-hw-mul/libc.a(lib_a-strtol.o)
 .debug_loc     0x00028246      0x30f /package/eda/altera/altera13.0sp1/nios2eds/bin/gnu/H-i686-pc-linux-gnu/bin/../lib/gcc/nios2-elf/4.1.2/../../../../nios2-elf/lib/mno-hw-mul/libc.a(lib_a-strtoll_r.o)
 .debug_loc     0x00028555      0x271 /package/eda/altera/altera13.0sp1/nios2eds/bin/gnu/H-i686-pc-linux-gnu/bin/../lib/gcc/nios2-elf/4.1.2/../../../../nios2-elf/lib/mno-hw-mul/libc.a(lib_a-strtoul.o)
 .debug_loc     0x000287c6      0x282 /package/eda/altera/altera13.0sp1/nios2eds/bin/gnu/H-i686-pc-linux-gnu/bin/../lib/gcc/nios2-elf/4.1.2/../../../../nios2-elf/lib/mno-hw-mul/libc.a(lib_a-strtoull_r.o)
 .debug_loc     0x00028a48      0x207 /package/eda/altera/altera13.0sp1/nios2eds/bin/gnu/H-i686-pc-linux-gnu/bin/../lib/gcc/nios2-elf/4.1.2/../../../../nios2-elf/lib/mno-hw-mul/libc.a(lib_a-ungetc.o)
 .debug_loc     0x00028c4f       0xff /package/eda/altera/altera13.0sp1/nios2eds/bin/gnu/H-i686-pc-linux-gnu/bin/../lib/gcc/nios2-elf/4.1.2/../../../../nios2-elf/lib/mno-hw-mul/libc.a(lib_a-callocr.o)
 .debug_loc     0x00028d4e      0xb85 /package/eda/altera/altera13.0sp1/nios2eds/bin/gnu/H-i686-pc-linux-gnu/bin/../lib/gcc/nios2-elf/4.1.2/../../../../nios2-elf/lib/mno-hw-mul/libc.a(lib_a-gdtoa-gethex.o)
 .debug_loc     0x000298d3      0x2a6 /package/eda/altera/altera13.0sp1/nios2eds/bin/gnu/H-i686-pc-linux-gnu/bin/../lib/gcc/nios2-elf/4.1.2/../../../../nios2-elf/lib/mno-hw-mul/libc.a(lib_a-gdtoa-hexnan.o)
 .debug_loc     0x00029b79       0x87 /package/eda/altera/altera13.0sp1/nios2eds/bin/gnu/H-i686-pc-linux-gnu/bin/../lib/gcc/nios2-elf/4.1.2/mno-hw-mul/libgcc.a(_fixunsdfsi.o)
 .debug_loc     0x00029c00      0xc12 /package/eda/altera/altera13.0sp1/nios2eds/bin/gnu/H-i686-pc-linux-gnu/bin/../lib/gcc/nios2-elf/4.1.2/mno-hw-mul/libgcc.a(_udivdi3.o)
 .debug_loc     0x0002a812      0xbcc /package/eda/altera/altera13.0sp1/nios2eds/bin/gnu/H-i686-pc-linux-gnu/bin/../lib/gcc/nios2-elf/4.1.2/mno-hw-mul/libgcc.a(_umoddi3.o)
 .debug_loc     0x0002b3de       0x45 /package/eda/altera/altera13.0sp1/nios2eds/bin/gnu/H-i686-pc-linux-gnu/bin/../lib/gcc/nios2-elf/4.1.2/mno-hw-mul/libgcc.a(_ne_sf.o)
 .debug_loc     0x0002b423       0x45 /package/eda/altera/altera13.0sp1/nios2eds/bin/gnu/H-i686-pc-linux-gnu/bin/../lib/gcc/nios2-elf/4.1.2/mno-hw-mul/libgcc.a(_gt_sf.o)
 .debug_loc     0x0002b468       0x45 /package/eda/altera/altera13.0sp1/nios2eds/bin/gnu/H-i686-pc-linux-gnu/bin/../lib/gcc/nios2-elf/4.1.2/mno-hw-mul/libgcc.a(_lt_sf.o)
 .debug_loc     0x0002b4ad      0x47a /package/eda/altera/altera13.0sp1/nios2eds/bin/gnu/H-i686-pc-linux-gnu/bin/../lib/gcc/nios2-elf/4.1.2/mno-hw-mul/libgcc.a(_addsub_df.o)
 .debug_loc     0x0002b927       0x70 /package/eda/altera/altera13.0sp1/nios2eds/bin/gnu/H-i686-pc-linux-gnu/bin/../lib/gcc/nios2-elf/4.1.2/mno-hw-mul/libgcc.a(_eq_df.o)
 .debug_loc     0x0002b997       0x70 /package/eda/altera/altera13.0sp1/nios2eds/bin/gnu/H-i686-pc-linux-gnu/bin/../lib/gcc/nios2-elf/4.1.2/mno-hw-mul/libgcc.a(_ne_df.o)
 .debug_loc     0x0002ba07       0x70 /package/eda/altera/altera13.0sp1/nios2eds/bin/gnu/H-i686-pc-linux-gnu/bin/../lib/gcc/nios2-elf/4.1.2/mno-hw-mul/libgcc.a(_gt_df.o)
 .debug_loc     0x0002ba77       0x70 /package/eda/altera/altera13.0sp1/nios2eds/bin/gnu/H-i686-pc-linux-gnu/bin/../lib/gcc/nios2-elf/4.1.2/mno-hw-mul/libgcc.a(_ge_df.o)
 .debug_loc     0x0002bae7       0x70 /package/eda/altera/altera13.0sp1/nios2eds/bin/gnu/H-i686-pc-linux-gnu/bin/../lib/gcc/nios2-elf/4.1.2/mno-hw-mul/libgcc.a(_lt_df.o)
 .debug_loc     0x0002bb57       0x70 /package/eda/altera/altera13.0sp1/nios2eds/bin/gnu/H-i686-pc-linux-gnu/bin/../lib/gcc/nios2-elf/4.1.2/mno-hw-mul/libgcc.a(_le_df.o)
 .debug_loc     0x0002bbc7       0x9a /package/eda/altera/altera13.0sp1/nios2eds/bin/gnu/H-i686-pc-linux-gnu/bin/../lib/gcc/nios2-elf/4.1.2/mno-hw-mul/libgcc.a(_si_to_df.o)
 .debug_loc     0x0002bc61       0x8b /package/eda/altera/altera13.0sp1/nios2eds/bin/gnu/H-i686-pc-linux-gnu/bin/../lib/gcc/nios2-elf/4.1.2/mno-hw-mul/libgcc.a(_df_to_si.o)
 .debug_loc     0x0002bcec       0x3c /package/eda/altera/altera13.0sp1/nios2eds/bin/gnu/H-i686-pc-linux-gnu/bin/../lib/gcc/nios2-elf/4.1.2/mno-hw-mul/libgcc.a(_fpcmp_parts_sf.o)
 .debug_loc     0x0002bd28       0xa5 ../demo_board_bsp//libhal_bsp.a(alt_close.o)
 .debug_loc     0x0002bdcd       0xb0 ../demo_board_bsp//libhal_bsp.a(alt_fstat.o)
 .debug_loc     0x0002be7d       0x93 ../demo_board_bsp//libhal_bsp.a(alt_isatty.o)
 .debug_loc     0x0002bf10       0xeb ../demo_board_bsp//libhal_bsp.a(alt_load.o)
 .debug_loc     0x0002bffb      0x144 ../demo_board_bsp//libhal_bsp.a(alt_lseek.o)
 .debug_loc     0x0002c13f       0x1f ../demo_board_bsp//libhal_bsp.a(alt_main.o)
 .debug_loc     0x0002c15e      0x1f3 ../demo_board_bsp//libhal_bsp.a(alt_open.o)
 .debug_loc     0x0002c351      0x14f ../demo_board_bsp//libhal_bsp.a(alt_read.o)
 .debug_loc     0x0002c4a0       0x48 ../demo_board_bsp//libhal_bsp.a(alt_release_fd.o)
 .debug_loc     0x0002c4e8       0x13 ../demo_board_bsp//libhal_bsp.a(alt_sbrk.o)
 .debug_loc     0x0002c4fb      0x14f ../demo_board_bsp//libhal_bsp.a(alt_write.o)
 .debug_loc     0x0002c64a       0x6f ../demo_board_bsp//libhal_bsp.a(alt_sys_init.o)
 .debug_loc     0x0002c6b9      0x5d7 ../demo_board_bsp//libhal_bsp.a(altera_avalon_cfi_flash.o)
 .debug_loc     0x0002cc90      0x4cf ../demo_board_bsp//libhal_bsp.a(altera_avalon_cfi_flash_table.o)
 .debug_loc     0x0002d15f       0xbe ../demo_board_bsp//libhal_bsp.a(altera_avalon_jtag_uart_fd.o)
 .debug_loc     0x0002d21d      0x11a ../demo_board_bsp//libhal_bsp.a(altera_avalon_jtag_uart_init.o)
 .debug_loc     0x0002d337       0x65 ../demo_board_bsp//libhal_bsp.a(altera_avalon_jtag_uart_ioctl.o)
 .debug_loc     0x0002d39c      0x22b ../demo_board_bsp//libhal_bsp.a(altera_avalon_jtag_uart_read.o)
 .debug_loc     0x0002d5c7      0x201 ../demo_board_bsp//libhal_bsp.a(altera_avalon_jtag_uart_write.o)
 .debug_loc     0x0002d7c8       0x4c ../demo_board_bsp//libhal_bsp.a(altera_avalon_performance_counter.o)
 .debug_loc     0x0002d814      0x811 ../demo_board_bsp//libhal_bsp.a(altera_ro_zipfs.o)
 .debug_loc     0x0002e025     0x16ac ../demo_board_bsp//libhal_bsp.a(altera_up_avalon_video_pixel_buffer_dma.o)
 .debug_loc     0x0002f6d1      0x11d ../demo_board_bsp//libhal_bsp.a(perf_print_formatted_report.o)
 .debug_loc     0x0002f7ee       0x65 ../demo_board_bsp//libhal_bsp.a(alt_alarm_start.o)
 .debug_loc     0x0002f853       0x5b ../demo_board_bsp//libhal_bsp.a(alt_dev_llist_insert.o)
 .debug_loc     0x0002f8ae       0x32 ../demo_board_bsp//libhal_bsp.a(alt_do_ctors.o)
 .debug_loc     0x0002f8e0       0x32 ../demo_board_bsp//libhal_bsp.a(alt_do_dtors.o)
 .debug_loc     0x0002f912       0x8f ../demo_board_bsp//libhal_bsp.a(alt_find_dev.o)
 .debug_loc     0x0002f9a1       0xb0 ../demo_board_bsp//libhal_bsp.a(alt_find_file.o)
 .debug_loc     0x0002fa51       0xb0 ../demo_board_bsp//libhal_bsp.a(alt_flash_dev.o)
 .debug_loc     0x0002fb01       0x29 ../demo_board_bsp//libhal_bsp.a(alt_get_fd.o)
 .debug_loc     0x0002fb2a       0x72 ../demo_board_bsp//libhal_bsp.a(alt_iic.o)
 .debug_loc     0x0002fb9c       0xde ../demo_board_bsp//libhal_bsp.a(alt_iic_isr_register.o)
 .debug_loc     0x0002fc7a      0x115 ../demo_board_bsp//libhal_bsp.a(alt_io_redirect.o)
 .debug_loc     0x0002fd8f       0x6e ../demo_board_bsp//libhal_bsp.a(alt_irq_handler.o)
 .debug_loc     0x0002fdfd       0xa5 ../demo_board_bsp//libhal_bsp.a(alt_tick.o)
 .debug_loc     0x0002fea2      0x25b ../demo_board_bsp//libhal_bsp.a(altera_avalon_cfi_flash_amd.o)
 .debug_loc     0x000300fd      0x3d3 ../demo_board_bsp//libhal_bsp.a(altera_avalon_cfi_flash_intel.o)
 .debug_loc     0x000304d0       0x13 ../demo_board_bsp//libhal_bsp.a(alt_usleep.o)
 .debug_loc     0x000304e3       0x5b ../demo_board_bsp//libhal_bsp.a(alt_busy_sleep.o)
 .debug_loc     0x0003053e       0x1e /package/eda/altera/altera13.0sp1/nios2eds/bin/gnu/H-i686-pc-linux-gnu/bin/../lib/gcc/nios2-elf/4.1.2/../../../../nios2-elf/lib/mno-hw-mul/libc.a(lib_a-atexit.o)
 .debug_loc     0x0003055c      0x114 /package/eda/altera/altera13.0sp1/nios2eds/bin/gnu/H-i686-pc-linux-gnu/bin/../lib/gcc/nios2-elf/4.1.2/../../../../nios2-elf/lib/mno-hw-mul/libc.a(lib_a-memcmp.o)
 .debug_loc     0x00030670      0x120 /package/eda/altera/altera13.0sp1/nios2eds/bin/gnu/H-i686-pc-linux-gnu/bin/../lib/gcc/nios2-elf/4.1.2/../../../../nios2-elf/lib/mno-hw-mul/libc.a(lib_a-__atexit.o)
 .debug_loc     0x00030790       0x5f /package/eda/altera/altera13.0sp1/nios2eds/bin/gnu/H-i686-pc-linux-gnu/bin/../lib/gcc/nios2-elf/4.1.2/mno-hw-mul/libgcc.a(_floatundidf.o)

.debug_macinfo
 *(.debug_macinfo)

.debug_weaknames
 *(.debug_weaknames)

.debug_funcnames
 *(.debug_funcnames)

.debug_typenames
 *(.debug_typenames)

.debug_varnames
 *(.debug_varnames)

.debug_alt_sim_info
                0x00000000       0x40
 *(.debug_alt_sim_info)
 .debug_alt_sim_info
                0x00000000       0x10 ../demo_board_bsp//obj/HAL/src/crt0.o
 .debug_alt_sim_info
                0x00000010       0x30 ../demo_board_bsp//libhal_bsp.a(alt_busy_sleep.o)
                0x10000000                __alt_data_end = 0x10000000
                0x10000000                PROVIDE (__alt_stack_pointer, __alt_data_end)
                0x08039fb4                PROVIDE (__alt_stack_limit, __alt_stack_base)
                0x08039fb4                PROVIDE (__alt_heap_start, end)
                0x10000000                PROVIDE (__alt_heap_limit, 0x10000000)
OUTPUT(demo_board.elf elf32-littlenios2)

.debug_ranges   0x00000000     0x35c8
 .debug_ranges  0x00000000       0x20 ../demo_board_bsp//obj/HAL/src/crt0.o
 .debug_ranges  0x00000020       0x48 obj/default/djpeg.o
 .debug_ranges  0x00000068       0x18 obj/default/jcapimin.o
 .debug_ranges  0x00000080       0x30 obj/default/jcdctmgr.o
 .debug_ranges  0x000000b0      0x5b8 obj/default/jchuff.o
 .debug_ranges  0x00000668       0x88 obj/default/jcmarker.o
 .debug_ranges  0x000006f0      0x100 obj/default/jcmaster.o
 .debug_ranges  0x000007f0      0x600 obj/default/jcphuff.o
 .debug_ranges  0x00000df0       0x78 obj/default/jcprepct.o
 .debug_ranges  0x00000e68       0x50 obj/default/jctrans.o
 .debug_ranges  0x00000eb8       0x50 obj/default/jdapimin.o
 .debug_ranges  0x00000f08       0x18 obj/default/jdapistd.o
 .debug_ranges  0x00000f20       0x30 obj/default/jdcoefct.o
 .debug_ranges  0x00000f50       0x80 obj/default/jdhuff.o
 .debug_ranges  0x00000fd0      0x110 obj/default/jdinput.o
 .debug_ranges  0x000010e0       0x68 obj/default/jdmainct.o
 .debug_ranges  0x00001148      0x3d0 obj/default/jdmarker.o
 .debug_ranges  0x00001518       0x90 obj/default/jdmaster.o
 .debug_ranges  0x000015a8       0x38 obj/default/jdmerge.o
 .debug_ranges  0x000015e0       0x90 obj/default/jdphuff.o
 .debug_ranges  0x00001670       0x38 obj/default/jdtrans.o
 .debug_ranges  0x000016a8       0x18 obj/default/jidctflt.o
 .debug_ranges  0x000016c0       0x40 obj/default/jidctfst.o
 .debug_ranges  0x00001700       0x30 obj/default/jidctint.o
 .debug_ranges  0x00001730       0x18 obj/default/jidctred.o
 .debug_ranges  0x00001748       0x70 obj/default/jmemmgr.o
 .debug_ranges  0x000017b8      0x120 obj/default/jquant1.o
 .debug_ranges  0x000018d8      0x2e8 obj/default/jquant2.o
 .debug_ranges  0x00001bc0       0x98 obj/default/rdcolmap.o
 .debug_ranges  0x00001c58       0xc8 obj/default/wrbmp.o
 .debug_ranges  0x00001d20       0xa0 obj/default/wrgif.o
 .debug_ranges  0x00001dc0       0x28 /package/eda/altera/altera13.0sp1/nios2eds/bin/gnu/H-i686-pc-linux-gnu/bin/../lib/gcc/nios2-elf/4.1.2/mno-hw-mul/libgcc.a(_addsub_sf.o)
 .debug_ranges  0x00001de8       0x80 /package/eda/altera/altera13.0sp1/nios2eds/bin/gnu/H-i686-pc-linux-gnu/bin/../lib/gcc/nios2-elf/4.1.2/mno-hw-mul/libgcc.a(_mul_sf.o)
 .debug_ranges  0x00001e68       0x18 /package/eda/altera/altera13.0sp1/nios2eds/bin/gnu/H-i686-pc-linux-gnu/bin/../lib/gcc/nios2-elf/4.1.2/mno-hw-mul/libgcc.a(_si_to_sf.o)
 .debug_ranges  0x00001e80       0x88 /package/eda/altera/altera13.0sp1/nios2eds/bin/gnu/H-i686-pc-linux-gnu/bin/../lib/gcc/nios2-elf/4.1.2/mno-hw-mul/libgcc.a(_mul_df.o)
 .debug_ranges  0x00001f08       0x50 /package/eda/altera/altera13.0sp1/nios2eds/bin/gnu/H-i686-pc-linux-gnu/bin/../lib/gcc/nios2-elf/4.1.2/mno-hw-mul/libgcc.a(_div_df.o)
 .debug_ranges  0x00001f58       0x18 /package/eda/altera/altera13.0sp1/nios2eds/bin/gnu/H-i686-pc-linux-gnu/bin/../lib/gcc/nios2-elf/4.1.2/mno-hw-mul/libgcc.a(_usi_to_df.o)
 .debug_ranges  0x00001f70       0x88 /package/eda/altera/altera13.0sp1/nios2eds/bin/gnu/H-i686-pc-linux-gnu/bin/../lib/gcc/nios2-elf/4.1.2/mno-hw-mul/libgcc.a(_muldi3.o)
 .debug_ranges  0x00001ff8       0x28 /package/eda/altera/altera13.0sp1/nios2eds/bin/gnu/H-i686-pc-linux-gnu/bin/../lib/gcc/nios2-elf/4.1.2/mno-hw-mul/libgcc.a(_clzsi2.o)
 .debug_ranges  0x00002020       0x28 /package/eda/altera/altera13.0sp1/nios2eds/bin/gnu/H-i686-pc-linux-gnu/bin/../lib/gcc/nios2-elf/4.1.2/mno-hw-mul/libgcc.a(_pack_df.o)
 .debug_ranges  0x00002048       0x20 /package/eda/altera/altera13.0sp1/nios2eds/bin/gnu/H-i686-pc-linux-gnu/bin/../lib/gcc/nios2-elf/4.1.2/../../../../nios2-elf/lib/mno-hw-mul/libc.a(lib_a-fflush.o)
 .debug_ranges  0x00002068       0x18 /package/eda/altera/altera13.0sp1/nios2eds/bin/gnu/H-i686-pc-linux-gnu/bin/../lib/gcc/nios2-elf/4.1.2/../../../../nios2-elf/lib/mno-hw-mul/libc.a(lib_a-fread.o)
 .debug_ranges  0x00002080       0xa0 /package/eda/altera/altera13.0sp1/nios2eds/bin/gnu/H-i686-pc-linux-gnu/bin/../lib/gcc/nios2-elf/4.1.2/../../../../nios2-elf/lib/mno-hw-mul/libc.a(lib_a-fwalk.o)
 .debug_ranges  0x00002120       0x70 /package/eda/altera/altera13.0sp1/nios2eds/bin/gnu/H-i686-pc-linux-gnu/bin/../lib/gcc/nios2-elf/4.1.2/../../../../nios2-elf/lib/mno-hw-mul/libc.a(lib_a-mallocr.o)
 .debug_ranges  0x00002190      0x168 /package/eda/altera/altera13.0sp1/nios2eds/bin/gnu/H-i686-pc-linux-gnu/bin/../lib/gcc/nios2-elf/4.1.2/../../../../nios2-elf/lib/mno-hw-mul/libc.a(lib_a-vfprintf.o)
 .debug_ranges  0x000022f8       0xf0 /package/eda/altera/altera13.0sp1/nios2eds/bin/gnu/H-i686-pc-linux-gnu/bin/../lib/gcc/nios2-elf/4.1.2/../../../../nios2-elf/lib/mno-hw-mul/libc.a(lib_a-vfscanf.o)
 .debug_ranges  0x000023e8       0x18 /package/eda/altera/altera13.0sp1/nios2eds/bin/gnu/H-i686-pc-linux-gnu/bin/../lib/gcc/nios2-elf/4.1.2/../../../../nios2-elf/lib/mno-hw-mul/libc.a(lib_a-__call_atexit.o)
 .debug_ranges  0x00002400       0x28 /package/eda/altera/altera13.0sp1/nios2eds/bin/gnu/H-i686-pc-linux-gnu/bin/../lib/gcc/nios2-elf/4.1.2/../../../../nios2-elf/lib/mno-hw-mul/libc.a(lib_a-fvwrite.o)
 .debug_ranges  0x00002428      0x110 /package/eda/altera/altera13.0sp1/nios2eds/bin/gnu/H-i686-pc-linux-gnu/bin/../lib/gcc/nios2-elf/4.1.2/../../../../nios2-elf/lib/mno-hw-mul/libc.a(lib_a-reallocr.o)
 .debug_ranges  0x00002538       0x68 /package/eda/altera/altera13.0sp1/nios2eds/bin/gnu/H-i686-pc-linux-gnu/bin/../lib/gcc/nios2-elf/4.1.2/../../../../nios2-elf/lib/mno-hw-mul/libc.a(lib_a-strtod.o)
 .debug_ranges  0x000025a0       0x38 /package/eda/altera/altera13.0sp1/nios2eds/bin/gnu/H-i686-pc-linux-gnu/bin/../lib/gcc/nios2-elf/4.1.2/../../../../nios2-elf/lib/mno-hw-mul/libc.a(lib_a-callocr.o)
 .debug_ranges  0x000025d8       0x50 /package/eda/altera/altera13.0sp1/nios2eds/bin/gnu/H-i686-pc-linux-gnu/bin/../lib/gcc/nios2-elf/4.1.2/../../../../nios2-elf/lib/mno-hw-mul/libc.a(lib_a-gdtoa-gethex.o)
 .debug_ranges  0x00002628      0x190 /package/eda/altera/altera13.0sp1/nios2eds/bin/gnu/H-i686-pc-linux-gnu/bin/../lib/gcc/nios2-elf/4.1.2/mno-hw-mul/libgcc.a(_udivdi3.o)
 .debug_ranges  0x000027b8      0x1c0 /package/eda/altera/altera13.0sp1/nios2eds/bin/gnu/H-i686-pc-linux-gnu/bin/../lib/gcc/nios2-elf/4.1.2/mno-hw-mul/libgcc.a(_umoddi3.o)
 .debug_ranges  0x00002978       0x30 /package/eda/altera/altera13.0sp1/nios2eds/bin/gnu/H-i686-pc-linux-gnu/bin/../lib/gcc/nios2-elf/4.1.2/mno-hw-mul/libgcc.a(_addsub_df.o)
 .debug_ranges  0x000029a8       0x30 ../demo_board_bsp//libhal_bsp.a(alt_close.o)
 .debug_ranges  0x000029d8       0x48 ../demo_board_bsp//libhal_bsp.a(alt_load.o)
 .debug_ranges  0x00002a20       0x18 ../demo_board_bsp//libhal_bsp.a(alt_lseek.o)
 .debug_ranges  0x00002a38       0x18 ../demo_board_bsp//libhal_bsp.a(alt_open.o)
 .debug_ranges  0x00002a50       0x48 ../demo_board_bsp//libhal_bsp.a(alt_read.o)
 .debug_ranges  0x00002a98       0x48 ../demo_board_bsp//libhal_bsp.a(alt_write.o)
 .debug_ranges  0x00002ae0       0x38 ../demo_board_bsp//libhal_bsp.a(alt_sys_init.o)
 .debug_ranges  0x00002b18       0x18 ../demo_board_bsp//libhal_bsp.a(altera_avalon_cfi_flash.o)
 .debug_ranges  0x00002b30       0xf0 ../demo_board_bsp//libhal_bsp.a(altera_avalon_cfi_flash_table.o)
 .debug_ranges  0x00002c20       0x18 ../demo_board_bsp//libhal_bsp.a(altera_avalon_jtag_uart_init.o)
 .debug_ranges  0x00002c38       0x18 ../demo_board_bsp//libhal_bsp.a(altera_avalon_jtag_uart_ioctl.o)
 .debug_ranges  0x00002c50       0x18 ../demo_board_bsp//libhal_bsp.a(altera_avalon_jtag_uart_read.o)
 .debug_ranges  0x00002c68       0x48 ../demo_board_bsp//libhal_bsp.a(altera_avalon_jtag_uart_write.o)
 .debug_ranges  0x00002cb0      0x640 ../demo_board_bsp//libhal_bsp.a(altera_ro_zipfs.o)
 .debug_ranges  0x000032f0      0x100 ../demo_board_bsp//libhal_bsp.a(altera_up_avalon_video_pixel_buffer_dma.o)
 .debug_ranges  0x000033f0       0x18 ../demo_board_bsp//libhal_bsp.a(alt_dev_llist_insert.o)
 .debug_ranges  0x00003408       0x18 ../demo_board_bsp//libhal_bsp.a(alt_fs_reg.o)
 .debug_ranges  0x00003420       0x18 ../demo_board_bsp//libhal_bsp.a(alt_iic_isr_register.o)
 .debug_ranges  0x00003438       0x90 ../demo_board_bsp//libhal_bsp.a(alt_io_redirect.o)
 .debug_ranges  0x000034c8       0x28 ../demo_board_bsp//libhal_bsp.a(alt_irq_entry.o)
 .debug_ranges  0x000034f0       0x40 ../demo_board_bsp//libhal_bsp.a(alt_irq_handler.o)
 .debug_ranges  0x00003530       0x68 ../demo_board_bsp//libhal_bsp.a(altera_avalon_cfi_flash_amd.o)
 .debug_ranges  0x00003598       0x30 ../demo_board_bsp//libhal_bsp.a(alt_exception_entry.o)
