
demo_board.elf:     file format elf32-littlenios2
demo_board.elf
architecture: nios2, flags 0x00000112:
EXEC_P, HAS_SYMS, D_PAGED
start address 0x08000184

Program Header:
    LOAD off    0x00001000 vaddr 0x08000000 paddr 0x08000000 align 2**12
         filesz 0x00000020 memsz 0x00000020 flags r-x
    LOAD off    0x00001020 vaddr 0x08000020 paddr 0x08000020 align 2**12
         filesz 0x00036194 memsz 0x00036194 flags r-x
    LOAD off    0x000371b4 vaddr 0x080361b4 paddr 0x08037eb4 align 2**12
         filesz 0x00001d00 memsz 0x00001d00 flags rw-
    LOAD off    0x00039bb4 vaddr 0x08039bb4 paddr 0x08039bb4 align 2**12
         filesz 0x00000000 memsz 0x00000400 flags rw-

Sections:
Idx Name          Size      VMA       LMA       File off  Algn
  0 .entry        00000020  08000000  08000000  00001000  2**5
                  CONTENTS, ALLOC, LOAD, READONLY, CODE
  1 .exceptions   00000164  08000020  08000020  00001020  2**2
                  CONTENTS, ALLOC, LOAD, READONLY, CODE
  2 .text         00032f84  08000184  08000184  00001184  2**2
                  CONTENTS, ALLOC, LOAD, READONLY, CODE
  3 .rodata       000030ac  08033108  08033108  00034108  2**2
                  CONTENTS, ALLOC, LOAD, READONLY, DATA
  4 .rwdata       00001d00  080361b4  08037eb4  000371b4  2**2
                  CONTENTS, ALLOC, LOAD, DATA, SMALL_DATA
  5 .bss          00000400  08039bb4  08039bb4  00039bb4  2**2
                  ALLOC, SMALL_DATA
  6 .comment      00000026  00000000  00000000  00038eb4  2**0
                  CONTENTS, READONLY
  7 .debug_aranges 00001ad8  00000000  00000000  00038ee0  2**3
                  CONTENTS, READONLY, DEBUGGING
  8 .debug_pubnames 000030ae  00000000  00000000  0003a9b8  2**0
                  CONTENTS, READONLY, DEBUGGING
  9 .debug_info   000862e4  00000000  00000000  0003da66  2**0
                  CONTENTS, READONLY, DEBUGGING
 10 .debug_abbrev 00014fd6  00000000  00000000  000c3d4a  2**0
                  CONTENTS, READONLY, DEBUGGING
 11 .debug_line   00042b4b  00000000  00000000  000d8d20  2**0
                  CONTENTS, READONLY, DEBUGGING
 12 .debug_frame  00005128  00000000  00000000  0011b86c  2**2
                  CONTENTS, READONLY, DEBUGGING
 13 .debug_str    00008db6  00000000  00000000  00120994  2**0
                  CONTENTS, READONLY, DEBUGGING
 14 .debug_loc    000307ef  00000000  00000000  0012974a  2**0
                  CONTENTS, READONLY, DEBUGGING
 15 .debug_alt_sim_info 00000040  00000000  00000000  00159f3c  2**2
                  CONTENTS, READONLY, DEBUGGING
 16 .debug_ranges 000035c8  00000000  00000000  00159f80  2**3
                  CONTENTS, READONLY, DEBUGGING
 17 .thread_model 00000003  00000000  00000000  00164faf  2**0
                  CONTENTS, READONLY
 18 .cpu          0000000c  00000000  00000000  00164fb2  2**0
                  CONTENTS, READONLY
 19 .qsys         00000001  00000000  00000000  00164fbe  2**0
                  CONTENTS, READONLY
 20 .simulation_enabled 00000001  00000000  00000000  00164fbf  2**0
                  CONTENTS, READONLY
 21 .sysid_hash   00000004  00000000  00000000  00164fc0  2**0
                  CONTENTS, READONLY
 22 .sysid_base   00000004  00000000  00000000  00164fc4  2**0
                  CONTENTS, READONLY
 23 .sysid_time   00000004  00000000  00000000  00164fc8  2**0
                  CONTENTS, READONLY
 24 .stderr_dev   0000000b  00000000  00000000  00164fcc  2**0
                  CONTENTS, READONLY
 25 .stdin_dev    0000000b  00000000  00000000  00164fd7  2**0
                  CONTENTS, READONLY
 26 .stdout_dev   0000000b  00000000  00000000  00164fe2  2**0
                  CONTENTS, READONLY
 27 .sopc_system_name 0000000b  00000000  00000000  00164fed  2**0
                  CONTENTS, READONLY
 28 .quartus_project_dir 0000001e  00000000  00000000  00164ff8  2**0
                  CONTENTS, READONLY
 29 .sopcinfo     0007574d  00000000  00000000  00165016  2**0
                  CONTENTS, READONLY
SYMBOL TABLE:
08000000 l    d  .entry	00000000 .entry
08000020 l    d  .exceptions	00000000 .exceptions
08000184 l    d  .text	00000000 .text
08033108 l    d  .rodata	00000000 .rodata
080361b4 l    d  .rwdata	00000000 .rwdata
08039bb4 l    d  .bss	00000000 .bss
00000000 l    d  .comment	00000000 .comment
00000000 l    d  .debug_aranges	00000000 .debug_aranges
00000000 l    d  .debug_pubnames	00000000 .debug_pubnames
00000000 l    d  .debug_info	00000000 .debug_info
00000000 l    d  .debug_abbrev	00000000 .debug_abbrev
00000000 l    d  .debug_line	00000000 .debug_line
00000000 l    d  .debug_frame	00000000 .debug_frame
00000000 l    d  .debug_str	00000000 .debug_str
00000000 l    d  .debug_loc	00000000 .debug_loc
00000000 l    d  .debug_alt_sim_info	00000000 .debug_alt_sim_info
00000000 l    d  .debug_ranges	00000000 .debug_ranges
080001bc l       .text	00000000 alt_after_alt_main
00000000 l    df *ABS*	00000000 alt_irq_handler.c
00000000 l    df *ABS*	00000000 cdjpeg.c
00000000 l    df *ABS*	00000000 djpeg.c
08000264 l     F .text	00000080 jpeg_getc
080002e4 l     F .text	000002ec usage
08039bbc l     O .bss	00000004 progname
080005d0 l     F .text	00000654 parse_switches
08039bb8 l     O .bss	00000004 requested_fmt
08039bc0 l     O .bss	00000004 outfilename
08039bb4 l     O .bss	00000004 printed_version.3921
08000c24 l     F .text	000001c4 COM_handler
08033dc4 l     O .rodata	000000b0 cdjpeg_message_table
00000000 l    df *ABS*	00000000 jcapimin.c
00000000 l    df *ABS*	00000000 jcapistd.c
00000000 l    df *ABS*	00000000 jccoefct.c
080019c0 l     F .text	00000054 start_iMCU_row
08001a14 l     F .text	0000013c start_pass_coef
08002190 l     F .text	000002e4 compress_data
08001b50 l     F .text	00000230 compress_output
08001eac l     F .text	000002e4 compress_first_pass
00000000 l    df *ABS*	00000000 jccolor.c
08002474 l     F .text	000000b4 rgb_ycc_start
08002528 l     F .text	00000140 rgb_ycc_convert
08002668 l     F .text	000000c4 rgb_gray_convert
0800272c l     F .text	00000178 cmyk_ycck_convert
080028a4 l     F .text	00000064 grayscale_convert
08002908 l     F .text	000000a8 null_convert
080029b0 l     F .text	00000004 null_method
00000000 l    df *ABS*	00000000 jcdctmgr.c
08002cb4 l     F .text	00000328 start_pass_fdctmgr
08033eb4 l     O .rodata	00000080 aanscales.3633
08033e74 l     O .rodata	00000040 aanscalefactor.3641
08002fdc l     F .text	000001c4 forward_DCT
080031a0 l     F .text	000001b8 forward_DCT_float
00000000 l    df *ABS*	00000000 jchuff.c
08003454 l     F .text	00000058 dump_buffer
080034ac l     F .text	00000200 encode_mcu_gather
08003894 l     F .text	000002ac start_pass_huff
08003eb8 l     F .text	0000014c finish_pass_gather
080041f8 l     F .text	000008a8 encode_mcu_huff
0800411c l     F .text	000000dc finish_pass_huff
08004004 l     F .text	00000118 flush_bits
00000000 l    df *ABS*	00000000 jcinit.c
00000000 l    df *ABS*	00000000 jcmainct.c
08004b90 l     F .text	00000048 start_pass_main
08004bd8 l     F .text	0000012c process_data_simple_main
00000000 l    df *ABS*	00000000 jcmarker.c
08004df4 l     F .text	00000074 emit_byte
08004e68 l     F .text	0000003c emit_marker
08004ea4 l     F .text	0000004c emit_2bytes
08004ef0 l     F .text	00000158 emit_dqt
08005048 l     F .text	00000150 emit_dht
08005198 l     F .text	00000104 emit_sof
0800529c l     F .text	00000090 write_any_marker
0800532c l     F .text	00000198 write_file_header
080054c4 l     F .text	0000018c write_frame_header
08005650 l     F .text	000001ec write_scan_header
0800583c l     F .text	00000008 write_file_trailer
08005844 l     F .text	000000c4 write_tables_only
00000000 l    df *ABS*	00000000 jcmaster.c
08005988 l     F .text	00000154 select_scan_parameters
08005adc l     F .text	00000040 pass_startup
08005b1c l     F .text	000000d0 finish_pass_master
08005bec l     F .text	00000240 per_scan_setup
08005e2c l     F .text	0000022c prepare_for_pass
00000000 l    df *ABS*	00000000 jcomapi.c
00000000 l    df *ABS*	00000000 jcparam.c
08006e04 l     F .text	0000002c fill_a_scan
08006e30 l     F .text	00000070 fill_scans
08006ea0 l     F .text	00000080 fill_dc_scans
08007234 l     F .text	00000078 add_huff_table
080341d4 l     O .rodata	00000100 std_luminance_quant_tbl.3597
080340d4 l     O .rodata	00000100 std_chrominance_quant_tbl.3598
080340b7 l     O .rodata	0000000c val_dc_luminance.3625
080340c3 l     O .rodata	00000011 bits_dc_luminance.3624
08034089 l     O .rodata	00000011 bits_ac_luminance.3628
08033fe7 l     O .rodata	000000a2 val_ac_luminance.3629
080340a6 l     O .rodata	00000011 bits_dc_chrominance.3626
0803409a l     O .rodata	0000000c val_dc_chrominance.3627
08033fd6 l     O .rodata	00000011 bits_ac_chrominance.3630
08033f34 l     O .rodata	000000a2 val_ac_chrominance.3631
00000000 l    df *ABS*	00000000 jcphuff.c
080075dc l     F .text	00000064 dump_buffer
080076ac l     F .text	00000280 start_pass_phuff
08008bc4 l     F .text	00000554 encode_mcu_AC_first
08007f10 l     F .text	00000064 finish_pass_phuff
08008060 l     F .text	000001dc encode_mcu_DC_refine
08007dec l     F .text	00000124 finish_pass_gather_phuff
080085cc l     F .text	000005f8 encode_mcu_AC_refine
0800823c l     F .text	00000390 encode_mcu_DC_first
0800792c l     F .text	000000f8 flush_bits
08007a24 l     F .text	00000138 emit_buffered_bits
08007b5c l     F .text	00000290 emit_eobrun
08007f74 l     F .text	000000ec emit_restart
00000000 l    df *ABS*	00000000 jcprepct.c
08009118 l     F .text	00000060 start_pass_prep
080096e4 l     F .text	00000200 pre_process_data
08009488 l     F .text	0000025c pre_process_context
08009404 l     F .text	00000084 expand_bottom_edge
00000000 l    df *ABS*	00000000 jcsample.c
080098e4 l     F .text	00000004 start_pass_downsample
080098e8 l     F .text	00000040 expand_right_edge
08009928 l     F .text	000000e8 sep_downsample
08009a10 l     F .text	000001f4 int_downsample
08009c04 l     F .text	000000c8 h2v1_downsample
08009ccc l     F .text	000000e0 h2v2_downsample
08009dac l     F .text	000003dc h2v2_smooth_downsample
0800a188 l     F .text	000002a8 fullsize_smooth_downsample
0800a670 l     F .text	00000070 fullsize_downsample
00000000 l    df *ABS*	00000000 jctrans.c
0800a6e0 l     F .text	00000054 start_iMCU_row
0800a734 l     F .text	00000050 start_pass_coef
0800a784 l     F .text	000002c8 compress_output
00000000 l    df *ABS*	00000000 jdapimin.c
00000000 l    df *ABS*	00000000 jdapistd.c
0800b548 l     F .text	00000100 output_pass_setup
00000000 l    df *ABS*	00000000 jdatadst.c
0800bb44 l     F .text	0000004c init_destination
0800bc0c l     F .text	00000078 empty_output_buffer
0800bc84 l     F .text	000000bc term_destination
00000000 l    df *ABS*	00000000 jdatasrc.c
0800bd40 l     F .text	00000010 init_source
0800bd50 l     F .text	00000004 term_source
0800be18 l     F .text	000000c0 fill_input_buffer
0800bed8 l     F .text	00000068 skip_input_data
00000000 l    df *ABS*	00000000 jdcoefct.c
0800bf40 l     F .text	00000054 start_iMCU_row
0800bf94 l     F .text	00000008 start_input_pass
0800bf9c l     F .text	00000008 dummy_consume_data
0800bfa4 l     F .text	00000248 consume_data
0800c1ec l     F .text	0000023c decompress_data
0800c428 l     F .text	00000198 start_output_pass
0800ca54 l     F .text	00000790 decompress_smooth_data
0800c754 l     F .text	00000300 decompress_onepass
00000000 l    df *ABS*	00000000 jdcolor.c
0800d1e4 l     F .text	00000134 build_ycc_rgb_table
0800d318 l     F .text	0000009c null_convert
0800d3b4 l     F .text	00000168 ycck_cmyk_convert
0800d51c l     F .text	00000004 start_pass_dcolor
0800d844 l     F .text	00000038 grayscale_convert
0800d728 l     F .text	0000011c ycc_rgb_convert
00000000 l    df *ABS*	00000000 jddctmgr.c
0800d87c l     F .text	00000328 start_pass
08034314 l     O .rodata	00000080 aanscales.3649
080342d4 l     O .rodata	00000040 aanscalefactor.3657
00000000 l    df *ABS*	00000000 jdhuff.c
0800df68 l     F .text	000005a0 decode_mcu
08034394 l     O .rodata	00000040 extend_test
080343d4 l     O .rodata	00000040 extend_offset
0800e7cc l     F .text	000001cc start_pass_huff_decoder
00000000 l    df *ABS*	00000000 jdinput.c
0800e998 l     F .text	00000014 finish_input_pass
0800ed98 l     F .text	00000328 consume_markers
0800e9ac l     F .text	00000060 reset_input_controller
0800ea84 l     F .text	00000314 start_input_pass
00000000 l    df *ABS*	00000000 jdmainct.c
0800f0c0 l     F .text	00000294 start_pass_main
0800f418 l     F .text	0000041c process_data_context_main
0800f354 l     F .text	000000c4 process_data_simple_main
0800f834 l     F .text	00000038 process_data_crank_post
00000000 l    df *ABS*	00000000 jdmarker.c
0800fad8 l     F .text	00000480 get_sof
0800ff58 l     F .text	0000035c get_app0
080102b4 l     F .text	00000260 get_app14
08010514 l     F .text	0000011c skip_variable
08010630 l     F .text	0000019c next_marker
080107cc l     F .text	000000d8 read_restart_marker
08010a34 l     F .text	00000020 reset_marker_reader
08010af8 l     F .text	0000102c read_markers
00000000 l    df *ABS*	00000000 jdmaster.c
08011b24 l     F .text	000000a8 use_merged_upsample
08011bcc l     F .text	000001d8 prepare_for_output_pass
08011da4 l     F .text	00000040 finish_output_pass
00000000 l    df *ABS*	00000000 jdmerge.c
08012518 l     F .text	00000014 start_pass_merged_upsample
0801252c l     F .text	0000006c merged_1v_upsample
08012598 l     F .text	00000230 h2v1_merged_upsample
080127c8 l     F .text	00000300 h2v2_merged_upsample
08012c9c l     F .text	0000012c merged_2v_upsample
00000000 l    df *ABS*	00000000 jdphuff.c
08012dc8 l     F .text	000000b8 process_restart
08012f38 l     F .text	000003c0 start_pass_phuff_decoder
08013938 l     F .text	000002e4 decode_mcu_AC_first
08013444 l     F .text	000004f4 decode_mcu_AC_refine
080132f8 l     F .text	0000014c decode_mcu_DC_refine
08013c1c l     F .text	000002f8 decode_mcu_DC_first
08034414 l     O .rodata	00000040 extend_test
08034454 l     O .rodata	00000040 extend_offset
00000000 l    df *ABS*	00000000 jdpostct.c
08013f14 l     F .text	00000140 start_pass_dpost
0801422c l     F .text	00000104 post_process_2pass
08014104 l     F .text	00000128 post_process_prepass
08014054 l     F .text	000000b0 post_process_1pass
00000000 l    df *ABS*	00000000 jdsample.c
08014438 l     F .text	00000018 start_pass_upsample
08014450 l     F .text	00000174 sep_upsample
080145c4 l     F .text	00000008 fullsize_upsample
080145cc l     F .text	00000008 noop_upsample
080145d4 l     F .text	0000005c h2v1_upsample
08014630 l     F .text	00000118 h2v1_fancy_upsample
08014ae4 l     F .text	00000120 int_upsample
08014c04 l     F .text	000001c8 h2v2_fancy_upsample
08014a20 l     F .text	000000c4 h2v2_upsample
00000000 l    df *ABS*	00000000 jdtrans.c
00000000 l    df *ABS*	00000000 jerror.c
08014f8c l     F .text	00000078 emit_message
08015004 l     F .text	00000010 reset_error_mgr
080151c8 l     F .text	0000002c error_exit
08015184 l     F .text	00000044 output_message
08015084 l     F .text	00000100 format_message
00000000 l    df *ABS*	00000000 jfdctflt.c
00000000 l    df *ABS*	00000000 jfdctfst.c
00000000 l    df *ABS*	00000000 jfdctint.c
00000000 l    df *ABS*	00000000 jidctflt.c
00000000 l    df *ABS*	00000000 jidctfst.c
00000000 l    df *ABS*	00000000 jidctint.c
00000000 l    df *ABS*	00000000 jidctred.c
00000000 l    df *ABS*	00000000 jmemmgr.c
08017ab8 l     F .text	0000001c out_of_memory
08017ad4 l     F .text	000001d8 do_sarray_io
08017cac l     F .text	000001d8 do_barray_io
08017e84 l     F .text	000001dc alloc_small
08037e5c l     O .rwdata	00000008 extra_pool_slop
08037e54 l     O .rwdata	00000008 first_pool_slop
08018060 l     F .text	000000b0 request_virt_barray
08018110 l     F .text	000000b0 request_virt_sarray
08018958 l     F .text	000000fc alloc_large
08018a54 l     F .text	0000012c alloc_barray
08018b80 l     F .text	0000012c alloc_sarray
08018750 l     F .text	00000208 access_virt_sarray
08018358 l     F .text	00000188 free_pool
08018cac l     F .text	00000298 realize_virt_arrays
08018544 l     F .text	0000020c access_virt_barray
080184e0 l     F .text	00000064 self_destruct
00000000 l    df *ABS*	00000000 jmemnobs.c
00000000 l    df *ABS*	00000000 jquant1.c
08018f8c l     F .text	0000003c largest_input_value
08018fc8 l     F .text	000001ec create_colorindex
080191b4 l     F .text	000000f4 color_quantize
080192a8 l     F .text	000000c4 color_quantize3
0801936c l     F .text	0000015c quantize3_ord_dither
080194c8 l     F .text	00000084 alloc_fs_workspace
0801954c l     F .text	00000004 finish_pass_1_quant
08019550 l     F .text	00000014 new_color_map_1_quant
080199d4 l     F .text	000002e0 start_pass_1_quant
080357dc l     O .rodata	0000000c RGB_order.3590
08019f30 l     F .text	00000140 quantize_ord_dither
080357e8 l     O .rodata	00000100 base_dither_matrix
08019cb4 l     F .text	0000027c quantize_fs_dither
00000000 l    df *ABS*	00000000 jquant2.c
0801a070 l     F .text	00000098 prescan_quantize
0801a108 l     F .text	00000494 update_box
0801a59c l     F .text	00000590 fill_inverse_cmap
0801ab2c l     F .text	00000138 pass2_no_dither
0801ac64 l     F .text	00000408 pass2_fs_dither
0801b06c l     F .text	000000cc init_error_limit
0801b138 l     F .text	00000510 finish_pass1
0801b648 l     F .text	00000004 finish_pass2
0801b64c l     F .text	00000010 new_color_map_2_quant
0801b848 l     F .text	000001c0 start_pass_2_quant
00000000 l    df *ABS*	00000000 jutils.c
00000000 l    df *ABS*	00000000 rdcolmap.c
0801baf4 l     F .text	00000108 add_map_entry
0801bbfc l     F .text	00000060 pbm_getc
0801bc5c l     F .text	00000110 read_pbm_integer
00000000 l    df *ABS*	00000000 wrbmp.c
0801c150 l     F .text	000000c4 put_pixel_rows
0801c214 l     F .text	000000ac put_gray_rows
0801c2c0 l     F .text	00000004 start_output_bmp
0801c680 l     F .text	000004c8 finish_output_bmp
0801c438 l     F .text	00000248 write_colormap
00000000 l    df *ABS*	00000000 wrgif.c
0801d2d0 l     F .text	00000030 start_output_gif
0801d300 l     F .text	000001c0 put_pixel_rows
0801cecc l     F .text	000000e4 finish_output_gif
0801cca4 l     F .text	0000004c put_3bytes
0801ccf0 l     F .text	00000050 put_word
0801cd40 l     F .text	0000006c flush_packet
0801cdac l     F .text	00000120 output
0801cfb0 l     F .text	00000010 clear_hash
0801cfc0 l     F .text	00000310 emit_header
00000000 l    df *ABS*	00000000 wrppm.c
0801d4c0 l     F .text	00000004 finish_output_ppm
0801d7c8 l     F .text	00000098 start_output_ppm
0801d640 l     F .text	00000078 put_pixel_rows
0801d70c l     F .text	00000078 put_demapped_rgb
0801d784 l     F .text	00000044 copy_pixel_rows
0801d6b8 l     F .text	00000054 put_demapped_gray
00000000 l    df *ABS*	00000000 wrrle.c
00000000 l    df *ABS*	00000000 wrtarga.c
0801d920 l     F .text	0000006c finish_output_tga
0801db7c l     F .text	00000194 start_output_tga
0801d98c l     F .text	00000054 put_demapped_gray
0801d9e0 l     F .text	00000044 put_gray_rows
0801da24 l     F .text	00000054 put_pixel_rows
0801da78 l     F .text	00000104 write_header
00000000 l    df *ABS*	00000000 fp-bit.c
0801dd10 l     F .text	000001e4 _fpadd_parts
00000000 l    df *ABS*	00000000 fp-bit.c
00000000 l    df *ABS*	00000000 fp-bit.c
00000000 l    df *ABS*	00000000 fp-bit.c
00000000 l    df *ABS*	00000000 fp-bit.c
00000000 l    df *ABS*	00000000 dp-bit.c
00000000 l    df *ABS*	00000000 dp-bit.c
00000000 l    df *ABS*	00000000 dp-bit.c
00000000 l    df *ABS*	00000000 dp-bit.c
00000000 l    df *ABS*	00000000 dp-bit.c
00000000 l    df *ABS*	00000000 lib2-divmod.c
0801eaf8 l     F .text	0000007c udivmodsi4
00000000 l    df *ABS*	00000000 lib2-mul.c
00000000 l    df *ABS*	00000000 libgcc2.c
00000000 l    df *ABS*	00000000 libgcc2.c
00000000 l    df *ABS*	00000000 fp-bit.c
00000000 l    df *ABS*	00000000 fp-bit.c
00000000 l    df *ABS*	00000000 fp-bit.c
00000000 l    df *ABS*	00000000 dp-bit.c
00000000 l    df *ABS*	00000000 dp-bit.c
00000000 l    df *ABS*	00000000 libgcc2.c
00000000 l    df *ABS*	00000000 ctype_.c
08035c6d l     O .rodata	00000180 _ctype_b
00000000 l    df *ABS*	00000000 exit.c
00000000 l    df *ABS*	00000000 fclose.c
00000000 l    df *ABS*	00000000 fflush.c
00000000 l    df *ABS*	00000000 findfp.c
0801f84c l     F .text	00000058 std
0801f958 l     F .text	00000008 __fp_lock
0801f960 l     F .text	00000008 __fp_unlock
00000000 l    df *ABS*	00000000 fopen.c
00000000 l    df *ABS*	00000000 fprintf.c
00000000 l    df *ABS*	00000000 fputc.c
00000000 l    df *ABS*	00000000 fread.c
00000000 l    df *ABS*	00000000 mallocr.c
00000000 l    df *ABS*	00000000 fseek.c
00000000 l    df *ABS*	00000000 fstatr.c
00000000 l    df *ABS*	00000000 fwalk.c
00000000 l    df *ABS*	00000000 fwrite.c
00000000 l    df *ABS*	00000000 getc.c
00000000 l    df *ABS*	00000000 getenv.c
00000000 l    df *ABS*	00000000 getenv_r.c
00000000 l    df *ABS*	00000000 impure.c
080361b4 l     O .rwdata	00000400 impure_data
00000000 l    df *ABS*	00000000 int_errno.c
00000000 l    df *ABS*	00000000 makebuf.c
00000000 l    df *ABS*	00000000 malloc.c
00000000 l    df *ABS*	00000000 mallocr.c
00000000 l    df *ABS*	00000000 memcpy.c
00000000 l    df *ABS*	00000000 memset.c
00000000 l    df *ABS*	00000000 openr.c
00000000 l    df *ABS*	00000000 printf.c
00000000 l    df *ABS*	00000000 putc.c
00000000 l    df *ABS*	00000000 puts.c
00000000 l    df *ABS*	00000000 refill.c
08021d58 l     F .text	0000001c lflush
00000000 l    df *ABS*	00000000 rget.c
00000000 l    df *ABS*	00000000 sbrkr.c
00000000 l    df *ABS*	00000000 sprintf.c
00000000 l    df *ABS*	00000000 sscanf.c
08021f18 l     F .text	00000008 eofread
00000000 l    df *ABS*	00000000 stdio.c
00000000 l    df *ABS*	00000000 strdup.c
00000000 l    df *ABS*	00000000 strdup_r.c
00000000 l    df *ABS*	00000000 strlen.c
00000000 l    df *ABS*	00000000 strncmp.c
00000000 l    df *ABS*	00000000 vfprintf.c
08022358 l     F .text	00000058 __sprint_r
08035e5e l     O .rodata	00000010 blanks.3452
08035e4e l     O .rodata	00000010 zeroes.3453
00000000 l    df *ABS*	00000000 vfscanf.c
08035e76 l     O .rodata	00000022 basefix.3357
00000000 l    df *ABS*	00000000 wbuf.c
00000000 l    df *ABS*	00000000 writer.c
00000000 l    df *ABS*	00000000 wsetup.c
00000000 l    df *ABS*	00000000 __call_atexit.c
08025d20 l     F .text	00000004 register_fini
00000000 l    df *ABS*	00000000 closer.c
00000000 l    df *ABS*	00000000 dtoa.c
08025f44 l     F .text	00000244 quorem
00000000 l    df *ABS*	00000000 environ.c
08039bd4 l     O .bss	00000004 initial_env
00000000 l    df *ABS*	00000000 flags.c
00000000 l    df *ABS*	00000000 fvwrite.c
00000000 l    df *ABS*	00000000 isattyr.c
00000000 l    df *ABS*	00000000 iswspace.c
00000000 l    df *ABS*	00000000 locale.c
08037e80 l     O .rwdata	00000004 charset
08035eb8 l     O .rodata	00000030 lconv
00000000 l    df *ABS*	00000000 lseekr.c
00000000 l    df *ABS*	00000000 mbrtowc.c
00000000 l    df *ABS*	00000000 mbtowc_r.c
00000000 l    df *ABS*	00000000 memchr.c
00000000 l    df *ABS*	00000000 memmove.c
00000000 l    df *ABS*	00000000 mprec.c
08036000 l     O .rodata	0000000c p05.2458
00000000 l    df *ABS*	00000000 readr.c
00000000 l    df *ABS*	00000000 mallocr.c
00000000 l    df *ABS*	00000000 s_isinfd.c
00000000 l    df *ABS*	00000000 s_isnand.c
00000000 l    df *ABS*	00000000 sccl.c
00000000 l    df *ABS*	00000000 sf_nan.c
00000000 l    df *ABS*	00000000 strcmp.c
00000000 l    df *ABS*	00000000 strtod.c
08029a00 l     F .text	00000048 match
080369dc l     O .rwdata	00000014 fpi.1950
0803601c l     O .rodata	00000028 tinytens
080369c8 l     O .rwdata	00000014 fpinan.1986
00000000 l    df *ABS*	00000000 strtol.c
00000000 l    df *ABS*	00000000 strtoll_r.c
00000000 l    df *ABS*	00000000 strtoul.c
00000000 l    df *ABS*	00000000 strtoull_r.c
00000000 l    df *ABS*	00000000 ungetc.c
00000000 l    df *ABS*	00000000 mallocr.c
00000000 l    df *ABS*	00000000 gdtoa-gethex.c
0802bf90 l     F .text	00000024 htinit
0802c01c l     F .text	000000b0 rshift
00000000 l    df *ABS*	00000000 gdtoa-hexnan.c
0802c8c8 l     F .text	0000004c L_shift
00000000 l    df *ABS*	00000000 libgcc2.c
00000000 l    df *ABS*	00000000 libgcc2.c
00000000 l    df *ABS*	00000000 libgcc2.c
00000000 l    df *ABS*	00000000 fp-bit.c
00000000 l    df *ABS*	00000000 fp-bit.c
00000000 l    df *ABS*	00000000 fp-bit.c
00000000 l    df *ABS*	00000000 dp-bit.c
0802da34 l     F .text	00000410 _fpadd_parts
00000000 l    df *ABS*	00000000 dp-bit.c
00000000 l    df *ABS*	00000000 dp-bit.c
00000000 l    df *ABS*	00000000 dp-bit.c
00000000 l    df *ABS*	00000000 dp-bit.c
00000000 l    df *ABS*	00000000 dp-bit.c
00000000 l    df *ABS*	00000000 dp-bit.c
00000000 l    df *ABS*	00000000 dp-bit.c
00000000 l    df *ABS*	00000000 dp-bit.c
00000000 l    df *ABS*	00000000 fp-bit.c
00000000 l    df *ABS*	00000000 dp-bit.c
00000000 l    df *ABS*	00000000 alt_close.c
00000000 l    df *ABS*	00000000 alt_dev.c
0802e69c l     F .text	00000008 alt_dev_null_write
00000000 l    df *ABS*	00000000 alt_env_lock.c
00000000 l    df *ABS*	00000000 alt_errno.c
00000000 l    df *ABS*	00000000 alt_exit.c
00000000 l    df *ABS*	00000000 alt_fstat.c
00000000 l    df *ABS*	00000000 alt_isatty.c
00000000 l    df *ABS*	00000000 alt_load.c
00000000 l    df *ABS*	00000000 alt_lseek.c
00000000 l    df *ABS*	00000000 alt_main.c
00000000 l    df *ABS*	00000000 alt_malloc_lock.c
00000000 l    df *ABS*	00000000 alt_open.c
00000000 l    df *ABS*	00000000 alt_read.c
00000000 l    df *ABS*	00000000 alt_release_fd.c
00000000 l    df *ABS*	00000000 alt_sbrk.c
08037e9c l     O .rwdata	00000004 heap_end
00000000 l    df *ABS*	00000000 alt_write.c
00000000 l    df *ABS*	00000000 alt_sys_init.c
08036b98 l     O .rwdata	000000d8 generic_tristate_controller_0
08036c70 l     O .rwdata	00001060 jtag_uart_0
08037cd0 l     O .rwdata	00000030 altera_ro_zipfs
08037d00 l     O .rwdata	00000054 video_pixel_buffer_dma_0
00000000 l    df *ABS*	00000000 altera_avalon_cfi_flash.c
00000000 l    df *ABS*	00000000 altera_avalon_cfi_flash_table.c
00000000 l    df *ABS*	00000000 altera_avalon_jtag_uart_fd.c
00000000 l    df *ABS*	00000000 altera_avalon_jtag_uart_init.c
0803022c l     F .text	00000058 altera_avalon_jtag_uart_timeout
08030304 l     F .text	00000108 altera_avalon_jtag_uart_irq
00000000 l    df *ABS*	00000000 altera_avalon_jtag_uart_ioctl.c
00000000 l    df *ABS*	00000000 altera_avalon_jtag_uart_read.c
00000000 l    df *ABS*	00000000 altera_avalon_jtag_uart_write.c
00000000 l    df *ABS*	00000000 altera_avalon_performance_counter.c
00000000 l    df *ABS*	00000000 altera_ro_zipfs.c
00000000 l    df *ABS*	00000000 altera_up_avalon_video_pixel_buffer_dma.c
00000000 l    df *ABS*	00000000 perf_print_formatted_report.c
00000000 l    df *ABS*	00000000 alt_alarm_start.c
00000000 l    df *ABS*	00000000 alt_dcache_flush.c
00000000 l    df *ABS*	00000000 alt_dcache_flush_all.c
00000000 l    df *ABS*	00000000 alt_dev_llist_insert.c
00000000 l    df *ABS*	00000000 alt_do_ctors.c
00000000 l    df *ABS*	00000000 alt_do_dtors.c
00000000 l    df *ABS*	00000000 alt_find_dev.c
00000000 l    df *ABS*	00000000 alt_find_file.c
00000000 l    df *ABS*	00000000 alt_flash_dev.c
00000000 l    df *ABS*	00000000 alt_fs_reg.c
00000000 l    df *ABS*	00000000 alt_get_fd.c
00000000 l    df *ABS*	00000000 alt_icache_flush_all.c
00000000 l    df *ABS*	00000000 alt_iic.c
00000000 l    df *ABS*	00000000 alt_iic_isr_register.c
00000000 l    df *ABS*	00000000 alt_io_redirect.c
00000000 l    df *ABS*	00000000 alt_irq_vars.c
00000000 l    df *ABS*	00000000 alt_tick.c
00000000 l    df *ABS*	00000000 altera_nios2_qsys_irq.c
00000000 l    df *ABS*	00000000 altera_avalon_cfi_flash_amd.c
08032998 l     F .text	00000150 alt_write_word_amd
00000000 l    df *ABS*	00000000 altera_avalon_cfi_flash_intel.c
08032ae8 l     F .text	00000108 alt_unlock_block_intel
08032d78 l     F .text	000000a0 alt_write_word_intel
00000000 l    df *ABS*	00000000 alt_usleep.c
00000000 l    df *ABS*	00000000 alt_busy_sleep.c
00000000 l    df *ABS*	00000000 atexit.c
00000000 l    df *ABS*	00000000 memcmp.c
00000000 l    df *ABS*	00000000 __atexit.c
00000000 l    df *ABS*	00000000 libgcc2.c
00000000 l    df *ABS*	00000000 lib2-divtable.c
08003b40 g     F .text	00000378 jpeg_gen_optimal_table
08028520 g     F .text	00000094 _mprec_log10
0800aa4c g     F .text	00000288 jpeg_copy_critical_parameters
0802860c g     F .text	00000088 __any_on
08027c78 g     F .text	00000070 _isatty_r
08035fd8 g     O .rodata	00000028 __mprec_tinytens
0802e980 g     F .text	00000060 alt_main
08031250 g     F .text	000001e4 alt_up_pixel_buffer_dma_draw_vline
08021ae0 g     F .text	000000a0 _puts_r
0802f74c g     F .text	0000001c alt_read_query_entry_32bit
08039d24 g     O .bss	00000100 alt_irq
08027dd8 g     F .text	00000078 _lseek_r
0802f388 g     F .text	00000190 alt_flash_cfi_write
08037eb4 g       *ABS*	00000000 __flash_rwdata_start
08009178 g     F .text	0000028c jinit_c_prep_controller
0802773c g     F .text	000000a0 __sflags
0802df38 g     F .text	00000088 __eqdf2
08039fb4 g       *ABS*	00000000 __alt_heap_start
0802187c g     F .text	00000044 printf
08022034 g     F .text	00000068 __sseek
0801f8b4 g     F .text	000000a4 __sinit
08030790 g     F .text	0000000c alt_get_cpu_freq
08025a20 g     F .text	00000130 __swbuf_r
08027d38 g     F .text	00000084 _setlocale_r
0800ea0c g     F .text	00000078 jinit_input_controller
0801f9b4 g     F .text	0000009c __sfmoreglue
0802beac g     F .text	0000001c ungetc
0802e9e4 g     F .text	00000004 __malloc_unlock
0800b648 g     F .text	000000f8 jpeg_read_scanlines
08029a48 g     F .text	000015cc _strtod_r
08018f84 g     F .text	00000008 jpeg_get_small
08015dcc g     F .text	0000081c jpeg_idct_float
080069f0 g     F .text	00000380 jpeg_set_colorspace
0800698c g     F .text	00000064 jpeg_quality_scaling
08028034 g     F .text	000000e0 memmove
08006f20 g     F .text	00000314 jpeg_simple_progression
08031e8c g     F .text	000001ec perf_print_formatted_report
0801f9a4 g     F .text	00000010 _cleanup
08028694 g     F .text	000000bc _Balloc
0801e240 g     F .text	00000094 __fixsfsi
08015724 g     F .text	000002a0 jpeg_fdct_ifast
0800e574 g     F .text	00000258 jpeg_make_d_derived_tbl
08031a38 g     F .text	000000f4 alt_up_pixel_buffer_dma_draw
0802e048 g     F .text	00000088 __gtdf2
00000000  w      *UND*	00000000 __errno
08017a58 g     F .text	00000060 jpeg_idct_1x1
0802f794 g     F .text	00000018 alt_write_flash_command_32bit_device_16bit_mode
08031b64 g     F .text	0000000c alt_up_pixel_buffer_dma_open_dev
08000000 g     F .entry	0000000c __reset
0800ddfc g     F .text	0000016c jpeg_huff_decode
08020c60 g     F .text	0000002c getenv
08000020 g       *ABS*	00000000 __flash_exceptions_start
08016b7c g     F .text	00000724 jpeg_idct_islow
08020858 g     F .text	00000074 _fstat_r
0802f038 g     F .text	0000028c alt_flash_program_block
08039bc4 g     O .bss	00000004 errno
08021dc0 g     F .text	00000014 __srget
08025920 g     F .text	00000024 __svfscanf
080121b4 g     F .text	00000364 jinit_master_decompress
0801f048 g     F .text	0000002c __make_fp
08039be8 g     O .bss	00000004 alt_argv
0803fe54 g       *ABS*	00000000 _gp
08032e18 g     F .text	00000004 usleep
0801def4 g     F .text	00000070 __subsf3
08031b3c g     F .text	00000028 alt_up_pixel_buffer_dma_change_back_buffer_address
08011e90 g     F .text	00000324 jpeg_calc_output_dimensions
08036a18 g     O .rwdata	00000180 alt_fd_list
08020bd0 g     F .text	00000090 _getc_r
08020b38 g     F .text	00000098 getc
080073bc g     F .text	0000006c jpeg_set_linear_quality
08032228 g     F .text	00000094 alt_find_dev
080216cc g     F .text	000000a0 memcpy
0802c914 g     F .text	00000248 __hexnan
0801f998 g     F .text	0000000c _cleanup_r
0801ba28 g     F .text	00000030 jround_up
0802e268 g     F .text	000000f8 __floatsidf
080323cc g     F .text	00000038 alt_fs_reg
0803258c g     F .text	0000014c alt_io_redirect
0802e158 g     F .text	00000088 __ltdf2
08033108 g       *ABS*	00000000 __DTOR_END__
08007468 g     F .text	00000174 jpeg_set_defaults
08021b80 g     F .text	00000014 puts
08030c78 g     F .text	000001e0 alt_ro_zipfs_open
08027ed0 g     F .text	00000040 mbrtowc
08025944 g     F .text	00000068 _vfscanf_r
08028470 g     F .text	000000b0 __ratio
08031b2c g     F .text	00000010 alt_up_pixel_buffer_dma_check_swap_buffers_status
08030494 g     F .text	0000016c altera_avalon_jtag_uart_read
08018f60 g     F .text	00000008 jpeg_mem_init
08020f78 g     F .text	00000014 malloc
080218c0 g     F .text	00000034 _printf_r
0801ba08 g     F .text	00000020 jdiv_round_up
0801ec34 g     F .text	00000008 __udivsi3
0802e76c g     F .text	000000a4 isatty
08027ce8 g     F .text	0000002c iswspace
08007640 g     F .text	0000006c jinit_phuff_encoder
08035ee8 g     O .rodata	000000c8 __mprec_tens
08031434 g     F .text	000001d0 alt_up_pixel_buffer_dma_draw_hline
0801d860 g     F .text	000000c0 jinit_write_targa
08027d14 g     F .text	00000008 __locale_charset
0802cb5c g     F .text	000000a4 __fixunsdfsi
08039bc8 g     O .bss	00000004 __malloc_top_pad
0803079c g     F .text	00000010 perf_get_num_starts
0802b920 g     F .text	00000024 strtoul
08037e7c g     O .rwdata	00000004 __mb_cur_max
08027d1c g     F .text	0000000c _localeconv_r
0802b944 g     F .text	000002f0 _strtoull_r
08028df8 g     F .text	0000003c __i2b
080277dc g     F .text	0000049c __sfvwrite_r
08021dd4 g     F .text	00000070 _sbrk_r
08032cf4 g     F .text	00000084 alt_program_intel
08031180 g     F .text	000000d0 helper_plot_pixel
08018f4c g     F .text	00000014 jpeg_open_backing_store
080291a0 g     F .text	00000078 _read_r
0803210c g     F .text	00000004 alt_dcache_flush
080369bc g     O .rwdata	0000000c __lc_ctype
08037e94 g     O .rwdata	00000004 alt_max_fd
0802f720 g     F .text	00000014 alt_read_query_entry_8bit
0801f388 g     F .text	00000138 __unpack_d
0801f4f8 g     F .text	00000110 _fclose_r
08032bf0 g     F .text	00000104 alt_erase_block_intel
0801f818 g     F .text	00000034 fflush
08039bcc g     O .bss	00000004 __malloc_max_sbrked_mem
0800b430 g     F .text	00000004 jpeg_abort_decompress
0802dec4 g     F .text	00000074 __adddf3
0802d8cc g     F .text	00000078 __nesf2
0800ba10 g     F .text	00000134 jpeg_start_decompress
08028350 g     F .text	00000120 __b2d
080029b4 g     F .text	00000300 jinit_color_converter
0803194c g     F .text	000000c8 alt_up_pixel_buffer_dma_clear_screen
0802d26c g     F .text	00000660 __umoddi3
0802e8c4 g     F .text	000000bc lseek
08037e6c g     O .rwdata	00000004 _global_impure_ptr
080068fc g     F .text	00000038 jpeg_destroy
08029218 g     F .text	000005f4 _realloc_r
08039fb4 g       *ABS*	00000000 __bss_end
08032504 g     F .text	00000088 alt_iic_isr_register
0801ba78 g     F .text	0000007c jcopy_sample_rows
080316d0 g     F .text	0000027c alt_up_pixel_buffer_dma_draw_box
0803270c g     F .text	000000e8 alt_tick
08039c24 g     O .bss	00000100 __hexdig
0802cc00 g     F .text	0000066c __udivdi3
08011de4 g     F .text	000000ac jpeg_new_colormap
08035fb0 g     O .rodata	00000028 __mprec_bigtens
08029080 g     F .text	00000120 __s2b
0801e964 g     F .text	00000194 __floatunsidf
08028270 g     F .text	00000060 __mcmp
08014dcc g     F .text	000001c0 jpeg_read_coefficients
08006960 g     F .text	0000002c jpeg_alloc_huff_table
0800d520 g     F .text	00000208 jinit_color_deconverter
08037e64 g     O .rwdata	00000004 __ctype_ptr
0801f980 g     F .text	00000018 __fp_lock_all
08032468 g     F .text	00000018 alt_ic_irq_enabled
08004d04 g     F .text	000000f0 jinit_c_main_controller
080326d8 g     F .text	00000034 alt_alarm_stop
0802b3a4 g     F .text	00000024 strtol
08039bf0 g     O .bss	00000004 alt_irq_active
08030e58 g     F .text	000001a8 alt_ro_zipfs_seek
080000ec g     F .exceptions	00000098 alt_irq_handler
080369f0 g     O .rwdata	00000028 alt_dev_null
0802218c g     F .text	00000068 _strdup_r
080355f0 g     O .rodata	000001e4 jpeg_std_message_table
0801ef80 g     F .text	000000c8 __unpack_f
0802f6b0 g     F .text	00000070 alt_set_flash_algorithm_func
080012c8 g     F .text	00000094 jpeg_write_marker
0800dc68 g     F .text	00000194 jpeg_fill_bit_buffer
08032110 g     F .text	00000004 alt_dcache_flush_all
0802813c g     F .text	00000070 __hi0bits
08031604 g     F .text	000000cc alt_up_pixel_buffer_dma_draw_rectangle
0802e360 g     F .text	000000d8 __fixdfsi
0802f80c g     F .text	00000010 alt_write_flash_command_8bit_device_8bit_mode
0802b138 g     F .text	0000001c strtod
0801b65c g     F .text	000001ec jinit_2pass_quantizer
08037eb4 g       *ABS*	00000000 __ram_rwdata_end
08037e8c g     O .rwdata	00000008 alt_dev_list
08012ac8 g     F .text	000001d4 jinit_merged_upsampler
0801fd14 g     F .text	00000058 _fputc_r
0802ed64 g     F .text	0000013c write
080219f8 g     F .text	000000e8 _putc_r
080036ac g     F .text	00000068 jinit_huff_encoder
08031b70 g     F .text	0000031c alt_up_pixel_buffer_dma_draw_line
0802d944 g     F .text	00000078 __gtsf2
08037e78 g     O .rwdata	00000004 environ
080361b4 g       *ABS*	00000000 __ram_rodata_end
0802e6c0 g     F .text	000000ac fstat
0801fc50 g     F .text	0000002c fprintf
0802e1e0 g     F .text	00000088 __ledf2
080151f4 g     F .text	00000530 jpeg_fdct_float
0802fce8 g     F .text	000000d8 alt_check_primary_table
08028f60 g     F .text	00000120 __pow5mult
08039bd8 g     O .bss	00000004 __nlocale_changed
0801ec3c g     F .text	00000008 __umodsi3
0800b434 g     F .text	00000004 jpeg_destroy_decompress
0802f35c g     F .text	0000002c alt_flash_cfi_read
0802f7c0 g     F .text	0000000c alt_write_native_8bit
08015014 g     F .text	00000070 jpeg_std_error
0800b438 g     F .text	00000110 jpeg_CreateDecompress
08039fb4 g       *ABS*	00000000 end
0801ee20 g     F .text	00000160 __pack_f
0802f7e4 g     F .text	00000028 alt_write_flash_command_16bit_device_8bit_mode
080358e8 g     O .rodata	00000140 jpeg_natural_order
08020834 g     F .text	00000024 fseek
0802fdc0 g     F .text	000003e8 alt_read_cfi_table
08018f68 g     F .text	00000004 jpeg_mem_term
0800023c g     F .text	00000014 read_stdin
08030284 g     F .text	00000080 altera_avalon_jtag_uart_init
0800f86c g     F .text	0000026c jinit_d_main_controller
08033104 g       *ABS*	00000000 __CTOR_LIST__
10000000 g       *ABS*	00000000 __alt_stack_pointer
0801eda0 g     F .text	00000080 __clzsi2
08014330 g     F .text	00000108 jinit_d_post_controller
08030600 g     F .text	00000184 altera_avalon_jtag_uart_write
0802f518 g     F .text	00000068 alt_flash_cfi_init
0801f8a4 g     F .text	00000004 __sfp_lock_acquire
08027f50 g     F .text	000000e4 memchr
080223b0 g     F .text	00001ec4 ___vfprintf_internal_r
08021eb8 g     F .text	00000060 _sprintf_r
080200e4 g     F .text	00000314 _free_r
08005908 g     F .text	00000080 jinit_marker_writer
080159c4 g     F .text	00000408 jpeg_fdct_islow
08021d74 g     F .text	0000004c __srget_r
08025d24 g     F .text	000001b0 __call_exitprocs
0800177c g     F .text	00000188 jpeg_write_raw_data
08019564 g     F .text	00000470 jinit_1pass_quantizer
080181c0 g     F .text	00000198 jinit_memory_mgr
0800b218 g     F .text	00000058 jpeg_has_multiple_scans
08039bdc g     O .bss	00000004 __mlocale_changed
08037e74 g     O .rwdata	00000004 __malloc_sbrk_base
08000184 g     F .text	0000003c _start
08039bf4 g     O .bss	00000004 _alt_tick_rate
0802b3c8 g     F .text	00000318 _strtoll_r
0803307c g     F .text	00000088 __floatundidf
08028a58 g     F .text	0000014c __lshift
08039bf8 g     O .bss	00000004 _alt_nticks
0802eb74 g     F .text	00000140 read
080165e8 g     F .text	00000594 jpeg_idct_ifast
0802eec0 g     F .text	00000140 alt_sys_init
0801e1a8 g     F .text	00000098 __floatsisf
08021804 g     F .text	00000078 _open_r
08032f48 g     F .text	00000134 __register_exitproc
08018f44 g     F .text	00000008 jpeg_mem_available
08022268 g     F .text	000000f0 strncmp
0801ba58 g     F .text	0000000c jzero_far
0802f734 g     F .text	00000018 alt_read_query_entry_16bit
0800dba4 g     F .text	000000c4 jinit_inverse_dct
08028ba4 g     F .text	00000254 __multiply
080301e4 g     F .text	00000048 altera_avalon_jtag_uart_close
0801ec44 g     F .text	00000038 __mulsi3
080361b4 g       *ABS*	00000000 __ram_rwdata_start
08033108 g       *ABS*	00000000 __ram_rodata_start
08039bfc g     O .bss	00000028 __malloc_current_mallinfo
0802f580 g     F .text	00000130 alt_set_flash_width_func
08028750 g     F .text	0000017c __d2b
0800aec4 g     F .text	000002fc jpeg_consume_input
080301d4 g     F .text	00000010 altera_avalon_jtag_uart_read_fd
0802b6e0 g     F .text	00000240 _strtoul_r
08032404 g     F .text	00000060 alt_get_fd
08032e1c g     F .text	000000a4 alt_busy_sleep
08017770 g     F .text	000002e8 jpeg_idct_2x2
0802e4e0 g     F .text	000000c8 __fpcmp_parts_d
0800b1c0 g     F .text	00000058 jpeg_input_complete
0801c2c4 g     F .text	00000174 jinit_write_bmp
08025ed4 g     F .text	00000070 _close_r
080327fc g     F .text	0000017c alt_erase_block_amd
080307ac g     F .text	00000030 perf_get_section_time
0800c5c0 g     F .text	00000194 jinit_d_coef_controller
08032ed4 g     F .text	00000074 memcmp
080301b4 g     F .text	00000010 altera_avalon_jtag_uart_close_fd
08039fb4 g       *ABS*	00000000 __alt_stack_base
080301a8 g     F .text	0000000c altera_avalon_jtag_uart_ioctl_fd
08020a4c g     F .text	000000ac _fwrite_r
08021fa8 g     F .text	00000084 sscanf
08001268 g     F .text	00000060 jpeg_suppress_tables
08025be4 g     F .text	0000013c __swsetup_r
0802f81c g     F .text	000004cc alt_read_cfi_width
0801e698 g     F .text	00000258 __divdf3
0801fa50 g     F .text	000000f0 __sfp
080285b4 g     F .text	00000058 __copybits
080307dc g     F .text	00000028 perf_get_total_time
080365b4 g     O .rwdata	00000408 __malloc_av_
0801f8b0 g     F .text	00000004 __sinit_lock_release
0801e2d4 g     F .text	000003c4 __muldf3
08022118 g     F .text	00000060 __sread
08035a48 g     O .rodata	00000010 __thenan_sf
0801ff78 g     F .text	00000040 fread
080322bc g     F .text	000000b0 alt_find_file
0800e508 g     F .text	0000006c jinit_huff_decoder
0800155c g     F .text	00000004 jpeg_abort_compress
08032114 g     F .text	0000007c alt_dev_llist_insert
0802e9e0 g     F .text	00000004 __malloc_lock
0801fc7c g     F .text	00000034 _fprintf_r
0802ed10 g     F .text	00000054 sbrk
08022178 g     F .text	00000014 strdup
0801f61c g     F .text	000001fc _fflush_r
0802bec8 g     F .text	000000c8 _calloc_r
08037ea0 g     O .rwdata	00000008 alt_flash_dev_list
0802f7ac g     F .text	00000014 alt_write_flash_command_16bit_device_16bit_mode
08037d54 g     O .rwdata	00000100 __divsi3_table
0801fc34 g     F .text	0000001c fopen
08039bb4 g       *ABS*	00000000 __bss_start
0802176c g     F .text	00000098 memset
08000ea0 g     F .text	000003c8 main
080072ac g     F .text	00000110 jpeg_add_quant_table
0800ae68 g     F .text	0000005c jpeg_set_marker_processor
080068a4 g     F .text	00000058 jpeg_abort
08039bec g     O .bss	00000004 alt_envp
08039bd0 g     O .bss	00000004 __malloc_max_total_mem
08031a14 g     F .text	00000024 alt_up_pixel_buffer_dma_swap_buffers
080301c4 g     F .text	00000010 altera_avalon_jtag_uart_write_fd
08025b50 g     F .text	0000001c __swbuf
0802d9bc g     F .text	00000078 __ltsf2
0801fd6c g     F .text	0000020c _fread_r
0800b370 g     F .text	000000c0 jpeg_read_header
0802202c g     F .text	00000008 __sclose
10000000 g       *ABS*	00000000 __alt_heap_limit
08001904 g     F .text	000000bc jpeg_start_compress
0801f608 g     F .text	00000014 fclose
08006934 g     F .text	0000002c jpeg_alloc_quant_table
0802b154 g     F .text	00000250 _strtol_r
0801e8f0 g     F .text	00000074 __truncdfsf2
08020ca8 g     F .text	0000010c _findenv_r
08001560 g     F .text	00000004 jpeg_destroy_compress
08039e24 g     O .bss	00000190 _atexit0
08026188 g     F .text	000015b4 _dtoa_r
08020f8c g     F .text	00000740 _malloc_r
0800135c g     F .text	00000098 jpeg_write_tables
08006d70 g     F .text	00000094 jpeg_default_colorspace
08012e80 g     F .text	000000b8 jinit_phuff_decoder
08037e98 g     O .rwdata	00000004 alt_errno
08018f7c g     F .text	00000008 jpeg_get_large
0802bc34 g     F .text	000000dc __submore
0802f770 g     F .text	00000018 alt_write_flash_command_32bit_device_32bit_mode
0802e6a8 g     F .text	00000004 __env_unlock
08020c8c g     F .text	0000001c _findenv
08020994 g     F .text	000000b8 _fwalk
0802f2c4 g     F .text	00000098 alt_write_value_to_flash
08027f10 g     F .text	00000040 _mbtowc_r
0802f788 g     F .text	0000000c alt_write_native_16bit
080218f4 g     F .text	00000104 putc
0801eb74 g     F .text	00000060 __divsi3
0800b270 g     F .text	00000100 jpeg_finish_decompress
08031000 g     F .text	00000180 alt_ro_zipfs_read
08035a58 g     O .rodata	00000014 __thenan_df
0801ffb8 g     F .text	0000012c _malloc_trim_r
08033108 g       *ABS*	00000000 __CTOR_END__
080108a4 g     F .text	00000190 jpeg_resync_to_restart
0801dfc8 g     F .text	000001e0 __mulsf3
08030a8c g     F .text	000001ec alt_ro_zipfs_check_valid
0800bd54 g     F .text	000000c4 jpeg_stdio_src
08029944 g     F .text	000000bc strcmp
08001564 g     F .text	0000010c jpeg_CreateCompress
08033108 g       *ABS*	00000000 __flash_rodata_start
08033108 g       *ABS*	00000000 __DTOR_LIST__
0802dfc0 g     F .text	00000088 __nedf2
08030950 g     F .text	0000013c alt_ro_zipfs_fstat
0802eea0 g     F .text	00000020 alt_irq_init
0802ecb4 g     F .text	0000005c alt_release_fd
08021e44 g     F .text	00000074 sprintf
08035a6c g     O .rodata	00000100 __clz_tab
08039be0 g     O .bss	00000004 _PathLocale
10000000 g       *ABS*	00000000 __alt_mem_generic_tristate_controller_0
0802b014 g     F .text	00000124 strtof
08032ec0 g     F .text	00000014 atexit
08018f6c g     F .text	00000008 jpeg_free_large
08025b6c g     F .text	00000078 _write_r
08027dbc g     F .text	0000001c setlocale
08003358 g     F .text	000000fc jinit_forward_dct
0802993c g     F .text	00000008 nanf
08037e68 g     O .rwdata	00000004 _impure_ptr
08039be4 g     O .bss	00000004 alt_argc
08027e50 g     F .text	00000080 _mbrtowc_r
080321dc g     F .text	0000004c _do_dtors
080203f8 g     F .text	0000043c _fseek_r
08021b94 g     F .text	000001c4 __srefill_r
08000020 g       .exceptions	00000000 alt_irq_entry
080282d0 g     F .text	00000080 __ulp
0802980c g     F .text	00000040 __isinfd
0801f968 g     F .text	00000018 __fp_unlock_all
08004aa0 g     F .text	000000f0 jinit_compress_master
0801fcb0 g     F .text	00000064 fputc
080001c0 g     F .text	0000007c keymatch
08037e84 g     O .rwdata	00000008 alt_fs_list
0802f7cc g     F .text	00000018 alt_write_flash_command_32bit_device_8bit_mode
08010a54 g     F .text	000000a4 jinit_marker_reader
0801bd6c g     F .text	000003e4 read_color_map
08000020 g       *ABS*	00000000 __ram_exceptions_start
08027d28 g     F .text	00000010 localeconv
080013f4 g     F .text	00000168 jpeg_finish_compress
08000000 g       *ABS*	00000000 __alt_mem_new_sdram_controller_0
08032500 g     F .text	00000004 alt_ic_isr_register
0800b740 g     F .text	00000168 jpeg_read_raw_data
08020af8 g     F .text	00000040 fwrite
0802bfb4 g     F .text	00000068 __hexdig_init
0801d4c4 g     F .text	0000017c jinit_write_ppm
08021f20 g     F .text	00000088 _sscanf_r
08037eb4 g       *ABS*	00000000 _edata
08039fb4 g       *ABS*	00000000 _end
08032380 g     F .text	0000004c alt_flash_open_dev
08000184 g       *ABS*	00000000 __ram_exceptions_end
080259ac g     F .text	00000074 vfscanf
0803040c g     F .text	00000088 altera_avalon_jtag_uart_ioctl
080324c0 g     F .text	00000040 alt_ic_irq_disable
0802209c g     F .text	0000007c __swrite
08037e70 g     O .rwdata	00000004 __malloc_trim_threshold
08030784 g     F .text	0000000c alt_get_performance_counter_base
080327f4 g     F .text	00000008 altera_nios2_qsys_irq_init
080172a0 g     F .text	000004d0 jpeg_idct_4x4
0801f4c0 g     F .text	00000038 exit
080208cc g     F .text	000000c8 _fwalk_reent
080288cc g     F .text	0000018c __mdiff
0803236c g     F .text	00000014 alt_flash_close_dev
0801ebd4 g     F .text	00000060 __modsi3
10000000 g       *ABS*	00000000 __alt_data_end
08000020 g     F .exceptions	00000000 alt_exception
0801f8a8 g     F .text	00000004 __sfp_lock_release
0801cb48 g     F .text	0000015c jinit_write_gif
0800a430 g     F .text	00000240 jinit_downsampler
0802987c g     F .text	000000c0 __sccl
08035b6c g     O .rodata	00000101 _ctype_
08007428 g     F .text	00000040 jpeg_set_quality
0800bb90 g     F .text	0000007c jpeg_stdio_dest
0802e438 g     F .text	000000a8 __fpcmp_parts_f
0801fb40 g     F .text	000000f4 _fopen_r
0802984c g     F .text	00000030 __isnand
0802e6ac g     F .text	00000014 _exit
08032078 g     F .text	00000094 alt_alarm_start
0801ec7c g     F .text	00000124 __muldi3
08020dd0 g     F .text	00000194 __smakebuf_r
0802f768 g     F .text	00000008 alt_write_native_32bit
080221f4 g     F .text	00000074 strlen
0802e9e8 g     F .text	0000018c open
08001670 g     F .text	0000010c jpeg_write_scanlines
0802e0d0 g     F .text	00000088 __gedf2
0802c0cc g     F .text	000007fc __gethex
0801ba64 g     F .text	00000014 jcopy_block_row
0802f000 g     F .text	00000038 alt_flash_cfi_get_info
0800acd4 g     F .text	00000194 jpeg_write_coefficients
08032464 g     F .text	00000004 alt_icache_flush_all
08037ea8 g     O .rwdata	00000004 alt_priority_mask
08032480 g     F .text	00000040 alt_ic_irq_enable
08018f74 g     F .text	00000008 jpeg_free_small
08024274 g     F .text	00000024 __vfprintf_internal
0800b94c g     F .text	000000c4 jpeg_finish_output
0802e6a4 g     F .text	00000004 __env_lock
08000250 g     F .text	00000014 write_stdout
08006058 g     F .text	0000084c jinit_c_master_control
0802de44 g     F .text	00000080 __subdf3
0800b8a8 g     F .text	000000a4 jpeg_start_output
080281ac g     F .text	000000c4 __lo0bits
08024298 g     F .text	00001688 __svfscanf_r
08037eac g     O .rwdata	00000008 alt_alarm_list
0802bd10 g     F .text	0000019c _ungetc_r
08032190 g     F .text	0000004c _do_ctors
08001d80 g     F .text	0000012c jinit_c_coef_controller
0802e5a8 g     F .text	000000f4 close
0801df64 g     F .text	00000064 __addsf3
08032978 g     F .text	00000020 alt_program_amd
0802e810 g     F .text	000000b4 alt_load
08003714 g     F .text	00000180 jpeg_make_c_derived_tbl
0801f074 g     F .text	00000314 __pack_d
08000de8 g     F .text	000000b8 capture_cmd_args
08014748 g     F .text	000002d8 jinit_upsampler
08020f64 g     F .text	00000014 free
0801f8ac g     F .text	00000004 __sinit_lock_acquire
08028e34 g     F .text	0000012c __multadd
08028114 g     F .text	00000028 _Bfree
08020db4 g     F .text	0000001c _getenv_r
08030804 g     F .text	0000014c check_directory_header



Disassembly of section .entry:

08000000 <__reset>:
 * Jump to the _start entry point in the .text section if reset code
 * is allowed or if optimizing for RTL simulation.
 */
#if defined(ALT_ALLOW_CODE_AT_RESET) || defined(ALT_SIM_OPTIMIZE)
    /* Jump to the _start entry point in the .text section. */
    movhi r1, %hi(_start)
 8000000:	00420034 	movhi	at,2048
    ori r1, r1, %lo(_start)
 8000004:	08406114 	ori	at,at,388
    jmp r1
 8000008:	0800683a 	jmp	at
	...

Disassembly of section .exceptions:

08000020 <alt_exception>:
         * Process an exception.  For all exceptions we must preserve all
         * caller saved registers on the stack (See the Nios2 ABI
         * documentation for details).
         */

        addi  sp, sp, -76
 8000020:	deffed04 	addi	sp,sp,-76

#endif

#endif

        stw   ra,  0(sp)
 8000024:	dfc00015 	stw	ra,0(sp)
        /*
         * Leave a gap in the stack frame at 4(sp) for the muldiv handler to
         * store zero into.
         */

        stw   r1,   8(sp)
 8000028:	d8400215 	stw	at,8(sp)
        stw   r2,  12(sp)
 800002c:	d8800315 	stw	r2,12(sp)
        stw   r3,  16(sp)
 8000030:	d8c00415 	stw	r3,16(sp)
        stw   r4,  20(sp)
 8000034:	d9000515 	stw	r4,20(sp)
        stw   r5,  24(sp)
 8000038:	d9400615 	stw	r5,24(sp)
        stw   r6,  28(sp)
 800003c:	d9800715 	stw	r6,28(sp)
        stw   r7,  32(sp)
 8000040:	d9c00815 	stw	r7,32(sp)

        rdctl r5, estatus
 8000044:	000b307a 	rdctl	r5,estatus

        stw   r8,  36(sp)
 8000048:	da000915 	stw	r8,36(sp)
        stw   r9,  40(sp)
 800004c:	da400a15 	stw	r9,40(sp)
        stw   r10, 44(sp)
 8000050:	da800b15 	stw	r10,44(sp)
        stw   r11, 48(sp)
 8000054:	dac00c15 	stw	r11,48(sp)
        stw   r12, 52(sp)
 8000058:	db000d15 	stw	r12,52(sp)
        stw   r13, 56(sp)
 800005c:	db400e15 	stw	r13,56(sp)
        stw   r14, 60(sp)
 8000060:	db800f15 	stw	r14,60(sp)
        stw   r15, 64(sp)
 8000064:	dbc01015 	stw	r15,64(sp)
        /*
         * ea-4 contains the address of the instruction being executed
         * when the exception occured. For interrupt exceptions, we will
         * will be re-issue the isntruction. Store it in 72(sp)
         */
        stw   r5,  68(sp)  /* estatus */
 8000068:	d9401115 	stw	r5,68(sp)
        addi  r15, ea, -4  /* instruction that caused exception */
 800006c:	ebffff04 	addi	r15,ea,-4
        stw   r15,  72(sp)
 8000070:	dbc01215 	stw	r15,72(sp)
#else
        /*
         * Test to see if the exception was a software exception or caused 
         * by an external interrupt, and vector accordingly.
         */
        rdctl r4, ipending
 8000074:	0009313a 	rdctl	r4,ipending
        andi  r2, r5, 1
 8000078:	2880004c 	andi	r2,r5,1
        beq   r2, zero, .Lnot_irq
 800007c:	10000326 	beq	r2,zero,800008c <alt_exception+0x6c>
        beq   r4, zero, .Lnot_irq
 8000080:	20000226 	beq	r4,zero,800008c <alt_exception+0x6c>
        /*
         * Now that all necessary registers have been preserved, call 
         * alt_irq_handler() to process the interrupts.
         */

        call alt_irq_handler
 8000084:	80000ec0 	call	80000ec <alt_irq_handler>

        .section .exceptions.irqreturn, "xa"

        br    .Lexception_exit
 8000088:	00000306 	br	8000098 <alt_exception+0x78>
         * upon completion, so we write ea (address of instruction *after*
         * the one where the exception occured) into 72(sp). The actual
         * instruction that caused the exception is written in r2, which these
         * handlers will utilize.
         */
        stw   ea,  72(sp)  /* Don't re-issue */
 800008c:	df401215 	stw	ea,72(sp)
        ldw   r2, -4(ea)   /* Instruction that caused exception */
 8000090:	e8bfff17 	ldw	r2,-4(ea)
#ifdef NIOS2_HAS_DEBUG_STUB
       /*
        *  Either tell the user now (if there is a debugger attached) or go into
        *  the debug monitor which will loop until a debugger is attached.
        */
        break
 8000094:	003da03a 	break	0
        /* 
         * Restore the saved registers, so that all general purpose registers 
         * have been restored to their state at the time the interrupt occured.
         */

        ldw   r5,  68(sp)
 8000098:	d9401117 	ldw	r5,68(sp)
        ldw   ea,  72(sp)  /* This becomes the PC once eret is executed */
 800009c:	df401217 	ldw	ea,72(sp)
        ldw   ra,   0(sp)
 80000a0:	dfc00017 	ldw	ra,0(sp)

        wrctl estatus, r5
 80000a4:	2801707a 	wrctl	estatus,r5

        ldw   r1,   8(sp)
 80000a8:	d8400217 	ldw	at,8(sp)
        ldw   r2,  12(sp)
 80000ac:	d8800317 	ldw	r2,12(sp)
        ldw   r3,  16(sp)
 80000b0:	d8c00417 	ldw	r3,16(sp)
        ldw   r4,  20(sp)
 80000b4:	d9000517 	ldw	r4,20(sp)
        ldw   r5,  24(sp)
 80000b8:	d9400617 	ldw	r5,24(sp)
        ldw   r6,  28(sp)
 80000bc:	d9800717 	ldw	r6,28(sp)
        ldw   r7,  32(sp)
 80000c0:	d9c00817 	ldw	r7,32(sp)
#ifdef ALT_STACK_CHECK
        ldw   et, %gprel(alt_exception_old_stack_limit)(gp)
#endif
#endif

        ldw   r8,  36(sp)
 80000c4:	da000917 	ldw	r8,36(sp)
        ldw   r9,  40(sp)
 80000c8:	da400a17 	ldw	r9,40(sp)
        ldw   r10, 44(sp)
 80000cc:	da800b17 	ldw	r10,44(sp)
        ldw   r11, 48(sp)
 80000d0:	dac00c17 	ldw	r11,48(sp)
        ldw   r12, 52(sp)
 80000d4:	db000d17 	ldw	r12,52(sp)
        ldw   r13, 56(sp)
 80000d8:	db400e17 	ldw	r13,56(sp)
        ldw   r14, 60(sp)
 80000dc:	db800f17 	ldw	r14,60(sp)
        ldw   r15, 64(sp)
 80000e0:	dbc01017 	ldw	r15,64(sp)
#endif

        ldw   sp,  76(sp)

#else
        addi  sp, sp, 76
 80000e4:	dec01304 	addi	sp,sp,76

        /*
         * Return to the interrupted instruction.
         */

        eret
 80000e8:	ef80083a 	eret

080000ec <alt_irq_handler>:
 * instruction is present if the macro ALT_CI_INTERRUPT_VECTOR defined.
 */

void alt_irq_handler (void) __attribute__ ((section (".exceptions")));
void alt_irq_handler (void)
{
 80000ec:	defffe04 	addi	sp,sp,-8
 80000f0:	dfc00115 	stw	ra,4(sp)
 80000f4:	dc000015 	stw	r16,0(sp)
#ifndef NIOS2_EIC_PRESENT
static ALT_INLINE alt_u32 ALT_ALWAYS_INLINE alt_irq_pending (void)
{
  alt_u32 active;

  NIOS2_READ_IPENDING (active);
 80000f8:	000b313a 	rdctl	r5,ipending
     * called to clear the interrupt condition.
     */

    do
    {
      if (active & mask)
 80000fc:	2880004c 	andi	r2,r5,1
 8000100:	1005003a 	cmpeq	r2,r2,zero
 8000104:	04020134 	movhi	r16,2052
 8000108:	84274904 	addi	r16,r16,-25308
 800010c:	10001126 	beq	r2,zero,8000154 <alt_irq_handler+0x68>
 8000110:	00c00044 	movi	r3,1
 8000114:	0009883a 	mov	r4,zero
#else
        alt_irq[i].handler(alt_irq[i].context, i); 
#endif
        break;
      }
      mask <<= 1;
 8000118:	18c7883a 	add	r3,r3,r3
     * called to clear the interrupt condition.
     */

    do
    {
      if (active & mask)
 800011c:	28c4703a 	and	r2,r5,r3
        alt_irq[i].handler(alt_irq[i].context, i); 
#endif
        break;
      }
      mask <<= 1;
      i++;
 8000120:	21000044 	addi	r4,r4,1
     * called to clear the interrupt condition.
     */

    do
    {
      if (active & mask)
 8000124:	103ffc26 	beq	r2,zero,8000118 <alt_irq_handler+0x2c>
      { 
#ifdef ALT_ENHANCED_INTERRUPT_API_PRESENT
        alt_irq[i].handler(alt_irq[i].context); 
 8000128:	200490fa 	slli	r2,r4,3
 800012c:	1405883a 	add	r2,r2,r16
 8000130:	11000117 	ldw	r4,4(r2)
 8000134:	10c00017 	ldw	r3,0(r2)
 8000138:	183ee83a 	callr	r3
 800013c:	0005313a 	rdctl	r2,ipending

    } while (1);

    active = alt_irq_pending ();
    
  } while (active);
 8000140:	10000c26 	beq	r2,zero,8000174 <alt_irq_handler+0x88>
 8000144:	100b883a 	mov	r5,r2
     * called to clear the interrupt condition.
     */

    do
    {
      if (active & mask)
 8000148:	2880004c 	andi	r2,r5,1
 800014c:	1005003a 	cmpeq	r2,r2,zero
 8000150:	103fef1e 	bne	r2,zero,8000110 <alt_irq_handler+0x24>
 8000154:	0009883a 	mov	r4,zero
      { 
#ifdef ALT_ENHANCED_INTERRUPT_API_PRESENT
        alt_irq[i].handler(alt_irq[i].context); 
 8000158:	200490fa 	slli	r2,r4,3
 800015c:	1405883a 	add	r2,r2,r16
 8000160:	11000117 	ldw	r4,4(r2)
 8000164:	10c00017 	ldw	r3,0(r2)
 8000168:	183ee83a 	callr	r3
 800016c:	0005313a 	rdctl	r2,ipending

    } while (1);

    active = alt_irq_pending ();
    
  } while (active);
 8000170:	103ff41e 	bne	r2,zero,8000144 <alt_irq_handler+0x58>
  /*
   * Notify the operating system that interrupt processing is complete.
   */ 

  ALT_OS_INT_EXIT();
}
 8000174:	dfc00117 	ldw	ra,4(sp)
 8000178:	dc000017 	ldw	r16,0(sp)
 800017c:	dec00204 	addi	sp,sp,8
 8000180:	f800283a 	ret

Disassembly of section .text:

08000184 <_start>:
#if (NIOS2_NUM_OF_SHADOW_REG_SETS == 0)    
    /*
     * Now that the caches are initialized, set up the stack pointer.
     * The value provided by the linker is assumed to be correctly aligned.
     */
    movhi sp, %hi(__alt_stack_pointer)
 8000184:	06c40034 	movhi	sp,4096
    ori sp, sp, %lo(__alt_stack_pointer)
 8000188:	dec00014 	ori	sp,sp,0

    /* Set up the global pointer. */
    movhi gp, %hi(_gp)
 800018c:	068200f4 	movhi	gp,2051
    ori gp, gp, %lo(_gp)
 8000190:	d6bf9514 	ori	gp,gp,65108
 */
#ifndef ALT_SIM_OPTIMIZE
    /* Log that the BSS is about to be cleared. */
    ALT_LOG_PUTS(alt_log_msg_bss)

    movhi r2, %hi(__bss_start)
 8000194:	008200f4 	movhi	r2,2051
    ori r2, r2, %lo(__bss_start)
 8000198:	10a6ed14 	ori	r2,r2,39860

    movhi r3, %hi(__bss_end)
 800019c:	00c200f4 	movhi	r3,2051
    ori r3, r3, %lo(__bss_end)
 80001a0:	18e7ed14 	ori	r3,r3,40884

    beq r2, r3, 1f
 80001a4:	10c00326 	beq	r2,r3,80001b4 <_start+0x30>

0:
    stw zero, (r2)
 80001a8:	10000015 	stw	zero,0(r2)
    addi r2, r2, 4
 80001ac:	10800104 	addi	r2,r2,4
    bltu r2, r3, 0b
 80001b0:	10fffd36 	bltu	r2,r3,80001a8 <_start+0x24>
     * section aren't defined until alt_load() has been called).
     */
    mov   et, zero
#endif

    call alt_load
 80001b4:	802e8100 	call	802e810 <alt_load>

    /* Log that alt_main is about to be called. */
    ALT_LOG_PUTS(alt_log_msg_alt_main)

    /* Call the C entry point. It should never return. */
    call alt_main
 80001b8:	802e9800 	call	802e980 <alt_main>

080001bc <alt_after_alt_main>:

    /* Wait in infinite loop in case alt_main does return. */
alt_after_alt_main:
    br alt_after_alt_main
 80001bc:	003fff06 	br	80001bc <alt_after_alt_main>

080001c0 <keymatch>:
keymatch (char * arg, const char * keyword, int minchars)
{
  register int ca, ck;
  register int nmatched = 0;

  while ((ca = *arg++) != '\0') {
 80001c0:	21c00007 	ldb	r7,0(r4)
 80001c4:	38001a26 	beq	r7,zero,8000230 <keymatch+0x70>
    if ((ck = *keyword++) == '\0')
 80001c8:	28c00007 	ldb	r3,0(r5)
 80001cc:	18001626 	beq	r3,zero,8000228 <keymatch+0x68>
      return FALSE;		/* arg longer than keyword, no good */
    if (isupper(ca))		/* force arg to lcase (assume ck is already) */
 80001d0:	008200f4 	movhi	r2,2051
 80001d4:	109f9904 	addi	r2,r2,32356
 80001d8:	12c00017 	ldw	r11,0(r2)
{
  register int ca, ck;
  register int nmatched = 0;

  while ((ca = *arg++) != '\0') {
    if ((ck = *keyword++) == '\0')
 80001dc:	1813883a 	mov	r9,r3
      return FALSE;		/* arg longer than keyword, no good */
    if (isupper(ca))		/* force arg to lcase (assume ck is already) */
 80001e0:	0015883a 	mov	r10,zero
 80001e4:	59c5883a 	add	r2,r11,r7
 80001e8:	10c00003 	ldbu	r3,0(r2)
      ca = tolower(ca);
    if (ca != ck)
      return FALSE;		/* no good */
    nmatched++;			/* count matched characters */
 80001ec:	52800044 	addi	r10,r10,1
{
  register int ca, ck;
  register int nmatched = 0;

  while ((ca = *arg++) != '\0') {
    if ((ck = *keyword++) == '\0')
 80001f0:	5151883a 	add	r8,r10,r5
      return FALSE;		/* arg longer than keyword, no good */
    if (isupper(ca))		/* force arg to lcase (assume ck is already) */
 80001f4:	18c0004c 	andi	r3,r3,1
 80001f8:	1807003a 	cmpeq	r3,r3,zero
keymatch (char * arg, const char * keyword, int minchars)
{
  register int ca, ck;
  register int nmatched = 0;

  while ((ca = *arg++) != '\0') {
 80001fc:	2285883a 	add	r2,r4,r10
    if ((ck = *keyword++) == '\0')
      return FALSE;		/* arg longer than keyword, no good */
    if (isupper(ca))		/* force arg to lcase (assume ck is already) */
 8000200:	1800011e 	bne	r3,zero,8000208 <keymatch+0x48>
      ca = tolower(ca);
 8000204:	39c00804 	addi	r7,r7,32
    if (ca != ck)
 8000208:	3a40071e 	bne	r7,r9,8000228 <keymatch+0x68>
keymatch (char * arg, const char * keyword, int minchars)
{
  register int ca, ck;
  register int nmatched = 0;

  while ((ca = *arg++) != '\0') {
 800020c:	10800007 	ldb	r2,0(r2)
 8000210:	100f883a 	mov	r7,r2
 8000214:	10000726 	beq	r2,zero,8000234 <keymatch+0x74>
    if ((ck = *keyword++) == '\0')
 8000218:	40800007 	ldb	r2,0(r8)
 800021c:	10000226 	beq	r2,zero,8000228 <keymatch+0x68>
 8000220:	1013883a 	mov	r9,r2
 8000224:	003fef06 	br	80001e4 <keymatch+0x24>
keymatch (char * arg, const char * keyword, int minchars)
{
  register int ca, ck;
  register int nmatched = 0;

  while ((ca = *arg++) != '\0') {
 8000228:	0005883a 	mov	r2,zero
  }
  /* reached end of argument; fail if it's too short for unique abbrev */
  if (nmatched < minchars)
    return FALSE;
  return TRUE;			/* A-OK */
}
 800022c:	f800283a 	ret
keymatch (char * arg, const char * keyword, int minchars)
{
  register int ca, ck;
  register int nmatched = 0;

  while ((ca = *arg++) != '\0') {
 8000230:	0015883a 	mov	r10,zero
 8000234:	5184403a 	cmpge	r2,r10,r6
 8000238:	f800283a 	ret

0800023c <read_stdin>:
 * Non-Unix systems often require some hacking to get out of text mode.
 */

GLOBAL(FILE *)
read_stdin (void)
{
 800023c:	008200f4 	movhi	r2,2051
 8000240:	109f9a04 	addi	r2,r2,32360
 8000244:	10c00017 	ldw	r3,0(r2)
    fprintf(stderr, "Cannot reopen stdin\n");
    exit(EXIT_FAILURE);
  }
#endif
  return input_file;
}
 8000248:	18800117 	ldw	r2,4(r3)
 800024c:	f800283a 	ret

08000250 <write_stdout>:


GLOBAL(FILE *)
write_stdout (void)
{
 8000250:	008200f4 	movhi	r2,2051
 8000254:	109f9a04 	addi	r2,r2,32360
 8000258:	10c00017 	ldw	r3,0(r2)
    fprintf(stderr, "Cannot reopen stdout\n");
    exit(EXIT_FAILURE);
  }
#endif
  return output_file;
}
 800025c:	18800217 	ldw	r2,8(r3)
 8000260:	f800283a 	ret

08000264 <jpeg_getc>:
 */

LOCAL(unsigned int)
jpeg_getc (j_decompress_ptr cinfo)
/* Read next byte */
{
 8000264:	defffd04 	addi	sp,sp,-12
 8000268:	dc000015 	stw	r16,0(sp)
  struct jpeg_source_mgr * datasrc = cinfo->src;
 800026c:	24000517 	ldw	r16,20(r4)
 */

LOCAL(unsigned int)
jpeg_getc (j_decompress_ptr cinfo)
/* Read next byte */
{
 8000270:	dc400115 	stw	r17,4(sp)
 8000274:	dfc00215 	stw	ra,8(sp)
  struct jpeg_source_mgr * datasrc = cinfo->src;

  if (datasrc->bytes_in_buffer == 0) {
 8000278:	80800117 	ldw	r2,4(r16)
 */

LOCAL(unsigned int)
jpeg_getc (j_decompress_ptr cinfo)
/* Read next byte */
{
 800027c:	2023883a 	mov	r17,r4
  struct jpeg_source_mgr * datasrc = cinfo->src;

  if (datasrc->bytes_in_buffer == 0) {
 8000280:	10000b26 	beq	r2,zero,80002b0 <jpeg_getc+0x4c>
    if (! (*datasrc->fill_input_buffer) (cinfo))
      ERREXIT(cinfo, JERR_CANT_SUSPEND);
  }
  datasrc->bytes_in_buffer--;
  return GETJOCTET(*datasrc->next_input_byte++);
 8000284:	80c00017 	ldw	r3,0(r16)

  if (datasrc->bytes_in_buffer == 0) {
    if (! (*datasrc->fill_input_buffer) (cinfo))
      ERREXIT(cinfo, JERR_CANT_SUSPEND);
  }
  datasrc->bytes_in_buffer--;
 8000288:	10bfffc4 	addi	r2,r2,-1
 800028c:	80800115 	stw	r2,4(r16)
  return GETJOCTET(*datasrc->next_input_byte++);
 8000290:	18800003 	ldbu	r2,0(r3)
 8000294:	18c00044 	addi	r3,r3,1
 8000298:	80c00015 	stw	r3,0(r16)
}
 800029c:	dfc00217 	ldw	ra,8(sp)
 80002a0:	dc400117 	ldw	r17,4(sp)
 80002a4:	dc000017 	ldw	r16,0(sp)
 80002a8:	dec00304 	addi	sp,sp,12
 80002ac:	f800283a 	ret
/* Read next byte */
{
  struct jpeg_source_mgr * datasrc = cinfo->src;

  if (datasrc->bytes_in_buffer == 0) {
    if (! (*datasrc->fill_input_buffer) (cinfo))
 80002b0:	80c00317 	ldw	r3,12(r16)
 80002b4:	183ee83a 	callr	r3
      ERREXIT(cinfo, JERR_CANT_SUSPEND);
 80002b8:	8809883a 	mov	r4,r17
/* Read next byte */
{
  struct jpeg_source_mgr * datasrc = cinfo->src;

  if (datasrc->bytes_in_buffer == 0) {
    if (! (*datasrc->fill_input_buffer) (cinfo))
 80002bc:	10000226 	beq	r2,zero,80002c8 <jpeg_getc+0x64>
 80002c0:	80800117 	ldw	r2,4(r16)
 80002c4:	003fef06 	br	8000284 <jpeg_getc+0x20>
      ERREXIT(cinfo, JERR_CANT_SUSPEND);
 80002c8:	88800017 	ldw	r2,0(r17)
 80002cc:	00c00584 	movi	r3,22
 80002d0:	11400017 	ldw	r5,0(r2)
 80002d4:	10c00515 	stw	r3,20(r2)
 80002d8:	283ee83a 	callr	r5
 80002dc:	80800117 	ldw	r2,4(r16)
 80002e0:	003fe806 	br	8000284 <jpeg_getc+0x20>

080002e4 <usage>:


LOCAL(void)
usage (void)
/* complain about bad command line */
{
 80002e4:	defff804 	addi	sp,sp,-32
 80002e8:	dc000015 	stw	r16,0(sp)
  fprintf(stderr, "usage: %s [switches] ", progname);
 80002ec:	040200f4 	movhi	r16,2051
 80002f0:	841f9a04 	addi	r16,r16,32360
 80002f4:	80800017 	ldw	r2,0(r16)
 80002f8:	d1a75a17 	ldw	r6,-25240(gp)
 80002fc:	014200f4 	movhi	r5,2051
 8000300:	294d2404 	addi	r5,r5,13456
 8000304:	11000317 	ldw	r4,12(r2)


LOCAL(void)
usage (void)
/* complain about bad command line */
{
 8000308:	dfc00715 	stw	ra,28(sp)
 800030c:	dd800615 	stw	r22,24(sp)
 8000310:	dd400515 	stw	r21,20(sp)
 8000314:	dd000415 	stw	r20,16(sp)
 8000318:	dcc00315 	stw	r19,12(sp)
 800031c:	dc800215 	stw	r18,8(sp)
 8000320:	dc400115 	stw	r17,4(sp)
  fprintf(stderr, "usage: %s [switches] ", progname);
 8000324:	801fc500 	call	801fc50 <fprintf>
#ifdef TWO_FILE_COMMANDLINE
  fprintf(stderr, "inputfile outputfile\n");
#else
  fprintf(stderr, "[inputfile]\n");
 8000328:	80c00017 	ldw	r3,0(r16)
 800032c:	04800044 	movi	r18,1
 8000330:	010200f4 	movhi	r4,2051
 8000334:	210d2a04 	addi	r4,r4,13480
 8000338:	19c00317 	ldw	r7,12(r3)
 800033c:	900b883a 	mov	r5,r18
 8000340:	01800304 	movi	r6,12
 8000344:	8020af80 	call	8020af8 <fwrite>
#endif

  fprintf(stderr, "Switches (names may be abbreviated):\n");
 8000348:	80c00017 	ldw	r3,0(r16)
 800034c:	010200f4 	movhi	r4,2051
 8000350:	210d2e04 	addi	r4,r4,13496
 8000354:	900b883a 	mov	r5,r18
 8000358:	19c00317 	ldw	r7,12(r3)
 800035c:	01800944 	movi	r6,37
  fprintf(stderr, "  -colors N      Reduce image to no more than N colors\n");
  fprintf(stderr, "  -fast          Fast, low-quality processing\n");
 8000360:	05400b84 	movi	r21,46
  fprintf(stderr, "inputfile outputfile\n");
#else
  fprintf(stderr, "[inputfile]\n");
#endif

  fprintf(stderr, "Switches (names may be abbreviated):\n");
 8000364:	8020af80 	call	8020af8 <fwrite>
  fprintf(stderr, "  -colors N      Reduce image to no more than N colors\n");
 8000368:	80c00017 	ldw	r3,0(r16)
 800036c:	010200f4 	movhi	r4,2051
 8000370:	210d3804 	addi	r4,r4,13536
 8000374:	900b883a 	mov	r5,r18
 8000378:	19c00317 	ldw	r7,12(r3)
 800037c:	01800dc4 	movi	r6,55
  fprintf(stderr, "  -fast          Fast, low-quality processing\n");
  fprintf(stderr, "  -grayscale     Force grayscale output\n");
#ifdef IDCT_SCALING_SUPPORTED
  fprintf(stderr, "  -scale M/N     Scale output image by fraction M/N, eg, 1/8\n");
 8000380:	04c00f44 	movi	r19,61
#else
  fprintf(stderr, "[inputfile]\n");
#endif

  fprintf(stderr, "Switches (names may be abbreviated):\n");
  fprintf(stderr, "  -colors N      Reduce image to no more than N colors\n");
 8000384:	8020af80 	call	8020af8 <fwrite>
  fprintf(stderr, "  -fast          Fast, low-quality processing\n");
 8000388:	80c00017 	ldw	r3,0(r16)
 800038c:	010200f4 	movhi	r4,2051
 8000390:	210d4604 	addi	r4,r4,13592
 8000394:	900b883a 	mov	r5,r18
 8000398:	19c00317 	ldw	r7,12(r3)
 800039c:	a80d883a 	mov	r6,r21
  fprintf(stderr, "  -grayscale     Force grayscale output\n");
#ifdef IDCT_SCALING_SUPPORTED
  fprintf(stderr, "  -scale M/N     Scale output image by fraction M/N, eg, 1/8\n");
#endif
#ifdef BMP_SUPPORTED
  fprintf(stderr, "  -bmp           Select BMP output format (Windows style)%s\n",
 80003a0:	050200f4 	movhi	r20,2051
 80003a4:	a5185204 	addi	r20,r20,24904
  fprintf(stderr, "[inputfile]\n");
#endif

  fprintf(stderr, "Switches (names may be abbreviated):\n");
  fprintf(stderr, "  -colors N      Reduce image to no more than N colors\n");
  fprintf(stderr, "  -fast          Fast, low-quality processing\n");
 80003a8:	8020af80 	call	8020af8 <fwrite>
  fprintf(stderr, "  -grayscale     Force grayscale output\n");
 80003ac:	80c00017 	ldw	r3,0(r16)
 80003b0:	010200f4 	movhi	r4,2051
 80003b4:	210d5204 	addi	r4,r4,13640
 80003b8:	900b883a 	mov	r5,r18
 80003bc:	19c00317 	ldw	r7,12(r3)
 80003c0:	01800a04 	movi	r6,40
#ifdef BMP_SUPPORTED
  fprintf(stderr, "  -os2           Select BMP output format (OS/2 style)%s\n",
	  (DEFAULT_FMT == FMT_OS2 ? " (default)" : ""));
#endif
#ifdef PPM_SUPPORTED
  fprintf(stderr, "  -pnm           Select PBMPLUS (PPM/PGM) output format%s\n",
 80003c4:	058200f4 	movhi	r22,2051
 80003c8:	b58c6c04 	addi	r22,r22,12720
#endif

  fprintf(stderr, "Switches (names may be abbreviated):\n");
  fprintf(stderr, "  -colors N      Reduce image to no more than N colors\n");
  fprintf(stderr, "  -fast          Fast, low-quality processing\n");
  fprintf(stderr, "  -grayscale     Force grayscale output\n");
 80003cc:	8020af80 	call	8020af8 <fwrite>
#ifdef IDCT_SCALING_SUPPORTED
  fprintf(stderr, "  -scale M/N     Scale output image by fraction M/N, eg, 1/8\n");
 80003d0:	80c00017 	ldw	r3,0(r16)
 80003d4:	010200f4 	movhi	r4,2051
 80003d8:	210d5d04 	addi	r4,r4,13684
 80003dc:	900b883a 	mov	r5,r18
 80003e0:	19c00317 	ldw	r7,12(r3)
 80003e4:	980d883a 	mov	r6,r19
  fprintf(stderr, "  -dither none   Don't use dithering in quantization\n");
  fprintf(stderr, "  -dither ordered  Use ordered dither (medium speed, quality)\n");
#ifdef QUANT_2PASS_SUPPORTED
  fprintf(stderr, "  -map FILE      Map to colors used in named image file\n");
#endif
  fprintf(stderr, "  -nosmooth      Don't use high-quality upsampling\n");
 80003e8:	04400cc4 	movi	r17,51
  fprintf(stderr, "Switches (names may be abbreviated):\n");
  fprintf(stderr, "  -colors N      Reduce image to no more than N colors\n");
  fprintf(stderr, "  -fast          Fast, low-quality processing\n");
  fprintf(stderr, "  -grayscale     Force grayscale output\n");
#ifdef IDCT_SCALING_SUPPORTED
  fprintf(stderr, "  -scale M/N     Scale output image by fraction M/N, eg, 1/8\n");
 80003ec:	8020af80 	call	8020af8 <fwrite>
#endif
#ifdef BMP_SUPPORTED
  fprintf(stderr, "  -bmp           Select BMP output format (Windows style)%s\n",
 80003f0:	80c00017 	ldw	r3,0(r16)
 80003f4:	014200f4 	movhi	r5,2051
 80003f8:	294d6d04 	addi	r5,r5,13748
 80003fc:	a00d883a 	mov	r6,r20
 8000400:	19000317 	ldw	r4,12(r3)
 8000404:	801fc500 	call	801fc50 <fprintf>
	  (DEFAULT_FMT == FMT_BMP ? " (default)" : ""));
#endif
#ifdef GIF_SUPPORTED
  fprintf(stderr, "  -gif           Select GIF output format%s\n",
 8000408:	80c00017 	ldw	r3,0(r16)
 800040c:	014200f4 	movhi	r5,2051
 8000410:	294c4204 	addi	r5,r5,12552
 8000414:	a00d883a 	mov	r6,r20
 8000418:	19000317 	ldw	r4,12(r3)
 800041c:	801fc500 	call	801fc50 <fprintf>
	  (DEFAULT_FMT == FMT_GIF ? " (default)" : ""));
#endif
#ifdef BMP_SUPPORTED
  fprintf(stderr, "  -os2           Select BMP output format (OS/2 style)%s\n",
 8000420:	80c00017 	ldw	r3,0(r16)
 8000424:	014200f4 	movhi	r5,2051
 8000428:	294c4e04 	addi	r5,r5,12600
 800042c:	a00d883a 	mov	r6,r20
 8000430:	19000317 	ldw	r4,12(r3)
 8000434:	801fc500 	call	801fc50 <fprintf>
	  (DEFAULT_FMT == FMT_OS2 ? " (default)" : ""));
#endif
#ifdef PPM_SUPPORTED
  fprintf(stderr, "  -pnm           Select PBMPLUS (PPM/PGM) output format%s\n",
 8000438:	80c00017 	ldw	r3,0(r16)
 800043c:	014200f4 	movhi	r5,2051
 8000440:	294c5d04 	addi	r5,r5,12660
 8000444:	b00d883a 	mov	r6,r22
 8000448:	19000317 	ldw	r4,12(r3)
 800044c:	801fc500 	call	801fc50 <fprintf>
#ifdef RLE_SUPPORTED
  fprintf(stderr, "  -rle           Select Utah RLE output format%s\n",
	  (DEFAULT_FMT == FMT_RLE ? " (default)" : ""));
#endif
#ifdef TARGA_SUPPORTED
  fprintf(stderr, "  -targa         Select Targa output format%s\n",
 8000450:	80c00017 	ldw	r3,0(r16)
 8000454:	014200f4 	movhi	r5,2051
 8000458:	294c6f04 	addi	r5,r5,12732
 800045c:	a00d883a 	mov	r6,r20
 8000460:	19000317 	ldw	r4,12(r3)
 8000464:	801fc500 	call	801fc50 <fprintf>
	  (DEFAULT_FMT == FMT_TARGA ? " (default)" : ""));
#endif
  fprintf(stderr, "Switches for advanced users:\n");
 8000468:	80c00017 	ldw	r3,0(r16)
 800046c:	010200f4 	movhi	r4,2051
 8000470:	210c7b04 	addi	r4,r4,12780
 8000474:	900b883a 	mov	r5,r18
 8000478:	19c00317 	ldw	r7,12(r3)
 800047c:	01800744 	movi	r6,29
 8000480:	8020af80 	call	8020af8 <fwrite>
#ifdef DCT_ISLOW_SUPPORTED
  fprintf(stderr, "  -dct int       Use integer DCT method%s\n",
 8000484:	80c00017 	ldw	r3,0(r16)
 8000488:	b00d883a 	mov	r6,r22
 800048c:	014200f4 	movhi	r5,2051
 8000490:	294c8304 	addi	r5,r5,12812
 8000494:	19000317 	ldw	r4,12(r3)
 8000498:	801fc500 	call	801fc50 <fprintf>
	  (JDCT_DEFAULT == JDCT_ISLOW ? " (default)" : ""));
#endif
#ifdef DCT_IFAST_SUPPORTED
  fprintf(stderr, "  -dct fast      Use fast integer DCT (less accurate)%s\n",
 800049c:	80c00017 	ldw	r3,0(r16)
 80004a0:	014200f4 	movhi	r5,2051
 80004a4:	294c8e04 	addi	r5,r5,12856
 80004a8:	a00d883a 	mov	r6,r20
 80004ac:	19000317 	ldw	r4,12(r3)
 80004b0:	801fc500 	call	801fc50 <fprintf>
	  (JDCT_DEFAULT == JDCT_IFAST ? " (default)" : ""));
#endif
#ifdef DCT_FLOAT_SUPPORTED
  fprintf(stderr, "  -dct float     Use floating-point DCT method%s\n",
 80004b4:	80c00017 	ldw	r3,0(r16)
 80004b8:	a00d883a 	mov	r6,r20
 80004bc:	014200f4 	movhi	r5,2051
 80004c0:	294c9d04 	addi	r5,r5,12916
 80004c4:	19000317 	ldw	r4,12(r3)
 80004c8:	801fc500 	call	801fc50 <fprintf>
	  (JDCT_DEFAULT == JDCT_FLOAT ? " (default)" : ""));
#endif
  fprintf(stderr, "  -dither fs     Use F-S dithering (default)\n");
 80004cc:	80c00017 	ldw	r3,0(r16)
 80004d0:	010200f4 	movhi	r4,2051
 80004d4:	210caa04 	addi	r4,r4,12968
 80004d8:	900b883a 	mov	r5,r18
 80004dc:	19c00317 	ldw	r7,12(r3)
 80004e0:	01800b44 	movi	r6,45
 80004e4:	8020af80 	call	8020af8 <fwrite>
  fprintf(stderr, "  -dither none   Don't use dithering in quantization\n");
 80004e8:	80c00017 	ldw	r3,0(r16)
 80004ec:	010200f4 	movhi	r4,2051
 80004f0:	210cb604 	addi	r4,r4,13016
 80004f4:	900b883a 	mov	r5,r18
 80004f8:	19c00317 	ldw	r7,12(r3)
 80004fc:	01800d44 	movi	r6,53
 8000500:	8020af80 	call	8020af8 <fwrite>
  fprintf(stderr, "  -dither ordered  Use ordered dither (medium speed, quality)\n");
 8000504:	80c00017 	ldw	r3,0(r16)
 8000508:	010200f4 	movhi	r4,2051
 800050c:	210cc404 	addi	r4,r4,13072
 8000510:	900b883a 	mov	r5,r18
 8000514:	19c00317 	ldw	r7,12(r3)
 8000518:	01800f84 	movi	r6,62
 800051c:	8020af80 	call	8020af8 <fwrite>
#ifdef QUANT_2PASS_SUPPORTED
  fprintf(stderr, "  -map FILE      Map to colors used in named image file\n");
 8000520:	80c00017 	ldw	r3,0(r16)
 8000524:	010200f4 	movhi	r4,2051
 8000528:	210cd404 	addi	r4,r4,13136
 800052c:	900b883a 	mov	r5,r18
 8000530:	19c00317 	ldw	r7,12(r3)
 8000534:	01800e04 	movi	r6,56
 8000538:	8020af80 	call	8020af8 <fwrite>
#endif
  fprintf(stderr, "  -nosmooth      Don't use high-quality upsampling\n");
 800053c:	80c00017 	ldw	r3,0(r16)
 8000540:	010200f4 	movhi	r4,2051
 8000544:	210ce304 	addi	r4,r4,13196
 8000548:	900b883a 	mov	r5,r18
 800054c:	19c00317 	ldw	r7,12(r3)
 8000550:	880d883a 	mov	r6,r17
 8000554:	8020af80 	call	8020af8 <fwrite>
#ifdef QUANT_1PASS_SUPPORTED
  fprintf(stderr, "  -onepass       Use 1-pass quantization (fast, low quality)\n");
 8000558:	80c00017 	ldw	r3,0(r16)
 800055c:	980d883a 	mov	r6,r19
 8000560:	010200f4 	movhi	r4,2051
 8000564:	210cf004 	addi	r4,r4,13248
 8000568:	19c00317 	ldw	r7,12(r3)
 800056c:	900b883a 	mov	r5,r18
 8000570:	8020af80 	call	8020af8 <fwrite>
#endif
  fprintf(stderr, "  -maxmemory N   Maximum memory to use (in kbytes)\n");
 8000574:	80c00017 	ldw	r3,0(r16)
 8000578:	880d883a 	mov	r6,r17
 800057c:	010200f4 	movhi	r4,2051
 8000580:	210d0004 	addi	r4,r4,13312
 8000584:	19c00317 	ldw	r7,12(r3)
 8000588:	900b883a 	mov	r5,r18
 800058c:	8020af80 	call	8020af8 <fwrite>
  fprintf(stderr, "  -outfile name  Specify name for output file\n");
 8000590:	80c00017 	ldw	r3,0(r16)
 8000594:	a80d883a 	mov	r6,r21
 8000598:	010200f4 	movhi	r4,2051
 800059c:	210d0d04 	addi	r4,r4,13364
 80005a0:	19c00317 	ldw	r7,12(r3)
 80005a4:	900b883a 	mov	r5,r18
 80005a8:	8020af80 	call	8020af8 <fwrite>
  fprintf(stderr, "  -verbose  or  -debug   Emit debug output\n");
 80005ac:	80c00017 	ldw	r3,0(r16)
 80005b0:	010200f4 	movhi	r4,2051
 80005b4:	210d1904 	addi	r4,r4,13412
 80005b8:	900b883a 	mov	r5,r18
 80005bc:	19c00317 	ldw	r7,12(r3)
 80005c0:	01800ac4 	movi	r6,43
 80005c4:	8020af80 	call	8020af8 <fwrite>
  exit(EXIT_FAILURE);
 80005c8:	9009883a 	mov	r4,r18
 80005cc:	801f4c00 	call	801f4c0 <exit>

080005d0 <parse_switches>:
  char * arg;

  /* Set up default JPEG parameters. */
  requested_fmt = DEFAULT_FMT;	/* set default output file format */
  outfilename = NULL;
  cinfo->err->trace_level = 0;
 80005d0:	20c00017 	ldw	r3,0(r4)
 * they have presumably been processed in a previous iteration.
 * (Pass 0 for last_file_arg_seen on the first or only iteration.)
 * for_real is FALSE on the first (dummy) pass; we may skip any expensive
 * processing.
 */
{
 80005d4:	defff404 	addi	sp,sp,-48
 80005d8:	dd400715 	stw	r21,28(sp)
  int argn;
  char * arg;

  /* Set up default JPEG parameters. */
  requested_fmt = DEFAULT_FMT;	/* set default output file format */
 80005dc:	008000c4 	movi	r2,3
 * they have presumably been processed in a previous iteration.
 * (Pass 0 for last_file_arg_seen on the first or only iteration.)
 * for_real is FALSE on the first (dummy) pass; we may skip any expensive
 * processing.
 */
{
 80005e0:	202b883a 	mov	r21,r4
  outfilename = NULL;
  cinfo->err->trace_level = 0;

  /* Scan command line options, adjust parameters */

  for (argn = 1; argn < argc; argn++) {
 80005e4:	01000044 	movi	r4,1
 * they have presumably been processed in a previous iteration.
 * (Pass 0 for last_file_arg_seen on the first or only iteration.)
 * for_real is FALSE on the first (dummy) pass; we may skip any expensive
 * processing.
 */
{
 80005e8:	dd800815 	stw	r22,32(sp)
 80005ec:	dcc00515 	stw	r19,20(sp)
 80005f0:	dfc00b15 	stw	ra,44(sp)
 80005f4:	df000a15 	stw	fp,40(sp)
 80005f8:	ddc00915 	stw	r23,36(sp)
 80005fc:	dd000615 	stw	r20,24(sp)
 8000600:	dc800415 	stw	r18,16(sp)
 8000604:	dc400315 	stw	r17,12(sp)
 8000608:	dc000215 	stw	r16,8(sp)
 800060c:	2827883a 	mov	r19,r5
  int argn;
  char * arg;

  /* Set up default JPEG parameters. */
  requested_fmt = DEFAULT_FMT;	/* set default output file format */
 8000610:	d0a75915 	stw	r2,-25244(gp)
 * they have presumably been processed in a previous iteration.
 * (Pass 0 for last_file_arg_seen on the first or only iteration.)
 * for_real is FALSE on the first (dummy) pass; we may skip any expensive
 * processing.
 */
{
 8000614:	382d883a 	mov	r22,r7
  int argn;
  char * arg;

  /* Set up default JPEG parameters. */
  requested_fmt = DEFAULT_FMT;	/* set default output file format */
  outfilename = NULL;
 8000618:	d0275b15 	stw	zero,-25236(gp)
  cinfo->err->trace_level = 0;
 800061c:	18001a15 	stw	zero,104(r3)

  /* Scan command line options, adjust parameters */

  for (argn = 1; argn < argc; argn++) {
 8000620:	2140670e 	bge	r4,r5,80007c0 <parse_switches+0x1f0>
 8000624:	2025883a 	mov	r18,r4
 8000628:	34400104 	addi	r17,r6,4
 800062c:	00000506 	br	8000644 <parse_switches+0x74>
    arg = argv[argn];
    if (*arg != '-') {
      /* Not a switch, must be a file name argument */
      if (argn <= last_file_arg_seen) {
 8000630:	b4801416 	blt	r22,r18,8000684 <parse_switches+0xb4>
	outfilename = NULL;	/* -outfile applies to just one input file */
 8000634:	d0275b15 	stw	zero,-25236(gp)
  outfilename = NULL;
  cinfo->err->trace_level = 0;

  /* Scan command line options, adjust parameters */

  for (argn = 1; argn < argc; argn++) {
 8000638:	94800044 	addi	r18,r18,1
 800063c:	8c400104 	addi	r17,r17,4
 8000640:	94c0100e 	bge	r18,r19,8000684 <parse_switches+0xb4>
    arg = argv[argn];
 8000644:	89000017 	ldw	r4,0(r17)
    if (*arg != '-') {
 8000648:	00800b44 	movi	r2,45
 800064c:	20c00007 	ldb	r3,0(r4)
 8000650:	18bff71e 	bne	r3,r2,8000630 <parse_switches+0x60>
	outfilename = NULL;	/* -outfile applies to just one input file */
	continue;		/* ignore this name if previously processed */
      }
      break;			/* else done parsing switches */
    }
    arg++;			/* advance past switch marker character */
 8000654:	24000044 	addi	r16,r4,1
 8000658:	05000044 	movi	r20,1

    if (keymatch(arg, "bmp", 1)) {
 800065c:	8009883a 	mov	r4,r16
 8000660:	014200f4 	movhi	r5,2051
 8000664:	294d7d04 	addi	r5,r5,13812
 8000668:	a00d883a 	mov	r6,r20
 800066c:	80001c00 	call	80001c0 <keymatch>
 8000670:	10001126 	beq	r2,zero,80006b8 <parse_switches+0xe8>
  outfilename = NULL;
  cinfo->err->trace_level = 0;

  /* Scan command line options, adjust parameters */

  for (argn = 1; argn < argc; argn++) {
 8000674:	94800044 	addi	r18,r18,1
    }
    arg++;			/* advance past switch marker character */

    if (keymatch(arg, "bmp", 1)) {
      /* BMP output format. */
      requested_fmt = FMT_BMP;
 8000678:	d0275915 	stw	zero,-25244(gp)
  outfilename = NULL;
  cinfo->err->trace_level = 0;

  /* Scan command line options, adjust parameters */

  for (argn = 1; argn < argc; argn++) {
 800067c:	8c400104 	addi	r17,r17,4
 8000680:	94fff016 	blt	r18,r19,8000644 <parse_switches+0x74>
      usage();			/* bogus switch */
    }
  }

  return argn;			/* return index of next arg (file name) */
}
 8000684:	9005883a 	mov	r2,r18
 8000688:	dfc00b17 	ldw	ra,44(sp)
 800068c:	df000a17 	ldw	fp,40(sp)
 8000690:	ddc00917 	ldw	r23,36(sp)
 8000694:	dd800817 	ldw	r22,32(sp)
 8000698:	dd400717 	ldw	r21,28(sp)
 800069c:	dd000617 	ldw	r20,24(sp)
 80006a0:	dcc00517 	ldw	r19,20(sp)
 80006a4:	dc800417 	ldw	r18,16(sp)
 80006a8:	dc400317 	ldw	r17,12(sp)
 80006ac:	dc000217 	ldw	r16,8(sp)
 80006b0:	dec00c04 	addi	sp,sp,48
 80006b4:	f800283a 	ret

    if (keymatch(arg, "bmp", 1)) {
      /* BMP output format. */
      requested_fmt = FMT_BMP;

    } else if (keymatch(arg, "colors", 1) || keymatch(arg, "colours", 1) ||
 80006b8:	8009883a 	mov	r4,r16
 80006bc:	014200f4 	movhi	r5,2051
 80006c0:	29532c04 	addi	r5,r5,19632
 80006c4:	a00d883a 	mov	r6,r20
 80006c8:	80001c00 	call	80001c0 <keymatch>
 80006cc:	10000f26 	beq	r2,zero,800070c <parse_switches+0x13c>
	       keymatch(arg, "quantize", 1) || keymatch(arg, "quantise", 1)) {
      /* Do color quantization. */
      int val;

      if (++argn >= argc)	/* advance to next argument */
 80006d0:	94800044 	addi	r18,r18,1
 80006d4:	8c400104 	addi	r17,r17,4
 80006d8:	04000044 	movi	r16,1
 80006dc:	94c0300e 	bge	r18,r19,80007a0 <parse_switches+0x1d0>
	usage();
      if (sscanf(argv[argn], "%d", &val) != 1)
 80006e0:	89000017 	ldw	r4,0(r17)
 80006e4:	014200f4 	movhi	r5,2051
 80006e8:	29541204 	addi	r5,r5,20552
 80006ec:	d80d883a 	mov	r6,sp
 80006f0:	8021fa80 	call	8021fa8 <sscanf>
 80006f4:	14000126 	beq	r2,r16,80006fc <parse_switches+0x12c>
	usage();
 80006f8:	80002e40 	call	80002e4 <usage>
      cinfo->desired_number_of_colors = val;
      cinfo->quantize_colors = TRUE;
 80006fc:	ac001415 	stw	r16,80(r21)

      if (++argn >= argc)	/* advance to next argument */
	usage();
      if (sscanf(argv[argn], "%d", &val) != 1)
	usage();
      cinfo->desired_number_of_colors = val;
 8000700:	d8800017 	ldw	r2,0(sp)
 8000704:	a8801715 	stw	r2,92(r21)
 8000708:	003fcb06 	br	8000638 <parse_switches+0x68>

    if (keymatch(arg, "bmp", 1)) {
      /* BMP output format. */
      requested_fmt = FMT_BMP;

    } else if (keymatch(arg, "colors", 1) || keymatch(arg, "colours", 1) ||
 800070c:	8009883a 	mov	r4,r16
 8000710:	014200f4 	movhi	r5,2051
 8000714:	294d7e04 	addi	r5,r5,13816
 8000718:	a00d883a 	mov	r6,r20
 800071c:	80001c00 	call	80001c0 <keymatch>
 8000720:	103feb1e 	bne	r2,zero,80006d0 <parse_switches+0x100>
 8000724:	8009883a 	mov	r4,r16
 8000728:	014200f4 	movhi	r5,2051
 800072c:	294d8004 	addi	r5,r5,13824
 8000730:	a00d883a 	mov	r6,r20
 8000734:	80001c00 	call	80001c0 <keymatch>
 8000738:	103fe51e 	bne	r2,zero,80006d0 <parse_switches+0x100>
 800073c:	8009883a 	mov	r4,r16
 8000740:	014200f4 	movhi	r5,2051
 8000744:	294d8304 	addi	r5,r5,13836
 8000748:	a00d883a 	mov	r6,r20
 800074c:	80001c00 	call	80001c0 <keymatch>
 8000750:	103fdf1e 	bne	r2,zero,80006d0 <parse_switches+0x100>
      if (sscanf(argv[argn], "%d", &val) != 1)
	usage();
      cinfo->desired_number_of_colors = val;
      cinfo->quantize_colors = TRUE;

    } else if (keymatch(arg, "dct", 2)) {
 8000754:	05c00084 	movi	r23,2
 8000758:	8009883a 	mov	r4,r16
 800075c:	014200f4 	movhi	r5,2051
 8000760:	294d8604 	addi	r5,r5,13848
 8000764:	b80d883a 	mov	r6,r23
 8000768:	80001c00 	call	80001c0 <keymatch>
 800076c:	10001626 	beq	r2,zero,80007c8 <parse_switches+0x1f8>
      /* Select IDCT algorithm. */
      if (++argn >= argc)	/* advance to next argument */
 8000770:	94800044 	addi	r18,r18,1
 8000774:	8c400104 	addi	r17,r17,4
 8000778:	94c00116 	blt	r18,r19,8000780 <parse_switches+0x1b0>
	usage();
 800077c:	80002e40 	call	80002e4 <usage>
      if (keymatch(argv[argn], "int", 1)) {
 8000780:	89000017 	ldw	r4,0(r17)
 8000784:	014200f4 	movhi	r5,2051
 8000788:	294d8704 	addi	r5,r5,13852
 800078c:	a00d883a 	mov	r6,r20
 8000790:	80001c00 	call	80001c0 <keymatch>
 8000794:	10001d26 	beq	r2,zero,800080c <parse_switches+0x23c>
	cinfo->dct_method = JDCT_ISLOW;
 8000798:	a8001115 	stw	zero,68(r21)
 800079c:	003fa606 	br	8000638 <parse_switches+0x68>
	       keymatch(arg, "quantize", 1) || keymatch(arg, "quantise", 1)) {
      /* Do color quantization. */
      int val;

      if (++argn >= argc)	/* advance to next argument */
	usage();
 80007a0:	80002e40 	call	80002e4 <usage>
      if (sscanf(argv[argn], "%d", &val) != 1)
 80007a4:	89000017 	ldw	r4,0(r17)
 80007a8:	014200f4 	movhi	r5,2051
 80007ac:	29541204 	addi	r5,r5,20552
 80007b0:	d80d883a 	mov	r6,sp
 80007b4:	8021fa80 	call	8021fa8 <sscanf>
 80007b8:	143fcf1e 	bne	r2,r16,80006f8 <parse_switches+0x128>
 80007bc:	003fcf06 	br	80006fc <parse_switches+0x12c>
  outfilename = NULL;
  cinfo->err->trace_level = 0;

  /* Scan command line options, adjust parameters */

  for (argn = 1; argn < argc; argn++) {
 80007c0:	2025883a 	mov	r18,r4
 80007c4:	003faf06 	br	8000684 <parse_switches+0xb4>
      } else if (keymatch(argv[argn], "float", 2)) {
	cinfo->dct_method = JDCT_FLOAT;
      } else
	usage();

    } else if (keymatch(arg, "dither", 2)) {
 80007c8:	8009883a 	mov	r4,r16
 80007cc:	014200f4 	movhi	r5,2051
 80007d0:	294d8c04 	addi	r5,r5,13872
 80007d4:	b80d883a 	mov	r6,r23
 80007d8:	80001c00 	call	80001c0 <keymatch>
 80007dc:	10004d26 	beq	r2,zero,8000914 <parse_switches+0x344>
      /* Select dithering algorithm. */
      if (++argn >= argc)	/* advance to next argument */
 80007e0:	94800044 	addi	r18,r18,1
 80007e4:	8c400104 	addi	r17,r17,4
 80007e8:	94c0480e 	bge	r18,r19,800090c <parse_switches+0x33c>
	usage();
      if (keymatch(argv[argn], "fs", 2)) {
 80007ec:	89000017 	ldw	r4,0(r17)
 80007f0:	014200f4 	movhi	r5,2051
 80007f4:	294d8e04 	addi	r5,r5,13880
 80007f8:	b80d883a 	mov	r6,r23
 80007fc:	80001c00 	call	80001c0 <keymatch>
 8000800:	10000a26 	beq	r2,zero,800082c <parse_switches+0x25c>
	cinfo->dither_mode = JDITHER_FS;
 8000804:	adc01515 	stw	r23,84(r21)
 8000808:	003f8b06 	br	8000638 <parse_switches+0x68>
      /* Select IDCT algorithm. */
      if (++argn >= argc)	/* advance to next argument */
	usage();
      if (keymatch(argv[argn], "int", 1)) {
	cinfo->dct_method = JDCT_ISLOW;
      } else if (keymatch(argv[argn], "fast", 2)) {
 800080c:	89000017 	ldw	r4,0(r17)
 8000810:	014200f4 	movhi	r5,2051
 8000814:	294d8804 	addi	r5,r5,13856
 8000818:	b80d883a 	mov	r6,r23
 800081c:	80001c00 	call	80001c0 <keymatch>
 8000820:	10000a26 	beq	r2,zero,800084c <parse_switches+0x27c>
	cinfo->dct_method = JDCT_IFAST;
 8000824:	ad001115 	stw	r20,68(r21)
 8000828:	003f8306 	br	8000638 <parse_switches+0x68>
      /* Select dithering algorithm. */
      if (++argn >= argc)	/* advance to next argument */
	usage();
      if (keymatch(argv[argn], "fs", 2)) {
	cinfo->dither_mode = JDITHER_FS;
      } else if (keymatch(argv[argn], "none", 2)) {
 800082c:	89000017 	ldw	r4,0(r17)
 8000830:	014200f4 	movhi	r5,2051
 8000834:	294d8f04 	addi	r5,r5,13884
 8000838:	b80d883a 	mov	r6,r23
 800083c:	80001c00 	call	80001c0 <keymatch>
 8000840:	10000a26 	beq	r2,zero,800086c <parse_switches+0x29c>
	cinfo->dither_mode = JDITHER_NONE;
 8000844:	a8001515 	stw	zero,84(r21)
 8000848:	003f7b06 	br	8000638 <parse_switches+0x68>
	usage();
      if (keymatch(argv[argn], "int", 1)) {
	cinfo->dct_method = JDCT_ISLOW;
      } else if (keymatch(argv[argn], "fast", 2)) {
	cinfo->dct_method = JDCT_IFAST;
      } else if (keymatch(argv[argn], "float", 2)) {
 800084c:	89000017 	ldw	r4,0(r17)
 8000850:	014200f4 	movhi	r5,2051
 8000854:	294d8a04 	addi	r5,r5,13864
 8000858:	b80d883a 	mov	r6,r23
 800085c:	80001c00 	call	80001c0 <keymatch>
 8000860:	10002826 	beq	r2,zero,8000904 <parse_switches+0x334>
	cinfo->dct_method = JDCT_FLOAT;
 8000864:	adc01115 	stw	r23,68(r21)
 8000868:	003f7306 	br	8000638 <parse_switches+0x68>
	usage();
      if (keymatch(argv[argn], "fs", 2)) {
	cinfo->dither_mode = JDITHER_FS;
      } else if (keymatch(argv[argn], "none", 2)) {
	cinfo->dither_mode = JDITHER_NONE;
      } else if (keymatch(argv[argn], "ordered", 2)) {
 800086c:	89000017 	ldw	r4,0(r17)
 8000870:	b80d883a 	mov	r6,r23
 8000874:	014200f4 	movhi	r5,2051
 8000878:	294d9104 	addi	r5,r5,13892
 800087c:	80001c00 	call	80001c0 <keymatch>
 8000880:	10002026 	beq	r2,zero,8000904 <parse_switches+0x334>
	cinfo->dither_mode = JDITHER_ORDERED;
 8000884:	ad001515 	stw	r20,84(r21)
 8000888:	003f6b06 	br	8000638 <parse_switches+0x68>
      /* Set output file name. */
      if (++argn >= argc)	/* advance to next argument */
	usage();
      outfilename = argv[argn];	/* save it away for later use */

    } else if (keymatch(arg, "pnm", 1) || keymatch(arg, "ppm", 1)) {
 800088c:	8009883a 	mov	r4,r16
 8000890:	014200f4 	movhi	r5,2051
 8000894:	294dcc04 	addi	r5,r5,14128
 8000898:	a00d883a 	mov	r6,r20
 800089c:	80001c00 	call	80001c0 <keymatch>
 80008a0:	1000d51e 	bne	r2,zero,8000bf8 <parse_switches+0x628>
      /* PPM/PGM output format. */
      requested_fmt = FMT_PPM;

    } else if (keymatch(arg, "rle", 1)) {
 80008a4:	8009883a 	mov	r4,r16
 80008a8:	014200f4 	movhi	r5,2051
 80008ac:	294dcd04 	addi	r5,r5,14132
 80008b0:	a00d883a 	mov	r6,r20
 80008b4:	80001c00 	call	80001c0 <keymatch>
 80008b8:	1000b91e 	bne	r2,zero,8000ba0 <parse_switches+0x5d0>
      /* RLE output format. */
      requested_fmt = FMT_RLE;

    } else if (keymatch(arg, "scale", 1)) {
 80008bc:	8009883a 	mov	r4,r16
 80008c0:	014200f4 	movhi	r5,2051
 80008c4:	294db204 	addi	r5,r5,14024
 80008c8:	a00d883a 	mov	r6,r20
 80008cc:	80001c00 	call	80001c0 <keymatch>
 80008d0:	1000cb26 	beq	r2,zero,8000c00 <parse_switches+0x630>
      /* Scale the output image by a fraction M/N. */
      if (++argn >= argc)	/* advance to next argument */
 80008d4:	94800044 	addi	r18,r18,1
 80008d8:	8c400104 	addi	r17,r17,4
 80008dc:	94c00116 	blt	r18,r19,80008e4 <parse_switches+0x314>
	usage();
 80008e0:	80002e40 	call	80002e4 <usage>
      if (sscanf(argv[argn], "%d/%d",
 80008e4:	89000017 	ldw	r4,0(r17)
 80008e8:	014200f4 	movhi	r5,2051
 80008ec:	294dce04 	addi	r5,r5,14136
 80008f0:	a9800b04 	addi	r6,r21,44
 80008f4:	a9c00c04 	addi	r7,r21,48
 80008f8:	8021fa80 	call	8021fa8 <sscanf>
 80008fc:	00c00084 	movi	r3,2
 8000900:	10ff4d26 	beq	r2,r3,8000638 <parse_switches+0x68>
    } else if (keymatch(arg, "targa", 1)) {
      /* Targa output format. */
      requested_fmt = FMT_TARGA;

    } else {
      usage();			/* bogus switch */
 8000904:	80002e40 	call	80002e4 <usage>
 8000908:	003f4b06 	br	8000638 <parse_switches+0x68>
	usage();

    } else if (keymatch(arg, "dither", 2)) {
      /* Select dithering algorithm. */
      if (++argn >= argc)	/* advance to next argument */
	usage();
 800090c:	80002e40 	call	80002e4 <usage>
 8000910:	003fb606 	br	80007ec <parse_switches+0x21c>
      } else if (keymatch(argv[argn], "ordered", 2)) {
	cinfo->dither_mode = JDITHER_ORDERED;
      } else
	usage();

    } else if (keymatch(arg, "debug", 1) || keymatch(arg, "verbose", 1)) {
 8000914:	8009883a 	mov	r4,r16
 8000918:	014200f4 	movhi	r5,2051
 800091c:	294d9304 	addi	r5,r5,13900
 8000920:	a00d883a 	mov	r6,r20
 8000924:	80001c00 	call	80001c0 <keymatch>
 8000928:	10001326 	beq	r2,zero,8000978 <parse_switches+0x3a8>
      /* Enable debug printouts. */
      /* On first -d, print version identification */
      static boolean printed_version = FALSE;

      if (! printed_version) {
 800092c:	d0a75817 	ldw	r2,-25248(gp)
 8000930:	10000c1e 	bne	r2,zero,8000964 <parse_switches+0x394>
	fprintf(stderr, "Independent JPEG Group's DJPEG, version %s\n%s\n",
 8000934:	008200f4 	movhi	r2,2051
 8000938:	109f9a04 	addi	r2,r2,32360
 800093c:	10c00017 	ldw	r3,0(r2)
 8000940:	014200f4 	movhi	r5,2051
 8000944:	294d9704 	addi	r5,r5,13916
 8000948:	018200f4 	movhi	r6,2051
 800094c:	318da304 	addi	r6,r6,13964
 8000950:	19000317 	ldw	r4,12(r3)
 8000954:	01c200f4 	movhi	r7,2051
 8000958:	39cda704 	addi	r7,r7,13980
 800095c:	801fc500 	call	801fc50 <fprintf>
		JVERSION, JCOPYRIGHT);
	printed_version = TRUE;
 8000960:	d5275815 	stw	r20,-25248(gp)
      }
      cinfo->err->trace_level++;
 8000964:	a8c00017 	ldw	r3,0(r21)
 8000968:	18801a17 	ldw	r2,104(r3)
 800096c:	10800044 	addi	r2,r2,1
 8000970:	18801a15 	stw	r2,104(r3)
 8000974:	003f3006 	br	8000638 <parse_switches+0x68>
      } else if (keymatch(argv[argn], "ordered", 2)) {
	cinfo->dither_mode = JDITHER_ORDERED;
      } else
	usage();

    } else if (keymatch(arg, "debug", 1) || keymatch(arg, "verbose", 1)) {
 8000978:	8009883a 	mov	r4,r16
 800097c:	014200f4 	movhi	r5,2051
 8000980:	294d9504 	addi	r5,r5,13908
 8000984:	a00d883a 	mov	r6,r20
 8000988:	80001c00 	call	80001c0 <keymatch>
 800098c:	103fe71e 	bne	r2,zero,800092c <parse_switches+0x35c>
		JVERSION, JCOPYRIGHT);
	printed_version = TRUE;
      }
      cinfo->err->trace_level++;

    } else if (keymatch(arg, "fast", 1)) {
 8000990:	8009883a 	mov	r4,r16
 8000994:	014200f4 	movhi	r5,2051
 8000998:	294d8804 	addi	r5,r5,13856
 800099c:	a00d883a 	mov	r6,r20
 80009a0:	80001c00 	call	80001c0 <keymatch>
 80009a4:	10000926 	beq	r2,zero,80009cc <parse_switches+0x3fc>
      /* Select recommended processing options for quick-and-dirty output. */
      cinfo->two_pass_quantize = FALSE;
      cinfo->dither_mode = JDITHER_ORDERED;
      if (! cinfo->quantize_colors) /* don't override an earlier -colors */
 80009a8:	a8801417 	ldw	r2,80(r21)
      }
      cinfo->err->trace_level++;

    } else if (keymatch(arg, "fast", 1)) {
      /* Select recommended processing options for quick-and-dirty output. */
      cinfo->two_pass_quantize = FALSE;
 80009ac:	a8001615 	stw	zero,88(r21)
      cinfo->dither_mode = JDITHER_ORDERED;
 80009b0:	ad001515 	stw	r20,84(r21)
      if (! cinfo->quantize_colors) /* don't override an earlier -colors */
 80009b4:	1000021e 	bne	r2,zero,80009c0 <parse_switches+0x3f0>
	cinfo->desired_number_of_colors = 216;
 80009b8:	00803604 	movi	r2,216
 80009bc:	a8801715 	stw	r2,92(r21)
      cinfo->dct_method = JDCT_FASTEST;
 80009c0:	ad001115 	stw	r20,68(r21)
      cinfo->do_fancy_upsampling = FALSE;
 80009c4:	a8001215 	stw	zero,72(r21)
 80009c8:	003f1b06 	br	8000638 <parse_switches+0x68>

    } else if (keymatch(arg, "gif", 1)) {
 80009cc:	8009883a 	mov	r4,r16
 80009d0:	014200f4 	movhi	r5,2051
 80009d4:	294db004 	addi	r5,r5,14016
 80009d8:	a00d883a 	mov	r6,r20
 80009dc:	80001c00 	call	80001c0 <keymatch>
 80009e0:	10000226 	beq	r2,zero,80009ec <parse_switches+0x41c>
      /* GIF output format. */
      requested_fmt = FMT_GIF;
 80009e4:	d5275915 	stw	r20,-25244(gp)
 80009e8:	003f1306 	br	8000638 <parse_switches+0x68>

    } else if (keymatch(arg, "grayscale", 2) || keymatch(arg, "greyscale",2)) {
 80009ec:	8009883a 	mov	r4,r16
 80009f0:	014200f4 	movhi	r5,2051
 80009f4:	294db104 	addi	r5,r5,14020
 80009f8:	b80d883a 	mov	r6,r23
 80009fc:	80001c00 	call	80001c0 <keymatch>
 8000a00:	10000226 	beq	r2,zero,8000a0c <parse_switches+0x43c>
      /* Force monochrome output. */
      cinfo->out_color_space = JCS_GRAYSCALE;
 8000a04:	ad000a15 	stw	r20,40(r21)
 8000a08:	003f0b06 	br	8000638 <parse_switches+0x68>

    } else if (keymatch(arg, "gif", 1)) {
      /* GIF output format. */
      requested_fmt = FMT_GIF;

    } else if (keymatch(arg, "grayscale", 2) || keymatch(arg, "greyscale",2)) {
 8000a0c:	8009883a 	mov	r4,r16
 8000a10:	014200f4 	movhi	r5,2051
 8000a14:	294db404 	addi	r5,r5,14032
 8000a18:	b80d883a 	mov	r6,r23
 8000a1c:	80001c00 	call	80001c0 <keymatch>
 8000a20:	103ff81e 	bne	r2,zero,8000a04 <parse_switches+0x434>
      /* Force monochrome output. */
      cinfo->out_color_space = JCS_GRAYSCALE;

    } else if (keymatch(arg, "map", 3)) {
 8000a24:	070000c4 	movi	fp,3
 8000a28:	8009883a 	mov	r4,r16
 8000a2c:	014200f4 	movhi	r5,2051
 8000a30:	294db704 	addi	r5,r5,14044
 8000a34:	e00d883a 	mov	r6,fp
 8000a38:	80001c00 	call	80001c0 <keymatch>
 8000a3c:	10001326 	beq	r2,zero,8000a8c <parse_switches+0x4bc>
      /* Quantize to a color map taken from an input file. */
      if (++argn >= argc)	/* advance to next argument */
 8000a40:	94800044 	addi	r18,r18,1
 8000a44:	8c400104 	addi	r17,r17,4
 8000a48:	94c00116 	blt	r18,r19,8000a50 <parse_switches+0x480>
	usage();
 8000a4c:	80002e40 	call	80002e4 <usage>
      if (for_real) {		/* too expensive to do twice! */
 8000a50:	d8800c17 	ldw	r2,48(sp)
 8000a54:	103ef826 	beq	r2,zero,8000638 <parse_switches+0x68>
#ifdef QUANT_2PASS_SUPPORTED	/* otherwise can't quantize to supplied map */
	FILE * mapfile;

	if ((mapfile = fopen(argv[argn], READ_BINARY)) == NULL) {
 8000a58:	89000017 	ldw	r4,0(r17)
 8000a5c:	014200f4 	movhi	r5,2051
 8000a60:	294db804 	addi	r5,r5,14048
 8000a64:	801fc340 	call	801fc34 <fopen>
 8000a68:	1021883a 	mov	r16,r2
 8000a6c:	10002e26 	beq	r2,zero,8000b28 <parse_switches+0x558>
	  fprintf(stderr, "%s: can't open %s\n", progname, argv[argn]);
	  exit(EXIT_FAILURE);
	}
	read_color_map(cinfo, mapfile);
 8000a70:	100b883a 	mov	r5,r2
 8000a74:	a809883a 	mov	r4,r21
 8000a78:	801bd6c0 	call	801bd6c <read_color_map>
	fclose(mapfile);
 8000a7c:	8009883a 	mov	r4,r16
 8000a80:	801f6080 	call	801f608 <fclose>
	cinfo->quantize_colors = TRUE;
 8000a84:	ad001415 	stw	r20,80(r21)
 8000a88:	003eeb06 	br	8000638 <parse_switches+0x68>
#else
	ERREXIT(cinfo, JERR_NOT_COMPILED);
#endif
      }

    } else if (keymatch(arg, "maxmemory", 3)) {
 8000a8c:	8009883a 	mov	r4,r16
 8000a90:	014200f4 	movhi	r5,2051
 8000a94:	294dbe04 	addi	r5,r5,14072
 8000a98:	e00d883a 	mov	r6,fp
 8000a9c:	80001c00 	call	80001c0 <keymatch>
 8000aa0:	10001926 	beq	r2,zero,8000b08 <parse_switches+0x538>
      /* Maximum memory in Kb (or Mb with 'm'). */
      long lval;
      char ch = 'x';
 8000aa4:	00801e04 	movi	r2,120

      if (++argn >= argc)	/* advance to next argument */
 8000aa8:	94800044 	addi	r18,r18,1
      }

    } else if (keymatch(arg, "maxmemory", 3)) {
      /* Maximum memory in Kb (or Mb with 'm'). */
      long lval;
      char ch = 'x';
 8000aac:	d8800005 	stb	r2,0(sp)

      if (++argn >= argc)	/* advance to next argument */
 8000ab0:	8c400104 	addi	r17,r17,4
 8000ab4:	94c00116 	blt	r18,r19,8000abc <parse_switches+0x4ec>
	usage();
 8000ab8:	80002e40 	call	80002e4 <usage>
      if (sscanf(argv[argn], "%ld%c", &lval, &ch) < 1)
 8000abc:	89000017 	ldw	r4,0(r17)
 8000ac0:	014200f4 	movhi	r5,2051
 8000ac4:	294dc104 	addi	r5,r5,14084
 8000ac8:	d9800104 	addi	r6,sp,4
 8000acc:	d80f883a 	mov	r7,sp
 8000ad0:	8021fa80 	call	8021fa8 <sscanf>
 8000ad4:	00800116 	blt	zero,r2,8000adc <parse_switches+0x50c>
	usage();
 8000ad8:	80002e40 	call	80002e4 <usage>
      if (ch == 'm' || ch == 'M')
 8000adc:	d8c00007 	ldb	r3,0(sp)
 8000ae0:	00801b44 	movi	r2,109
 8000ae4:	18801b26 	beq	r3,r2,8000b54 <parse_switches+0x584>
 8000ae8:	00801344 	movi	r2,77
 8000aec:	18801926 	beq	r3,r2,8000b54 <parse_switches+0x584>
	lval *= 1000L;
      cinfo->mem->max_memory_to_use = lval * 1000L;
 8000af0:	d9000117 	ldw	r4,4(sp)
 8000af4:	ac000117 	ldw	r16,4(r21)
 8000af8:	0140fa04 	movi	r5,1000
 8000afc:	801ec440 	call	801ec44 <__mulsi3>
 8000b00:	80800b15 	stw	r2,44(r16)
 8000b04:	003ecc06 	br	8000638 <parse_switches+0x68>

    } else if (keymatch(arg, "nosmooth", 3)) {
 8000b08:	8009883a 	mov	r4,r16
 8000b0c:	014200f4 	movhi	r5,2051
 8000b10:	294dc304 	addi	r5,r5,14092
 8000b14:	e00d883a 	mov	r6,fp
 8000b18:	80001c00 	call	80001c0 <keymatch>
 8000b1c:	10001226 	beq	r2,zero,8000b68 <parse_switches+0x598>
      /* Suppress fancy upsampling */
      cinfo->do_fancy_upsampling = FALSE;
 8000b20:	a8001215 	stw	zero,72(r21)
 8000b24:	003ec406 	br	8000638 <parse_switches+0x68>
      if (for_real) {		/* too expensive to do twice! */
#ifdef QUANT_2PASS_SUPPORTED	/* otherwise can't quantize to supplied map */
	FILE * mapfile;

	if ((mapfile = fopen(argv[argn], READ_BINARY)) == NULL) {
	  fprintf(stderr, "%s: can't open %s\n", progname, argv[argn]);
 8000b28:	008200f4 	movhi	r2,2051
 8000b2c:	109f9a04 	addi	r2,r2,32360
 8000b30:	10c00017 	ldw	r3,0(r2)
 8000b34:	89c00017 	ldw	r7,0(r17)
 8000b38:	d1a75a17 	ldw	r6,-25240(gp)
 8000b3c:	19000317 	ldw	r4,12(r3)
 8000b40:	014200f4 	movhi	r5,2051
 8000b44:	294db904 	addi	r5,r5,14052
 8000b48:	801fc500 	call	801fc50 <fprintf>
	  exit(EXIT_FAILURE);
 8000b4c:	a009883a 	mov	r4,r20
 8000b50:	801f4c00 	call	801f4c0 <exit>
      if (++argn >= argc)	/* advance to next argument */
	usage();
      if (sscanf(argv[argn], "%ld%c", &lval, &ch) < 1)
	usage();
      if (ch == 'm' || ch == 'M')
	lval *= 1000L;
 8000b54:	d9000117 	ldw	r4,4(sp)
 8000b58:	0140fa04 	movi	r5,1000
 8000b5c:	801ec440 	call	801ec44 <__mulsi3>
 8000b60:	d8800115 	stw	r2,4(sp)
 8000b64:	003fe206 	br	8000af0 <parse_switches+0x520>

    } else if (keymatch(arg, "nosmooth", 3)) {
      /* Suppress fancy upsampling */
      cinfo->do_fancy_upsampling = FALSE;

    } else if (keymatch(arg, "onepass", 3)) {
 8000b68:	8009883a 	mov	r4,r16
 8000b6c:	014200f4 	movhi	r5,2051
 8000b70:	294dc604 	addi	r5,r5,14104
 8000b74:	e00d883a 	mov	r6,fp
 8000b78:	80001c00 	call	80001c0 <keymatch>
 8000b7c:	10000226 	beq	r2,zero,8000b88 <parse_switches+0x5b8>
      /* Use fast one-pass quantization. */
      cinfo->two_pass_quantize = FALSE;
 8000b80:	a8001615 	stw	zero,88(r21)
 8000b84:	003eac06 	br	8000638 <parse_switches+0x68>

    } else if (keymatch(arg, "os2", 3)) {
 8000b88:	8009883a 	mov	r4,r16
 8000b8c:	014200f4 	movhi	r5,2051
 8000b90:	294dc804 	addi	r5,r5,14112
 8000b94:	e00d883a 	mov	r6,fp
 8000b98:	80001c00 	call	80001c0 <keymatch>
 8000b9c:	10000226 	beq	r2,zero,8000ba8 <parse_switches+0x5d8>
      /* PPM/PGM output format. */
      requested_fmt = FMT_PPM;

    } else if (keymatch(arg, "rle", 1)) {
      /* RLE output format. */
      requested_fmt = FMT_RLE;
 8000ba0:	d5e75915 	stw	r23,-25244(gp)
 8000ba4:	003ea406 	br	8000638 <parse_switches+0x68>

    } else if (keymatch(arg, "os2", 3)) {
      /* BMP output format (OS/2 flavor). */
      requested_fmt = FMT_OS2;

    } else if (keymatch(arg, "outfile", 4)) {
 8000ba8:	05c00104 	movi	r23,4
 8000bac:	8009883a 	mov	r4,r16
 8000bb0:	014200f4 	movhi	r5,2051
 8000bb4:	294dc904 	addi	r5,r5,14116
 8000bb8:	b80d883a 	mov	r6,r23
 8000bbc:	80001c00 	call	80001c0 <keymatch>
 8000bc0:	10000726 	beq	r2,zero,8000be0 <parse_switches+0x610>
      /* Set output file name. */
      if (++argn >= argc)	/* advance to next argument */
 8000bc4:	94800044 	addi	r18,r18,1
 8000bc8:	8de3883a 	add	r17,r17,r23
 8000bcc:	94c00116 	blt	r18,r19,8000bd4 <parse_switches+0x604>
	usage();
 8000bd0:	80002e40 	call	80002e4 <usage>
      outfilename = argv[argn];	/* save it away for later use */
 8000bd4:	88800017 	ldw	r2,0(r17)
 8000bd8:	d0a75b15 	stw	r2,-25236(gp)
 8000bdc:	003e9606 	br	8000638 <parse_switches+0x68>

    } else if (keymatch(arg, "pnm", 1) || keymatch(arg, "ppm", 1)) {
 8000be0:	8009883a 	mov	r4,r16
 8000be4:	014200f4 	movhi	r5,2051
 8000be8:	294dcb04 	addi	r5,r5,14124
 8000bec:	a00d883a 	mov	r6,r20
 8000bf0:	80001c00 	call	80001c0 <keymatch>
 8000bf4:	103f2526 	beq	r2,zero,800088c <parse_switches+0x2bc>
      /* PPM/PGM output format. */
      requested_fmt = FMT_PPM;
 8000bf8:	d7275915 	stw	fp,-25244(gp)
 8000bfc:	003e8e06 	br	8000638 <parse_switches+0x68>
	usage();
      if (sscanf(argv[argn], "%d/%d",
		 &cinfo->scale_num, &cinfo->scale_denom) != 2)
	usage();

    } else if (keymatch(arg, "targa", 1)) {
 8000c00:	8009883a 	mov	r4,r16
 8000c04:	a00d883a 	mov	r6,r20
 8000c08:	014200f4 	movhi	r5,2051
 8000c0c:	294dd004 	addi	r5,r5,14144
 8000c10:	80001c00 	call	80001c0 <keymatch>
 8000c14:	103f3b26 	beq	r2,zero,8000904 <parse_switches+0x334>
      /* Targa output format. */
      requested_fmt = FMT_TARGA;
 8000c18:	00800144 	movi	r2,5
 8000c1c:	d0a75915 	stw	r2,-25244(gp)
 8000c20:	003e8506 	br	8000638 <parse_switches+0x68>

08000c24 <COM_handler>:


METHODDEF(boolean)
COM_handler (j_decompress_ptr cinfo)
{
  boolean traceit = (cinfo->err->trace_level >= 1);
 8000c24:	20800017 	ldw	r2,0(r4)
}


METHODDEF(boolean)
COM_handler (j_decompress_ptr cinfo)
{
 8000c28:	defffb04 	addi	sp,sp,-20
 8000c2c:	dfc00415 	stw	ra,16(sp)
  boolean traceit = (cinfo->err->trace_level >= 1);
 8000c30:	10c01a17 	ldw	r3,104(r2)
}


METHODDEF(boolean)
COM_handler (j_decompress_ptr cinfo)
{
 8000c34:	dc800215 	stw	r18,8(sp)
 8000c38:	dc400115 	stw	r17,4(sp)
 8000c3c:	dc000015 	stw	r16,0(sp)
 8000c40:	2025883a 	mov	r18,r4
  boolean traceit = (cinfo->err->trace_level >= 1);
 8000c44:	1c000048 	cmpgei	r16,r3,1
}


METHODDEF(boolean)
COM_handler (j_decompress_ptr cinfo)
{
 8000c48:	dcc00315 	stw	r19,12(sp)
  boolean traceit = (cinfo->err->trace_level >= 1);
  INT32 length;
  unsigned int ch;
  unsigned int lastch = 0;

  length = jpeg_getc(cinfo) << 8;
 8000c4c:	80002640 	call	8000264 <jpeg_getc>
 8000c50:	1023883a 	mov	r17,r2
  length += jpeg_getc(cinfo);
 8000c54:	8822923a 	slli	r17,r17,8
 8000c58:	9009883a 	mov	r4,r18
 8000c5c:	80002640 	call	8000264 <jpeg_getc>
 8000c60:	1445883a 	add	r2,r2,r17
  length -= 2;			/* discount the length word itself */

  if (traceit)
 8000c64:	8006c03a 	cmpne	r3,r16,zero
  unsigned int ch;
  unsigned int lastch = 0;

  length = jpeg_getc(cinfo) << 8;
  length += jpeg_getc(cinfo);
  length -= 2;			/* discount the length word itself */
 8000c68:	147fff84 	addi	r17,r2,-2

  if (traceit)
 8000c6c:	1800551e 	bne	r3,zero,8000dc4 <COM_handler+0x1a0>
 8000c70:	8027003a 	cmpeq	r19,r16,zero
 8000c74:	0021883a 	mov	r16,zero
    fprintf(stderr, "Comment, length %ld:\n", (long) length);

  while (--length >= 0) {
 8000c78:	8c7fffc4 	addi	r17,r17,-1
 8000c7c:	88001a16 	blt	r17,zero,8000ce8 <COM_handler+0xc4>
    ch = jpeg_getc(cinfo);
 8000c80:	9009883a 	mov	r4,r18
 8000c84:	80002640 	call	8000264 <jpeg_getc>
 8000c88:	1011883a 	mov	r8,r2
    if (traceit) {
 8000c8c:	983ffa1e 	bne	r19,zero,8000c78 <COM_handler+0x54>
      /* Emit the character in a readable form.
       * Nonprintables are converted to \nnn form,
       * while \ is converted to \\.
       * Newlines in CR, CR/LF, or LF form will be printed as one newline.
       */
      if (ch == '\r') {
 8000c90:	00c00344 	movi	r3,13
 8000c94:	10c03026 	beq	r2,r3,8000d58 <COM_handler+0x134>
	fprintf(stderr, "\n");
      } else if (ch == '\n') {
 8000c98:	00800284 	movi	r2,10
 8000c9c:	40802b26 	beq	r8,r2,8000d4c <COM_handler+0x128>
	if (lastch != '\r')
	  fprintf(stderr, "\n");
      } else if (ch == '\\') {
 8000ca0:	00801704 	movi	r2,92
 8000ca4:	40803c26 	beq	r8,r2,8000d98 <COM_handler+0x174>
	fprintf(stderr, "\\\\");
      } else if (isprint(ch)) {
 8000ca8:	008200f4 	movhi	r2,2051
 8000cac:	109f9904 	addi	r2,r2,32356
 8000cb0:	10c00017 	ldw	r3,0(r2)
 8000cb4:	1a07883a 	add	r3,r3,r8
 8000cb8:	18800007 	ldb	r2,0(r3)
 8000cbc:	108025cc 	andi	r2,r2,151
 8000cc0:	10001826 	beq	r2,zero,8000d24 <COM_handler+0x100>
	putc(ch, stderr);
 8000cc4:	008200f4 	movhi	r2,2051
 8000cc8:	109f9a04 	addi	r2,r2,32360
 8000ccc:	10c00017 	ldw	r3,0(r2)
 8000cd0:	4009883a 	mov	r4,r8
  length -= 2;			/* discount the length word itself */

  if (traceit)
    fprintf(stderr, "Comment, length %ld:\n", (long) length);

  while (--length >= 0) {
 8000cd4:	8c7fffc4 	addi	r17,r17,-1
	if (lastch != '\r')
	  fprintf(stderr, "\n");
      } else if (ch == '\\') {
	fprintf(stderr, "\\\\");
      } else if (isprint(ch)) {
	putc(ch, stderr);
 8000cd8:	19400317 	ldw	r5,12(r3)
 8000cdc:	4021883a 	mov	r16,r8
 8000ce0:	80218f40 	call	80218f4 <putc>
  length -= 2;			/* discount the length word itself */

  if (traceit)
    fprintf(stderr, "Comment, length %ld:\n", (long) length);

  while (--length >= 0) {
 8000ce4:	883fe60e 	bge	r17,zero,8000c80 <COM_handler+0x5c>
      }
      lastch = ch;
    }
  }

  if (traceit)
 8000ce8:	9800061e 	bne	r19,zero,8000d04 <COM_handler+0xe0>
    fprintf(stderr, "\n");
 8000cec:	008200f4 	movhi	r2,2051
 8000cf0:	109f9a04 	addi	r2,r2,32360
 8000cf4:	10c00017 	ldw	r3,0(r2)
 8000cf8:	01000284 	movi	r4,10
 8000cfc:	19400317 	ldw	r5,12(r3)
 8000d00:	801fcb00 	call	801fcb0 <fputc>

  return TRUE;
}
 8000d04:	00800044 	movi	r2,1
 8000d08:	dfc00417 	ldw	ra,16(sp)
 8000d0c:	dcc00317 	ldw	r19,12(sp)
 8000d10:	dc800217 	ldw	r18,8(sp)
 8000d14:	dc400117 	ldw	r17,4(sp)
 8000d18:	dc000017 	ldw	r16,0(sp)
 8000d1c:	dec00504 	addi	sp,sp,20
 8000d20:	f800283a 	ret
      } else if (ch == '\\') {
	fprintf(stderr, "\\\\");
      } else if (isprint(ch)) {
	putc(ch, stderr);
      } else {
	fprintf(stderr, "\\%03o", ch);
 8000d24:	008200f4 	movhi	r2,2051
 8000d28:	109f9a04 	addi	r2,r2,32360
 8000d2c:	10c00017 	ldw	r3,0(r2)
 8000d30:	014200f4 	movhi	r5,2051
 8000d34:	294dd904 	addi	r5,r5,14180
 8000d38:	400d883a 	mov	r6,r8
 8000d3c:	19000317 	ldw	r4,12(r3)
 8000d40:	4021883a 	mov	r16,r8
 8000d44:	801fc500 	call	801fc50 <fprintf>
 8000d48:	003fcb06 	br	8000c78 <COM_handler+0x54>
       * Newlines in CR, CR/LF, or LF form will be printed as one newline.
       */
      if (ch == '\r') {
	fprintf(stderr, "\n");
      } else if (ch == '\n') {
	if (lastch != '\r')
 8000d4c:	80c00a1e 	bne	r16,r3,8000d78 <COM_handler+0x154>
 8000d50:	4021883a 	mov	r16,r8
 8000d54:	003fc806 	br	8000c78 <COM_handler+0x54>
       * Nonprintables are converted to \nnn form,
       * while \ is converted to \\.
       * Newlines in CR, CR/LF, or LF form will be printed as one newline.
       */
      if (ch == '\r') {
	fprintf(stderr, "\n");
 8000d58:	008200f4 	movhi	r2,2051
 8000d5c:	109f9a04 	addi	r2,r2,32360
 8000d60:	10c00017 	ldw	r3,0(r2)
 8000d64:	01000284 	movi	r4,10
 8000d68:	4021883a 	mov	r16,r8
 8000d6c:	19400317 	ldw	r5,12(r3)
 8000d70:	801fcb00 	call	801fcb0 <fputc>
 8000d74:	003fc006 	br	8000c78 <COM_handler+0x54>
      } else if (ch == '\n') {
	if (lastch != '\r')
	  fprintf(stderr, "\n");
 8000d78:	008200f4 	movhi	r2,2051
 8000d7c:	109f9a04 	addi	r2,r2,32360
 8000d80:	10c00017 	ldw	r3,0(r2)
 8000d84:	4009883a 	mov	r4,r8
 8000d88:	4021883a 	mov	r16,r8
 8000d8c:	19400317 	ldw	r5,12(r3)
 8000d90:	801fcb00 	call	801fcb0 <fputc>
 8000d94:	003fb806 	br	8000c78 <COM_handler+0x54>
      } else if (ch == '\\') {
	fprintf(stderr, "\\\\");
 8000d98:	008200f4 	movhi	r2,2051
 8000d9c:	109f9a04 	addi	r2,r2,32360
 8000da0:	10c00017 	ldw	r3,0(r2)
 8000da4:	010200f4 	movhi	r4,2051
 8000da8:	210dd804 	addi	r4,r4,14176
 8000dac:	01400044 	movi	r5,1
 8000db0:	19c00317 	ldw	r7,12(r3)
 8000db4:	01800084 	movi	r6,2
 8000db8:	4021883a 	mov	r16,r8
 8000dbc:	8020af80 	call	8020af8 <fwrite>
 8000dc0:	003fad06 	br	8000c78 <COM_handler+0x54>
  length = jpeg_getc(cinfo) << 8;
  length += jpeg_getc(cinfo);
  length -= 2;			/* discount the length word itself */

  if (traceit)
    fprintf(stderr, "Comment, length %ld:\n", (long) length);
 8000dc4:	008200f4 	movhi	r2,2051
 8000dc8:	109f9a04 	addi	r2,r2,32360
 8000dcc:	10c00017 	ldw	r3,0(r2)
 8000dd0:	014200f4 	movhi	r5,2051
 8000dd4:	294dd204 	addi	r5,r5,14152
 8000dd8:	880d883a 	mov	r6,r17
 8000ddc:	19000317 	ldw	r4,12(r3)
 8000de0:	801fc500 	call	801fc50 <fprintf>
 8000de4:	003fa206 	br	8000c70 <COM_handler+0x4c>

08000de8 <capture_cmd_args>:
/*
 * Capture command line args
 * ECE695R: hard-coded input parameters to the program
 */
void capture_cmd_args(int *argc_ptr, char ***argv_ptr)
{
 8000de8:	defffa04 	addi	sp,sp,-24
 8000dec:	dd400415 	stw	r21,16(sp)
    *argc_ptr= 4;
 8000df0:	05400104 	movi	r21,4
 8000df4:	25400015 	stw	r21,0(r4)

    *argv_ptr = malloc(5*sizeof(char *));
 8000df8:	01000504 	movi	r4,20
/*
 * Capture command line args
 * ECE695R: hard-coded input parameters to the program
 */
void capture_cmd_args(int *argc_ptr, char ***argv_ptr)
{
 8000dfc:	dfc00515 	stw	ra,20(sp)
 8000e00:	dd000315 	stw	r20,12(sp)
 8000e04:	dcc00215 	stw	r19,8(sp)
 8000e08:	dc400115 	stw	r17,4(sp)
 8000e0c:	2827883a 	mov	r19,r5
 8000e10:	dc000015 	stw	r16,0(sp)
    *argc_ptr= 4;

    *argv_ptr = malloc(5*sizeof(char *));
 8000e14:	8020f780 	call	8020f78 <malloc>
 8000e18:	98800015 	stw	r2,0(r19)
    (*argv_ptr)[0] = strdup("djpeg");
 8000e1c:	010200f4 	movhi	r4,2051
 8000e20:	210ddb04 	addi	r4,r4,14188
 */
void capture_cmd_args(int *argc_ptr, char ***argv_ptr)
{
    *argc_ptr= 4;

    *argv_ptr = malloc(5*sizeof(char *));
 8000e24:	1029883a 	mov	r20,r2
    (*argv_ptr)[0] = strdup("djpeg");
 8000e28:	80221780 	call	8022178 <strdup>
    (*argv_ptr)[1] = strdup("-outfile");
 8000e2c:	9c000017 	ldw	r16,0(r19)
 8000e30:	010200f4 	movhi	r4,2051
 8000e34:	210ddd04 	addi	r4,r4,14196
void capture_cmd_args(int *argc_ptr, char ***argv_ptr)
{
    *argc_ptr= 4;

    *argv_ptr = malloc(5*sizeof(char *));
    (*argv_ptr)[0] = strdup("djpeg");
 8000e38:	a0800015 	stw	r2,0(r20)
    (*argv_ptr)[1] = strdup("-outfile");
 8000e3c:	8561883a 	add	r16,r16,r21
 8000e40:	80221780 	call	8022178 <strdup>
    (*argv_ptr)[3] = malloc(100);
 8000e44:	9c400017 	ldw	r17,0(r19)
{
    *argc_ptr= 4;

    *argv_ptr = malloc(5*sizeof(char *));
    (*argv_ptr)[0] = strdup("djpeg");
    (*argv_ptr)[1] = strdup("-outfile");
 8000e48:	80800015 	stw	r2,0(r16)
    (*argv_ptr)[3] = malloc(100);
 8000e4c:	01001904 	movi	r4,100
 8000e50:	8020f780 	call	8020f78 <malloc>
    sprintf((*argv_ptr)[3], "/mnt/rozipfs/input_small.jpg"); // change the input filename if you'd like to
 8000e54:	98c00017 	ldw	r3,0(r19)
    *argc_ptr= 4;

    *argv_ptr = malloc(5*sizeof(char *));
    (*argv_ptr)[0] = strdup("djpeg");
    (*argv_ptr)[1] = strdup("-outfile");
    (*argv_ptr)[3] = malloc(100);
 8000e58:	8c400304 	addi	r17,r17,12
 8000e5c:	88800015 	stw	r2,0(r17)
    sprintf((*argv_ptr)[3], "/mnt/rozipfs/input_small.jpg"); // change the input filename if you'd like to
 8000e60:	19000317 	ldw	r4,12(r3)
 8000e64:	014200f4 	movhi	r5,2051
 8000e68:	294de004 	addi	r5,r5,14208
 8000e6c:	01800744 	movi	r6,29
 8000e70:	80216cc0 	call	80216cc <memcpy>
    (*argv_ptr)[2] = NULL ;
 8000e74:	98c00017 	ldw	r3,0(r19)
    (*argv_ptr)[4] = NULL;
 8000e78:	18000415 	stw	zero,16(r3)
    *argv_ptr = malloc(5*sizeof(char *));
    (*argv_ptr)[0] = strdup("djpeg");
    (*argv_ptr)[1] = strdup("-outfile");
    (*argv_ptr)[3] = malloc(100);
    sprintf((*argv_ptr)[3], "/mnt/rozipfs/input_small.jpg"); // change the input filename if you'd like to
    (*argv_ptr)[2] = NULL ;
 8000e7c:	18000215 	stw	zero,8(r3)
    (*argv_ptr)[4] = NULL;
    
    return;
}
 8000e80:	dfc00517 	ldw	ra,20(sp)
 8000e84:	dd400417 	ldw	r21,16(sp)
 8000e88:	dd000317 	ldw	r20,12(sp)
 8000e8c:	dcc00217 	ldw	r19,8(sp)
 8000e90:	dc400117 	ldw	r17,4(sp)
 8000e94:	dc000017 	ldw	r16,0(sp)
 8000e98:	dec00604 	addi	sp,sp,24
 8000e9c:	f800283a 	ret

08000ea0 <main>:
 * The main program.
 */

int
main (int argc, char **argv)
{
 8000ea0:	deff6104 	addi	sp,sp,-636
 8000ea4:	d9009615 	stw	r4,600(sp)
 8000ea8:	d9409715 	stw	r5,604(sp)
  /* On Mac, fetch a command line. */
#ifdef USE_CCOMMAND
  argc = ccommand(&argv);
#endif

  capture_cmd_args(&argc, &argv);
 8000eac:	d9009604 	addi	r4,sp,600
 8000eb0:	d9409704 	addi	r5,sp,604
 * The main program.
 */

int
main (int argc, char **argv)
{
 8000eb4:	dfc09e15 	stw	ra,632(sp)
 8000eb8:	dd409d15 	stw	r21,628(sp)
 8000ebc:	dd009c15 	stw	r20,624(sp)
 8000ec0:	dcc09b15 	stw	r19,620(sp)
 8000ec4:	dc809a15 	stw	r18,616(sp)
 8000ec8:	dc409915 	stw	r17,612(sp)
 8000ecc:	dc009815 	stw	r16,608(sp)
  /* On Mac, fetch a command line. */
#ifdef USE_CCOMMAND
  argc = ccommand(&argv);
#endif

  capture_cmd_args(&argc, &argv);
 8000ed0:	8000de80 	call	8000de8 <capture_cmd_args>

  printf("Input file name = %s\n", argv[3]);
 8000ed4:	d8809717 	ldw	r2,604(sp)
 8000ed8:	010200f4 	movhi	r4,2051
 8000edc:	210de804 	addi	r4,r4,14240
 8000ee0:	11400317 	ldw	r5,12(r2)
 8000ee4:	802187c0 	call	802187c <printf>
   
  progname = argv[0];
 8000ee8:	d8c09717 	ldw	r3,604(sp)
 8000eec:	18c00017 	ldw	r3,0(r3)
 8000ef0:	d0e75a15 	stw	r3,-25240(gp)
  if (progname == NULL || progname[0] == 0)
 8000ef4:	18009c26 	beq	r3,zero,8001168 <main+0x2c8>
 8000ef8:	18800007 	ldb	r2,0(r3)
 8000efc:	10009a26 	beq	r2,zero,8001168 <main+0x2c8>
    progname = "djpeg";		/* in case C library doesn't provide it */

  /* Initialize the JPEG decompression object with default error handling. */
  cinfo.err = jpeg_std_error(&jerr);
 8000f00:	d9000304 	addi	r4,sp,12
 8000f04:	80150140 	call	8015014 <jpeg_std_error>
  jpeg_create_decompress(&cinfo);
 8000f08:	dcc02404 	addi	r19,sp,144
 8000f0c:	9809883a 	mov	r4,r19
 8000f10:	01400f44 	movi	r5,61
 8000f14:	01807204 	movi	r6,456
  progname = argv[0];
  if (progname == NULL || progname[0] == 0)
    progname = "djpeg";		/* in case C library doesn't provide it */

  /* Initialize the JPEG decompression object with default error handling. */
  cinfo.err = jpeg_std_error(&jerr);
 8000f18:	d8802415 	stw	r2,144(sp)
  jpeg_create_decompress(&cinfo);
 8000f1c:	800b4380 	call	800b438 <jpeg_CreateDecompress>
  /* Add some application-specific error messages (from cderror.h) */
  jerr.addon_message_table = cdjpeg_message_table;
 8000f20:	008200f4 	movhi	r2,2051
 8000f24:	108f7104 	addi	r2,r2,15812
  jerr.first_addon_message = JMSG_FIRSTADDONCODE;
 8000f28:	00c0fa04 	movi	r3,1000
  jerr.last_addon_message = JMSG_LASTADDONCODE;
  /* Insert custom COM marker processor. */
  jpeg_set_marker_processor(&cinfo, JPEG_COM, COM_handler);
 8000f2c:	9809883a 	mov	r4,r19
 8000f30:	01403f84 	movi	r5,254
 8000f34:	01820034 	movhi	r6,2048
 8000f38:	31830904 	addi	r6,r6,3108

  /* Initialize the JPEG decompression object with default error handling. */
  cinfo.err = jpeg_std_error(&jerr);
  jpeg_create_decompress(&cinfo);
  /* Add some application-specific error messages (from cderror.h) */
  jerr.addon_message_table = cdjpeg_message_table;
 8000f3c:	d8802115 	stw	r2,132(sp)
  jerr.first_addon_message = JMSG_FIRSTADDONCODE;
  jerr.last_addon_message = JMSG_LASTADDONCODE;
 8000f40:	008104c4 	movi	r2,1043
  /* Initialize the JPEG decompression object with default error handling. */
  cinfo.err = jpeg_std_error(&jerr);
  jpeg_create_decompress(&cinfo);
  /* Add some application-specific error messages (from cderror.h) */
  jerr.addon_message_table = cdjpeg_message_table;
  jerr.first_addon_message = JMSG_FIRSTADDONCODE;
 8000f44:	d8c02215 	stw	r3,136(sp)
  jerr.last_addon_message = JMSG_LASTADDONCODE;
 8000f48:	d8802315 	stw	r2,140(sp)
  /* Insert custom COM marker processor. */
  jpeg_set_marker_processor(&cinfo, JPEG_COM, COM_handler);
 8000f4c:	800ae680 	call	800ae68 <jpeg_set_marker_processor>
   * the input file.
   * (Exception: tracing level set here controls verbosity for COM markers
   * found during jpeg_read_header...)
   */

  file_index = parse_switches(&cinfo, argc, argv, 0, FALSE);
 8000f50:	d9409617 	ldw	r5,600(sp)
 8000f54:	d9809717 	ldw	r6,604(sp)
 8000f58:	9809883a 	mov	r4,r19
 8000f5c:	000f883a 	mov	r7,zero
 8000f60:	d8000015 	stw	zero,0(sp)
 8000f64:	80005d00 	call	80005d0 <parse_switches>
      usage();
    }
  }
#else
  /* Unix style: expect zero or one file name */
  if (file_index < argc-1) {
 8000f68:	d8c09617 	ldw	r3,600(sp)
   * the input file.
   * (Exception: tracing level set here controls verbosity for COM markers
   * found during jpeg_read_header...)
   */

  file_index = parse_switches(&cinfo, argc, argv, 0, FALSE);
 8000f6c:	1021883a 	mov	r16,r2
      usage();
    }
  }
#else
  /* Unix style: expect zero or one file name */
  if (file_index < argc-1) {
 8000f70:	18bfffc4 	addi	r2,r3,-1
 8000f74:	80808d16 	blt	r16,r2,80011ac <main+0x30c>
 8000f78:	054200f4 	movhi	r21,2051
 8000f7c:	ad5f9a04 	addi	r21,r21,32360
    usage();
  }
#endif /* TWO_FILE_COMMANDLINE */

  /* Open the input file. */
  if (file_index < argc) {
 8000f80:	80c0ab0e 	bge	r16,r3,8001230 <main+0x390>
    if ((input_file = fopen(argv[file_index], READ_BINARY)) == NULL) {
 8000f84:	d8809717 	ldw	r2,604(sp)
 8000f88:	8407883a 	add	r3,r16,r16
 8000f8c:	18e1883a 	add	r16,r3,r3
 8000f90:	8085883a 	add	r2,r16,r2
 8000f94:	11000017 	ldw	r4,0(r2)
 8000f98:	014200f4 	movhi	r5,2051
 8000f9c:	294db804 	addi	r5,r5,14048
 8000fa0:	801fc340 	call	801fc34 <fopen>
 8000fa4:	1029883a 	mov	r20,r2
 8000fa8:	1000a426 	beq	r2,zero,800123c <main+0x39c>
#ifdef PROGRESS_REPORT
  start_progress_monitor((j_common_ptr) &cinfo, &progress);
#endif

  /* Specify data source for decompression */
  jpeg_stdio_src(&cinfo, input_file);
 8000fac:	9809883a 	mov	r4,r19
 8000fb0:	a00b883a 	mov	r5,r20

  /* Read file header, set default decompression parameters */
  (void) jpeg_read_header(&cinfo, TRUE);
 8000fb4:	04000044 	movi	r16,1
#ifdef PROGRESS_REPORT
  start_progress_monitor((j_common_ptr) &cinfo, &progress);
#endif

  /* Specify data source for decompression */
  jpeg_stdio_src(&cinfo, input_file);
 8000fb8:	800bd540 	call	800bd54 <jpeg_stdio_src>

  /* Read file header, set default decompression parameters */
  (void) jpeg_read_header(&cinfo, TRUE);
 8000fbc:	9809883a 	mov	r4,r19
 8000fc0:	800b883a 	mov	r5,r16
 8000fc4:	800b3700 	call	800b370 <jpeg_read_header>

  /* Adjust default decompression parameters by re-parsing the options */
  file_index = parse_switches(&cinfo, argc, argv, 0, TRUE);
 8000fc8:	d9409617 	ldw	r5,600(sp)
 8000fcc:	d9809717 	ldw	r6,604(sp)
 8000fd0:	9809883a 	mov	r4,r19
 8000fd4:	000f883a 	mov	r7,zero
 8000fd8:	dc000015 	stw	r16,0(sp)
 8000fdc:	80005d00 	call	80005d0 <parse_switches>

  /* Initialize the output module now to let it override any crucial
   * option settings (for instance, GIF wants to force color quantization).
   */
  switch (requested_fmt) {
 8000fe0:	d0e75917 	ldw	r3,-25244(gp)
 8000fe4:	00800144 	movi	r2,5
 8000fe8:	10c0632e 	bgeu	r2,r3,8001178 <main+0x2d8>
  case FMT_TARGA:
    dest_mgr = jinit_write_targa(&cinfo);
    break;
#endif
  default:
    ERREXIT(&cinfo, JERR_UNSUPPORTED_FORMAT);
 8000fec:	d8802417 	ldw	r2,144(sp)
 8000ff0:	00c10484 	movi	r3,1042
 8000ff4:	9809883a 	mov	r4,r19
 8000ff8:	11400017 	ldw	r5,0(r2)
 8000ffc:	10c00515 	stw	r3,20(r2)
 8001000:	0025883a 	mov	r18,zero
 8001004:	283ee83a 	callr	r5
    break;
  }
  dest_mgr->output_file = output_file;
 8001008:	94000315 	stw	r16,12(r18)

  // ECE695R: clear the VGA monitor screen
  alt_up_pixel_buffer_dma_dev *pb = alt_up_pixel_buffer_dma_open_dev(VIDEO_PIXEL_BUFFER_DMA_0_NAME);
 800100c:	010200f4 	movhi	r4,2051
 8001010:	210df504 	addi	r4,r4,14292
 8001014:	8031b640 	call	8031b64 <alt_up_pixel_buffer_dma_open_dev>
 8001018:	1021883a 	mov	r16,r2
  alt_up_pixel_buffer_dma_clear_screen(pb, 1);
 800101c:	1009883a 	mov	r4,r2
 8001020:	01400044 	movi	r5,1
 8001024:	803194c0 	call	803194c <alt_up_pixel_buffer_dma_clear_screen>
  //alt_up_pixel_buffer_dma_draw_box(pb,0,0,350,350,/*color=*/10,1);
  alt_up_pixel_buffer_dma_swap_buffers(pb);
 8001028:	8009883a 	mov	r4,r16
 800102c:	8031a140 	call	8031a14 <alt_up_pixel_buffer_dma_swap_buffers>
  while(alt_up_pixel_buffer_dma_check_swap_buffers_status(pb))
 8001030:	8009883a 	mov	r4,r16
 8001034:	8031b2c0 	call	8031b2c <alt_up_pixel_buffer_dma_check_swap_buffers_status>
 8001038:	103ffd1e 	bne	r2,zero,8001030 <main+0x190>
	  ;

#if USE_PERFORMANCE_COUNTER // ECE695R: time measurement
  PERF_RESET(alt_get_performance_counter_base());  
 800103c:	80307840 	call	8030784 <alt_get_performance_counter_base>
 8001040:	00c00044 	movi	r3,1
 8001044:	10c00035 	stwio	r3,0(r2)
  PERF_START_MEASURING(alt_get_performance_counter_base());
 8001048:	80307840 	call	8030784 <alt_get_performance_counter_base>
 800104c:	10000135 	stwio	zero,4(r2)
#endif

  /* Start decompressor */
  (void) jpeg_start_decompress(&cinfo);
 8001050:	9809883a 	mov	r4,r19
 8001054:	800ba100 	call	800ba10 <jpeg_start_decompress>
#if 0 // ECE695R: no output file
  /* Write output file header */
  (*dest_mgr->start_output) (&cinfo, dest_mgr);
#endif
   
  printf("Starting decompression....\n");
 8001058:	010200f4 	movhi	r4,2051
 800105c:	210dfd04 	addi	r4,r4,14324
 8001060:	8021b800 	call	8021b80 <puts>
   
  /* Process data */
  while (cinfo.output_scanline < cinfo.output_height) {
 8001064:	d8c04617 	ldw	r3,280(sp)
 8001068:	d8804017 	ldw	r2,256(sp)
 800106c:	1880112e 	bgeu	r3,r2,80010b4 <main+0x214>
#if USE_PERFORMANCE_COUNTER
    //PERF_BEGIN(alt_get_performance_counter_base(), 1); // ECE695R: time measurement
#endif
    num_scanlines = jpeg_read_scanlines(&cinfo, dest_mgr->buffer,
 8001070:	91400417 	ldw	r5,16(r18)
 8001074:	91800517 	ldw	r6,20(r18)
 8001078:	9809883a 	mov	r4,r19
 800107c:	800b6480 	call	800b648 <jpeg_read_scanlines>
 8001080:	1023883a 	mov	r17,r2
#if USE_PERFORMANCE_COUNTER
    //PERF_END(alt_get_performance_counter_base(), 1); // ECE695R: time measurement
#endif
    
#if USE_PERFORMANCE_COUNTER
    PERF_BEGIN(alt_get_performance_counter_base(), 1); // ECE695R: time measurement
 8001084:	80307840 	call	8030784 <alt_get_performance_counter_base>
 8001088:	10000535 	stwio	zero,20(r2)
#endif
    (*dest_mgr->put_pixel_rows) (&cinfo, dest_mgr, num_scanlines);
 800108c:	90800117 	ldw	r2,4(r18)
 8001090:	880d883a 	mov	r6,r17
 8001094:	9809883a 	mov	r4,r19
 8001098:	900b883a 	mov	r5,r18
 800109c:	103ee83a 	callr	r2
#if USE_PERFORMANCE_COUNTER
    PERF_END(alt_get_performance_counter_base(), 1); // ECE695R: time measurement
 80010a0:	80307840 	call	8030784 <alt_get_performance_counter_base>
 80010a4:	10000435 	stwio	zero,16(r2)
#endif
   
  printf("Starting decompression....\n");
   
  /* Process data */
  while (cinfo.output_scanline < cinfo.output_height) {
 80010a8:	d8c04617 	ldw	r3,280(sp)
 80010ac:	d8804017 	ldw	r2,256(sp)
 80010b0:	18bfef36 	bltu	r3,r2,8001070 <main+0x1d0>
#if USE_PERFORMANCE_COUNTER
    PERF_END(alt_get_performance_counter_base(), 1); // ECE695R: time measurement
#endif
  }
   
  printf("Decompression complete!\n");
 80010b4:	010200f4 	movhi	r4,2051
 80010b8:	210e0404 	addi	r4,r4,14352
 80010bc:	8021b800 	call	8021b80 <puts>
  /* Finish decompression and release memory.
   * I must do it in this order because output module has allocated memory
   * of lifespan JPOOL_IMAGE; it needs to finish before releasing memory.
   */

  (*dest_mgr->finish_output) (&cinfo, dest_mgr);
 80010c0:	90c00217 	ldw	r3,8(r18)
 80010c4:	900b883a 	mov	r5,r18
 80010c8:	9809883a 	mov	r4,r19
 80010cc:	183ee83a 	callr	r3
  (void) jpeg_finish_decompress(&cinfo);
 80010d0:	9809883a 	mov	r4,r19
 80010d4:	800b2700 	call	800b270 <jpeg_finish_decompress>
  jpeg_destroy_decompress(&cinfo);
 80010d8:	9809883a 	mov	r4,r19
 80010dc:	800b4340 	call	800b434 <jpeg_destroy_decompress>

  /* Close files, if we opened them */
  if (input_file != stdin)
 80010e0:	a8800017 	ldw	r2,0(r21)
 80010e4:	10c00117 	ldw	r3,4(r2)
 80010e8:	a0c00226 	beq	r20,r3,80010f4 <main+0x254>
    fclose(input_file);
 80010ec:	a009883a 	mov	r4,r20
 80010f0:	801f6080 	call	801f608 <fclose>
  if (output_file != stdout)
    fclose(output_file);
#endif

#if USE_PERFORMANCE_COUNTER
  PERF_STOP_MEASURING(alt_get_performance_counter_base()); // ECE695R: time measurement
 80010f4:	80307840 	call	8030784 <alt_get_performance_counter_base>
 80010f8:	10000035 	stwio	zero,0(r2)
  perf_print_formatted_report(alt_get_performance_counter_base(), alt_get_cpu_freq(), 4, "put_pixel_rows","h2v2_fancy_upsample","ycc_rgb_convert","jpeg_idct_islow");
 80010fc:	80307840 	call	8030784 <alt_get_performance_counter_base>
 8001100:	1023883a 	mov	r17,r2
 8001104:	80307900 	call	8030790 <alt_get_cpu_freq>
 8001108:	100b883a 	mov	r5,r2
 800110c:	008200f4 	movhi	r2,2051
 8001110:	108e0e04 	addi	r2,r2,14392
 8001114:	00c200f4 	movhi	r3,2051
 8001118:	18ce1304 	addi	r3,r3,14412
 800111c:	8809883a 	mov	r4,r17
 8001120:	01800104 	movi	r6,4
 8001124:	01c200f4 	movhi	r7,2051
 8001128:	39ce0a04 	addi	r7,r7,14376
 800112c:	d8800015 	stw	r2,0(sp)
 8001130:	008200f4 	movhi	r2,2051
 8001134:	108e1704 	addi	r2,r2,14428
 8001138:	d8c00115 	stw	r3,4(sp)
 800113c:	d8800215 	stw	r2,8(sp)
 8001140:	8031e8c0 	call	8031e8c <perf_print_formatted_report>
#endif

  fflush(stdout);
 8001144:	00c200f4 	movhi	r3,2051
 8001148:	18df9a04 	addi	r3,r3,32360
 800114c:	18800017 	ldw	r2,0(r3)
 8001150:	11000217 	ldw	r4,8(r2)
 8001154:	801f8180 	call	801f818 <fflush>
#ifdef PROGRESS_REPORT
  end_progress_monitor((j_common_ptr) &cinfo);
#endif

  /* All done. */
  exit(jerr.num_warnings ? EXIT_WARNING : EXIT_SUCCESS);
 8001158:	d9001e17 	ldw	r4,120(sp)
 800115c:	2008c03a 	cmpne	r4,r4,zero
 8001160:	2109883a 	add	r4,r4,r4
 8001164:	801f4c00 	call	801f4c0 <exit>

  printf("Input file name = %s\n", argv[3]);
   
  progname = argv[0];
  if (progname == NULL || progname[0] == 0)
    progname = "djpeg";		/* in case C library doesn't provide it */
 8001168:	008200f4 	movhi	r2,2051
 800116c:	108ddb04 	addi	r2,r2,14188
 8001170:	d0a75a15 	stw	r2,-25240(gp)
 8001174:	003f6206 	br	8000f00 <main+0x60>
  file_index = parse_switches(&cinfo, argc, argv, 0, TRUE);

  /* Initialize the output module now to let it override any crucial
   * option settings (for instance, GIF wants to force color quantization).
   */
  switch (requested_fmt) {
 8001178:	18c5883a 	add	r2,r3,r3
 800117c:	1085883a 	add	r2,r2,r2
 8001180:	00c20034 	movhi	r3,2048
 8001184:	18c46504 	addi	r3,r3,4500
 8001188:	10c5883a 	add	r2,r2,r3
 800118c:	11000017 	ldw	r4,0(r2)
 8001190:	2000683a 	jmp	r4
 8001194:	080011d8 	cmpnei	zero,at,71
 8001198:	080011ec 	andhi	zero,at,71
 800119c:	080011fc 	xorhi	zero,at,71
 80011a0:	08001210 	cmplti	zero,at,72
 80011a4:	08000fec 	andhi	zero,at,63
 80011a8:	08001220 	cmpeqi	zero,at,72
    }
  }
#else
  /* Unix style: expect zero or one file name */
  if (file_index < argc-1) {
    fprintf(stderr, "%s: only one input file\n", progname);
 80011ac:	054200f4 	movhi	r21,2051
 80011b0:	ad5f9a04 	addi	r21,r21,32360
 80011b4:	a8800017 	ldw	r2,0(r21)
 80011b8:	d1a75a17 	ldw	r6,-25240(gp)
 80011bc:	014200f4 	movhi	r5,2051
 80011c0:	294dee04 	addi	r5,r5,14264
 80011c4:	11000317 	ldw	r4,12(r2)
 80011c8:	801fc500 	call	801fc50 <fprintf>
    usage();
 80011cc:	80002e40 	call	80002e4 <usage>
 80011d0:	d8c09617 	ldw	r3,600(sp)
 80011d4:	003f6a06 	br	8000f80 <main+0xe0>
   * option settings (for instance, GIF wants to force color quantization).
   */
  switch (requested_fmt) {
#ifdef BMP_SUPPORTED
  case FMT_BMP:
    dest_mgr = jinit_write_bmp(&cinfo, FALSE);
 80011d8:	9809883a 	mov	r4,r19
 80011dc:	000b883a 	mov	r5,zero
 80011e0:	801c2c40 	call	801c2c4 <jinit_write_bmp>
 80011e4:	1025883a 	mov	r18,r2
 80011e8:	003f8706 	br	8001008 <main+0x168>
    dest_mgr = jinit_write_bmp(&cinfo, TRUE);
    break;
#endif
#ifdef GIF_SUPPORTED
  case FMT_GIF:
    dest_mgr = jinit_write_gif(&cinfo);
 80011ec:	9809883a 	mov	r4,r19
 80011f0:	801cb480 	call	801cb48 <jinit_write_gif>
 80011f4:	1025883a 	mov	r18,r2
 80011f8:	003f8306 	br	8001008 <main+0x168>
#ifdef BMP_SUPPORTED
  case FMT_BMP:
    dest_mgr = jinit_write_bmp(&cinfo, FALSE);
    break;
  case FMT_OS2:
    dest_mgr = jinit_write_bmp(&cinfo, TRUE);
 80011fc:	9809883a 	mov	r4,r19
 8001200:	01400044 	movi	r5,1
 8001204:	801c2c40 	call	801c2c4 <jinit_write_bmp>
 8001208:	1025883a 	mov	r18,r2
 800120c:	003f7e06 	br	8001008 <main+0x168>
    dest_mgr = jinit_write_gif(&cinfo);
    break;
#endif
#ifdef PPM_SUPPORTED
  case FMT_PPM:
    dest_mgr = jinit_write_ppm(&cinfo);
 8001210:	9809883a 	mov	r4,r19
 8001214:	801d4c40 	call	801d4c4 <jinit_write_ppm>
 8001218:	1025883a 	mov	r18,r2
 800121c:	003f7a06 	br	8001008 <main+0x168>
    dest_mgr = jinit_write_rle(&cinfo);
    break;
#endif
#ifdef TARGA_SUPPORTED
  case FMT_TARGA:
    dest_mgr = jinit_write_targa(&cinfo);
 8001220:	9809883a 	mov	r4,r19
 8001224:	801d8600 	call	801d860 <jinit_write_targa>
 8001228:	1025883a 	mov	r18,r2
 800122c:	003f7606 	br	8001008 <main+0x168>
      fprintf(stderr, "%s: can't open %s\n", progname, argv[file_index]);
      exit(EXIT_FAILURE);
    }
  } else {
    /* default input file is stdin */
    input_file = read_stdin();
 8001230:	800023c0 	call	800023c <read_stdin>
 8001234:	1029883a 	mov	r20,r2
 8001238:	003f5c06 	br	8000fac <main+0x10c>
#endif /* TWO_FILE_COMMANDLINE */

  /* Open the input file. */
  if (file_index < argc) {
    if ((input_file = fopen(argv[file_index], READ_BINARY)) == NULL) {
      fprintf(stderr, "%s: can't open %s\n", progname, argv[file_index]);
 800123c:	d8809717 	ldw	r2,604(sp)
 8001240:	a8c00017 	ldw	r3,0(r21)
 8001244:	d1a75a17 	ldw	r6,-25240(gp)
 8001248:	8085883a 	add	r2,r16,r2
 800124c:	19000317 	ldw	r4,12(r3)
 8001250:	11c00017 	ldw	r7,0(r2)
 8001254:	014200f4 	movhi	r5,2051
 8001258:	294db904 	addi	r5,r5,14052
 800125c:	801fc500 	call	801fc50 <fprintf>
      exit(EXIT_FAILURE);
 8001260:	01000044 	movi	r4,1
 8001264:	801f4c00 	call	801f4c0 <exit>

08001268 <jpeg_suppress_tables>:
  int i;
  JQUANT_TBL * qtbl;
  JHUFF_TBL * htbl;

  for (i = 0; i < NUM_QUANT_TBLS; i++) {
    if ((qtbl = cinfo->quant_tbl_ptrs[i]) != NULL)
 8001268:	20801017 	ldw	r2,64(r4)
 800126c:	10000126 	beq	r2,zero,8001274 <jpeg_suppress_tables+0xc>
      qtbl->sent_table = suppress;
 8001270:	11402015 	stw	r5,128(r2)
  int i;
  JQUANT_TBL * qtbl;
  JHUFF_TBL * htbl;

  for (i = 0; i < NUM_QUANT_TBLS; i++) {
    if ((qtbl = cinfo->quant_tbl_ptrs[i]) != NULL)
 8001274:	20801117 	ldw	r2,68(r4)
 8001278:	10000126 	beq	r2,zero,8001280 <jpeg_suppress_tables+0x18>
      qtbl->sent_table = suppress;
 800127c:	11402015 	stw	r5,128(r2)
  int i;
  JQUANT_TBL * qtbl;
  JHUFF_TBL * htbl;

  for (i = 0; i < NUM_QUANT_TBLS; i++) {
    if ((qtbl = cinfo->quant_tbl_ptrs[i]) != NULL)
 8001280:	20801217 	ldw	r2,72(r4)
 8001284:	10000126 	beq	r2,zero,800128c <jpeg_suppress_tables+0x24>
      qtbl->sent_table = suppress;
 8001288:	11402015 	stw	r5,128(r2)
  int i;
  JQUANT_TBL * qtbl;
  JHUFF_TBL * htbl;

  for (i = 0; i < NUM_QUANT_TBLS; i++) {
    if ((qtbl = cinfo->quant_tbl_ptrs[i]) != NULL)
 800128c:	20801317 	ldw	r2,76(r4)
 8001290:	10000126 	beq	r2,zero,8001298 <jpeg_suppress_tables+0x30>
      qtbl->sent_table = suppress;
 8001294:	11402015 	stw	r5,128(r2)
 8001298:	0007883a 	mov	r3,zero
 800129c:	01800104 	movi	r6,4
  }

  for (i = 0; i < NUM_HUFF_TBLS; i++) {
    if ((htbl = cinfo->dc_huff_tbl_ptrs[i]) != NULL)
 80012a0:	20801417 	ldw	r2,80(r4)
  for (i = 0; i < NUM_QUANT_TBLS; i++) {
    if ((qtbl = cinfo->quant_tbl_ptrs[i]) != NULL)
      qtbl->sent_table = suppress;
  }

  for (i = 0; i < NUM_HUFF_TBLS; i++) {
 80012a4:	18c00044 	addi	r3,r3,1
    if ((htbl = cinfo->dc_huff_tbl_ptrs[i]) != NULL)
 80012a8:	10000126 	beq	r2,zero,80012b0 <jpeg_suppress_tables+0x48>
      htbl->sent_table = suppress;
 80012ac:	11404515 	stw	r5,276(r2)
    if ((htbl = cinfo->ac_huff_tbl_ptrs[i]) != NULL)
 80012b0:	20801817 	ldw	r2,96(r4)
 80012b4:	10000126 	beq	r2,zero,80012bc <jpeg_suppress_tables+0x54>
      htbl->sent_table = suppress;
 80012b8:	11404515 	stw	r5,276(r2)
  for (i = 0; i < NUM_QUANT_TBLS; i++) {
    if ((qtbl = cinfo->quant_tbl_ptrs[i]) != NULL)
      qtbl->sent_table = suppress;
  }

  for (i = 0; i < NUM_HUFF_TBLS; i++) {
 80012bc:	21000104 	addi	r4,r4,4
 80012c0:	19bff71e 	bne	r3,r6,80012a0 <jpeg_suppress_tables+0x38>
    if ((htbl = cinfo->dc_huff_tbl_ptrs[i]) != NULL)
      htbl->sent_table = suppress;
    if ((htbl = cinfo->ac_huff_tbl_ptrs[i]) != NULL)
      htbl->sent_table = suppress;
  }
}
 80012c4:	f800283a 	ret

080012c8 <jpeg_write_marker>:

GLOBAL(void)
jpeg_write_marker (j_compress_ptr cinfo, int marker,
		   const JOCTET *dataptr, unsigned int datalen)
{
  if (cinfo->next_scanline != 0 ||
 80012c8:	20803617 	ldw	r2,216(r4)
 */

GLOBAL(void)
jpeg_write_marker (j_compress_ptr cinfo, int marker,
		   const JOCTET *dataptr, unsigned int datalen)
{
 80012cc:	defffb04 	addi	sp,sp,-20
 80012d0:	dcc00315 	stw	r19,12(sp)
 80012d4:	dc800215 	stw	r18,8(sp)
 80012d8:	dc400115 	stw	r17,4(sp)
 80012dc:	dc000015 	stw	r16,0(sp)
 80012e0:	dfc00415 	stw	ra,16(sp)
 80012e4:	2021883a 	mov	r16,r4
 80012e8:	2823883a 	mov	r17,r5
 80012ec:	3025883a 	mov	r18,r6
 80012f0:	3827883a 	mov	r19,r7
  if (cinfo->next_scanline != 0 ||
 80012f4:	1000041e 	bne	r2,zero,8001308 <jpeg_write_marker+0x40>
 80012f8:	20800417 	ldw	r2,16(r4)
 80012fc:	00c00084 	movi	r3,2
 8001300:	10bfe6c4 	addi	r2,r2,-101
 8001304:	1880082e 	bgeu	r3,r2,8001328 <jpeg_write_marker+0x60>
      (cinfo->global_state != CSTATE_SCANNING &&
       cinfo->global_state != CSTATE_RAW_OK &&
       cinfo->global_state != CSTATE_WRCOEFS))
    ERREXIT1(cinfo, JERR_BAD_STATE, cinfo->global_state);
 8001308:	81400017 	ldw	r5,0(r16)
 800130c:	00800484 	movi	r2,18
 8001310:	28800515 	stw	r2,20(r5)
 8001314:	80c00417 	ldw	r3,16(r16)
 8001318:	28c00615 	stw	r3,24(r5)
 800131c:	80800017 	ldw	r2,0(r16)
 8001320:	10c00017 	ldw	r3,0(r2)
 8001324:	183ee83a 	callr	r3

  (*cinfo->marker->write_any_marker) (cinfo, marker, dataptr, datalen);
 8001328:	80805517 	ldw	r2,340(r16)
 800132c:	8009883a 	mov	r4,r16
 8001330:	880b883a 	mov	r5,r17
 8001334:	10c00017 	ldw	r3,0(r2)
 8001338:	900d883a 	mov	r6,r18
 800133c:	980f883a 	mov	r7,r19
}
 8001340:	dfc00417 	ldw	ra,16(sp)
 8001344:	dcc00317 	ldw	r19,12(sp)
 8001348:	dc800217 	ldw	r18,8(sp)
 800134c:	dc400117 	ldw	r17,4(sp)
 8001350:	dc000017 	ldw	r16,0(sp)
 8001354:	dec00504 	addi	sp,sp,20
      (cinfo->global_state != CSTATE_SCANNING &&
       cinfo->global_state != CSTATE_RAW_OK &&
       cinfo->global_state != CSTATE_WRCOEFS))
    ERREXIT1(cinfo, JERR_BAD_STATE, cinfo->global_state);

  (*cinfo->marker->write_any_marker) (cinfo, marker, dataptr, datalen);
 8001358:	1800683a 	jmp	r3

0800135c <jpeg_write_tables>:
 */

GLOBAL(void)
jpeg_write_tables (j_compress_ptr cinfo)
{
  if (cinfo->global_state != CSTATE_START)
 800135c:	20c00417 	ldw	r3,16(r4)
 * will not re-emit the tables unless it is passed write_all_tables=TRUE.
 */

GLOBAL(void)
jpeg_write_tables (j_compress_ptr cinfo)
{
 8001360:	defffe04 	addi	sp,sp,-8
  if (cinfo->global_state != CSTATE_START)
 8001364:	00801904 	movi	r2,100
 * will not re-emit the tables unless it is passed write_all_tables=TRUE.
 */

GLOBAL(void)
jpeg_write_tables (j_compress_ptr cinfo)
{
 8001368:	dc000015 	stw	r16,0(sp)
 800136c:	dfc00115 	stw	ra,4(sp)
 8001370:	2021883a 	mov	r16,r4
  if (cinfo->global_state != CSTATE_START)
 8001374:	18800826 	beq	r3,r2,8001398 <jpeg_write_tables+0x3c>
    ERREXIT1(cinfo, JERR_BAD_STATE, cinfo->global_state);
 8001378:	21400017 	ldw	r5,0(r4)
 800137c:	00800484 	movi	r2,18
 8001380:	28800515 	stw	r2,20(r5)
 8001384:	20c00417 	ldw	r3,16(r4)
 8001388:	28c00615 	stw	r3,24(r5)
 800138c:	20800017 	ldw	r2,0(r4)
 8001390:	10c00017 	ldw	r3,0(r2)
 8001394:	183ee83a 	callr	r3

  /* (Re)initialize error mgr and destination modules */
  (*cinfo->err->reset_error_mgr) ((j_common_ptr) cinfo);
 8001398:	80800017 	ldw	r2,0(r16)
 800139c:	8009883a 	mov	r4,r16
 80013a0:	10c00417 	ldw	r3,16(r2)
 80013a4:	183ee83a 	callr	r3
  (*cinfo->dest->init_destination) (cinfo);
 80013a8:	81400517 	ldw	r5,20(r16)
 80013ac:	8009883a 	mov	r4,r16
 80013b0:	28800217 	ldw	r2,8(r5)
 80013b4:	103ee83a 	callr	r2
  /* Initialize the marker writer ... bit of a crock to do it here. */
  jinit_marker_writer(cinfo);
 80013b8:	8009883a 	mov	r4,r16
 80013bc:	80059080 	call	8005908 <jinit_marker_writer>
  /* Write them tables! */
  (*cinfo->marker->write_tables_only) (cinfo);
 80013c0:	80c05517 	ldw	r3,340(r16)
 80013c4:	8009883a 	mov	r4,r16
 80013c8:	18800517 	ldw	r2,20(r3)
 80013cc:	103ee83a 	callr	r2
  /* And clean up. */
  (*cinfo->dest->term_destination) (cinfo);
 80013d0:	80c00517 	ldw	r3,20(r16)
 80013d4:	8009883a 	mov	r4,r16
 80013d8:	18800417 	ldw	r2,16(r3)
 80013dc:	103ee83a 	callr	r2
  /* We can use jpeg_abort to release memory. */
  jpeg_abort((j_common_ptr) cinfo);
 80013e0:	8009883a 	mov	r4,r16
}
 80013e4:	dfc00117 	ldw	ra,4(sp)
 80013e8:	dc000017 	ldw	r16,0(sp)
 80013ec:	dec00204 	addi	sp,sp,8
  /* Write them tables! */
  (*cinfo->marker->write_tables_only) (cinfo);
  /* And clean up. */
  (*cinfo->dest->term_destination) (cinfo);
  /* We can use jpeg_abort to release memory. */
  jpeg_abort((j_common_ptr) cinfo);
 80013f0:	80068a41 	jmpi	80068a4 <jpeg_abort>

080013f4 <jpeg_finish_compress>:
GLOBAL(void)
jpeg_finish_compress (j_compress_ptr cinfo)
{
  JDIMENSION iMCU_row;

  if (cinfo->global_state == CSTATE_SCANNING ||
 80013f4:	21400417 	ldw	r5,16(r4)
 * work including most of the actual output.
 */

GLOBAL(void)
jpeg_finish_compress (j_compress_ptr cinfo)
{
 80013f8:	defffc04 	addi	sp,sp,-16
  JDIMENSION iMCU_row;

  if (cinfo->global_state == CSTATE_SCANNING ||
 80013fc:	00800044 	movi	r2,1
 8001400:	28ffe6c4 	addi	r3,r5,-101
 * work including most of the actual output.
 */

GLOBAL(void)
jpeg_finish_compress (j_compress_ptr cinfo)
{
 8001404:	dc000015 	stw	r16,0(sp)
 8001408:	dfc00315 	stw	ra,12(sp)
 800140c:	dc800215 	stw	r18,8(sp)
 8001410:	dc400115 	stw	r17,4(sp)
 8001414:	2021883a 	mov	r16,r4
  JDIMENSION iMCU_row;

  if (cinfo->global_state == CSTATE_SCANNING ||
 8001418:	10c0422e 	bgeu	r2,r3,8001524 <jpeg_finish_compress+0x130>
      cinfo->global_state == CSTATE_RAW_OK) {
    /* Terminate first pass */
    if (cinfo->next_scanline < cinfo->image_height)
      ERREXIT(cinfo, JERR_TOO_LITTLE_DATA);
    (*cinfo->master->finish_pass) (cinfo);
  } else if (cinfo->global_state != CSTATE_WRCOEFS)
 800141c:	008019c4 	movi	r2,103
 8001420:	28800826 	beq	r5,r2,8001444 <jpeg_finish_compress+0x50>
    ERREXIT1(cinfo, JERR_BAD_STATE, cinfo->global_state);
 8001424:	21400017 	ldw	r5,0(r4)
 8001428:	00800484 	movi	r2,18
 800142c:	28800515 	stw	r2,20(r5)
 8001430:	20c00417 	ldw	r3,16(r4)
 8001434:	28c00615 	stw	r3,24(r5)
 8001438:	20800017 	ldw	r2,0(r4)
 800143c:	10c00017 	ldw	r3,0(r2)
 8001440:	183ee83a 	callr	r3
  /* Perform any remaining passes */
  while (! cinfo->master->is_last_pass) {
 8001444:	80c05117 	ldw	r3,324(r16)
 8001448:	18800417 	ldw	r2,16(r3)
 800144c:	1000261e 	bne	r2,zero,80014e8 <jpeg_finish_compress+0xf4>
    (*cinfo->master->prepare_for_pass) (cinfo);
 8001450:	18800017 	ldw	r2,0(r3)
 8001454:	8009883a 	mov	r4,r16
 8001458:	103ee83a 	callr	r2
    for (iMCU_row = 0; iMCU_row < cinfo->total_iMCU_rows; iMCU_row++) {
 800145c:	81403a17 	ldw	r5,232(r16)
 8001460:	28001a26 	beq	r5,zero,80014cc <jpeg_finish_compress+0xd8>
 8001464:	0023883a 	mov	r17,zero
 8001468:	04800584 	movi	r18,22
 800146c:	00000206 	br	8001478 <jpeg_finish_compress+0x84>
 8001470:	81403a17 	ldw	r5,232(r16)
 8001474:	8940152e 	bgeu	r17,r5,80014cc <jpeg_finish_compress+0xd8>
      if (cinfo->progress != NULL) {
 8001478:	80c00217 	ldw	r3,8(r16)
	cinfo->progress->pass_counter = (long) iMCU_row;
	cinfo->progress->pass_limit = (long) cinfo->total_iMCU_rows;
	(*cinfo->progress->progress_monitor) ((j_common_ptr) cinfo);
 800147c:	8009883a 	mov	r4,r16
    ERREXIT1(cinfo, JERR_BAD_STATE, cinfo->global_state);
  /* Perform any remaining passes */
  while (! cinfo->master->is_last_pass) {
    (*cinfo->master->prepare_for_pass) (cinfo);
    for (iMCU_row = 0; iMCU_row < cinfo->total_iMCU_rows; iMCU_row++) {
      if (cinfo->progress != NULL) {
 8001480:	18000426 	beq	r3,zero,8001494 <jpeg_finish_compress+0xa0>
	cinfo->progress->pass_counter = (long) iMCU_row;
	cinfo->progress->pass_limit = (long) cinfo->total_iMCU_rows;
	(*cinfo->progress->progress_monitor) ((j_common_ptr) cinfo);
 8001484:	18800017 	ldw	r2,0(r3)
  while (! cinfo->master->is_last_pass) {
    (*cinfo->master->prepare_for_pass) (cinfo);
    for (iMCU_row = 0; iMCU_row < cinfo->total_iMCU_rows; iMCU_row++) {
      if (cinfo->progress != NULL) {
	cinfo->progress->pass_counter = (long) iMCU_row;
	cinfo->progress->pass_limit = (long) cinfo->total_iMCU_rows;
 8001488:	19400215 	stw	r5,8(r3)
  /* Perform any remaining passes */
  while (! cinfo->master->is_last_pass) {
    (*cinfo->master->prepare_for_pass) (cinfo);
    for (iMCU_row = 0; iMCU_row < cinfo->total_iMCU_rows; iMCU_row++) {
      if (cinfo->progress != NULL) {
	cinfo->progress->pass_counter = (long) iMCU_row;
 800148c:	1c400115 	stw	r17,4(r3)
	cinfo->progress->pass_limit = (long) cinfo->total_iMCU_rows;
	(*cinfo->progress->progress_monitor) ((j_common_ptr) cinfo);
 8001490:	103ee83a 	callr	r2
      }
      /* We bypass the main controller and invoke coef controller directly;
       * all work is being done from the coefficient buffer.
       */
      if (! (*cinfo->coef->compress_data) (cinfo, (JSAMPIMAGE) NULL))
 8001494:	80805417 	ldw	r2,336(r16)
 8001498:	8009883a 	mov	r4,r16
 800149c:	000b883a 	mov	r5,zero
 80014a0:	10c00117 	ldw	r3,4(r2)
  } else if (cinfo->global_state != CSTATE_WRCOEFS)
    ERREXIT1(cinfo, JERR_BAD_STATE, cinfo->global_state);
  /* Perform any remaining passes */
  while (! cinfo->master->is_last_pass) {
    (*cinfo->master->prepare_for_pass) (cinfo);
    for (iMCU_row = 0; iMCU_row < cinfo->total_iMCU_rows; iMCU_row++) {
 80014a4:	8c400044 	addi	r17,r17,1
	(*cinfo->progress->progress_monitor) ((j_common_ptr) cinfo);
      }
      /* We bypass the main controller and invoke coef controller directly;
       * all work is being done from the coefficient buffer.
       */
      if (! (*cinfo->coef->compress_data) (cinfo, (JSAMPIMAGE) NULL))
 80014a8:	183ee83a 	callr	r3
 80014ac:	103ff01e 	bne	r2,zero,8001470 <jpeg_finish_compress+0x7c>
	ERREXIT(cinfo, JERR_CANT_SUSPEND);
 80014b0:	80800017 	ldw	r2,0(r16)
 80014b4:	8009883a 	mov	r4,r16
 80014b8:	10c00017 	ldw	r3,0(r2)
 80014bc:	14800515 	stw	r18,20(r2)
 80014c0:	183ee83a 	callr	r3
  } else if (cinfo->global_state != CSTATE_WRCOEFS)
    ERREXIT1(cinfo, JERR_BAD_STATE, cinfo->global_state);
  /* Perform any remaining passes */
  while (! cinfo->master->is_last_pass) {
    (*cinfo->master->prepare_for_pass) (cinfo);
    for (iMCU_row = 0; iMCU_row < cinfo->total_iMCU_rows; iMCU_row++) {
 80014c4:	81403a17 	ldw	r5,232(r16)
 80014c8:	897feb36 	bltu	r17,r5,8001478 <jpeg_finish_compress+0x84>
       * all work is being done from the coefficient buffer.
       */
      if (! (*cinfo->coef->compress_data) (cinfo, (JSAMPIMAGE) NULL))
	ERREXIT(cinfo, JERR_CANT_SUSPEND);
    }
    (*cinfo->master->finish_pass) (cinfo);
 80014cc:	80805117 	ldw	r2,324(r16)
 80014d0:	8009883a 	mov	r4,r16
 80014d4:	10c00217 	ldw	r3,8(r2)
 80014d8:	183ee83a 	callr	r3
      ERREXIT(cinfo, JERR_TOO_LITTLE_DATA);
    (*cinfo->master->finish_pass) (cinfo);
  } else if (cinfo->global_state != CSTATE_WRCOEFS)
    ERREXIT1(cinfo, JERR_BAD_STATE, cinfo->global_state);
  /* Perform any remaining passes */
  while (! cinfo->master->is_last_pass) {
 80014dc:	80c05117 	ldw	r3,324(r16)
 80014e0:	18800417 	ldw	r2,16(r3)
 80014e4:	103fda26 	beq	r2,zero,8001450 <jpeg_finish_compress+0x5c>
	ERREXIT(cinfo, JERR_CANT_SUSPEND);
    }
    (*cinfo->master->finish_pass) (cinfo);
  }
  /* Write EOI, do final cleanup */
  (*cinfo->marker->write_file_trailer) (cinfo);
 80014e8:	80c05517 	ldw	r3,340(r16)
 80014ec:	8009883a 	mov	r4,r16
 80014f0:	18800417 	ldw	r2,16(r3)
 80014f4:	103ee83a 	callr	r2
  (*cinfo->dest->term_destination) (cinfo);
 80014f8:	80c00517 	ldw	r3,20(r16)
 80014fc:	8009883a 	mov	r4,r16
 8001500:	18800417 	ldw	r2,16(r3)
 8001504:	103ee83a 	callr	r2
  /* We can use jpeg_abort to release memory and reset global_state */
  jpeg_abort((j_common_ptr) cinfo);
 8001508:	8009883a 	mov	r4,r16
}
 800150c:	dfc00317 	ldw	ra,12(sp)
 8001510:	dc800217 	ldw	r18,8(sp)
 8001514:	dc400117 	ldw	r17,4(sp)
 8001518:	dc000017 	ldw	r16,0(sp)
 800151c:	dec00404 	addi	sp,sp,16
  }
  /* Write EOI, do final cleanup */
  (*cinfo->marker->write_file_trailer) (cinfo);
  (*cinfo->dest->term_destination) (cinfo);
  /* We can use jpeg_abort to release memory and reset global_state */
  jpeg_abort((j_common_ptr) cinfo);
 8001520:	80068a41 	jmpi	80068a4 <jpeg_abort>
  JDIMENSION iMCU_row;

  if (cinfo->global_state == CSTATE_SCANNING ||
      cinfo->global_state == CSTATE_RAW_OK) {
    /* Terminate first pass */
    if (cinfo->next_scanline < cinfo->image_height)
 8001524:	20c03617 	ldw	r3,216(r4)
 8001528:	20800717 	ldw	r2,28(r4)
 800152c:	18800536 	bltu	r3,r2,8001544 <jpeg_finish_compress+0x150>
      ERREXIT(cinfo, JERR_TOO_LITTLE_DATA);
    (*cinfo->master->finish_pass) (cinfo);
 8001530:	80c05117 	ldw	r3,324(r16)
 8001534:	8009883a 	mov	r4,r16
 8001538:	18800217 	ldw	r2,8(r3)
 800153c:	103ee83a 	callr	r2
 8001540:	003fc006 	br	8001444 <jpeg_finish_compress+0x50>

  if (cinfo->global_state == CSTATE_SCANNING ||
      cinfo->global_state == CSTATE_RAW_OK) {
    /* Terminate first pass */
    if (cinfo->next_scanline < cinfo->image_height)
      ERREXIT(cinfo, JERR_TOO_LITTLE_DATA);
 8001544:	20800017 	ldw	r2,0(r4)
 8001548:	00c01084 	movi	r3,66
 800154c:	11400017 	ldw	r5,0(r2)
 8001550:	10c00515 	stw	r3,20(r2)
 8001554:	283ee83a 	callr	r5
 8001558:	003ff506 	br	8001530 <jpeg_finish_compress+0x13c>

0800155c <jpeg_abort_compress>:
 */

GLOBAL(void)
jpeg_abort_compress (j_compress_ptr cinfo)
{
  jpeg_abort((j_common_ptr) cinfo); /* use common routine */
 800155c:	80068a41 	jmpi	80068a4 <jpeg_abort>

08001560 <jpeg_destroy_compress>:
 */

GLOBAL(void)
jpeg_destroy_compress (j_compress_ptr cinfo)
{
  jpeg_destroy((j_common_ptr) cinfo); /* use common routine */
 8001560:	80068fc1 	jmpi	80068fc <jpeg_destroy>

08001564 <jpeg_CreateCompress>:
 * The error manager must already be set up (in case memory manager fails).
 */

GLOBAL(void)
jpeg_CreateCompress (j_compress_ptr cinfo, int version, size_t structsize)
{
 8001564:	defffc04 	addi	sp,sp,-16
  int i;

  /* Guard against version mismatches between library and caller. */
  cinfo->mem = NULL;		/* so jpeg_destroy knows mem mgr not called */
  if (version != JPEG_LIB_VERSION)
 8001568:	00800f44 	movi	r2,61
 * The error manager must already be set up (in case memory manager fails).
 */

GLOBAL(void)
jpeg_CreateCompress (j_compress_ptr cinfo, int version, size_t structsize)
{
 800156c:	dc400115 	stw	r17,4(sp)
 8001570:	dc000015 	stw	r16,0(sp)
 8001574:	dfc00315 	stw	ra,12(sp)
 8001578:	dc800215 	stw	r18,8(sp)
 800157c:	280f883a 	mov	r7,r5
 8001580:	2023883a 	mov	r17,r4
 8001584:	3021883a 	mov	r16,r6
  int i;

  /* Guard against version mismatches between library and caller. */
  cinfo->mem = NULL;		/* so jpeg_destroy knows mem mgr not called */
 8001588:	20000115 	stw	zero,4(r4)
  if (version != JPEG_LIB_VERSION)
 800158c:	28800926 	beq	r5,r2,80015b4 <jpeg_CreateCompress+0x50>
    ERREXIT2(cinfo, JERR_BAD_LIB_VERSION, JPEG_LIB_VERSION, version);
 8001590:	20c00017 	ldw	r3,0(r4)
 8001594:	18800615 	stw	r2,24(r3)
 8001598:	21400017 	ldw	r5,0(r4)
 800159c:	00800284 	movi	r2,10
 80015a0:	18800515 	stw	r2,20(r3)
 80015a4:	29c00715 	stw	r7,28(r5)
 80015a8:	20800017 	ldw	r2,0(r4)
 80015ac:	10c00017 	ldw	r3,0(r2)
 80015b0:	183ee83a 	callr	r3
  if (structsize != SIZEOF(struct jpeg_compress_struct))
 80015b4:	04805a04 	movi	r18,360
 80015b8:	84800a26 	beq	r16,r18,80015e4 <jpeg_CreateCompress+0x80>
    ERREXIT2(cinfo, JERR_BAD_STRUCT_SIZE, 
 80015bc:	89400017 	ldw	r5,0(r17)
 80015c0:	008004c4 	movi	r2,19
 80015c4:	8809883a 	mov	r4,r17
 80015c8:	2c800615 	stw	r18,24(r5)
 80015cc:	88c00017 	ldw	r3,0(r17)
 80015d0:	28800515 	stw	r2,20(r5)
 80015d4:	1c000715 	stw	r16,28(r3)
 80015d8:	88800017 	ldw	r2,0(r17)
 80015dc:	10c00017 	ldw	r3,0(r2)
 80015e0:	183ee83a 	callr	r3

  /* For debugging purposes, zero the whole master structure.
   * But error manager pointer is already there, so save and restore it.
   */
  {
    struct jpeg_error_mgr * err = cinfo->err;
 80015e4:	8c000017 	ldw	r16,0(r17)
    MEMZERO(cinfo, SIZEOF(struct jpeg_compress_struct));
 80015e8:	900d883a 	mov	r6,r18
 80015ec:	8809883a 	mov	r4,r17
 80015f0:	000b883a 	mov	r5,zero
 80015f4:	802176c0 	call	802176c <memset>
    cinfo->err = err;
  }
  cinfo->is_decompressor = FALSE;

  /* Initialize a memory manager instance for this object */
  jinit_memory_mgr((j_common_ptr) cinfo);
 80015f8:	8809883a 	mov	r4,r17
   * But error manager pointer is already there, so save and restore it.
   */
  {
    struct jpeg_error_mgr * err = cinfo->err;
    MEMZERO(cinfo, SIZEOF(struct jpeg_compress_struct));
    cinfo->err = err;
 80015fc:	8c000015 	stw	r16,0(r17)
  }
  cinfo->is_decompressor = FALSE;
 8001600:	88000315 	stw	zero,12(r17)

  /* Initialize a memory manager instance for this object */
  jinit_memory_mgr((j_common_ptr) cinfo);
 8001604:	80181c00 	call	80181c0 <jinit_memory_mgr>
  cinfo->dest = NULL;

  cinfo->comp_info = NULL;

  for (i = 0; i < NUM_QUANT_TBLS; i++)
    cinfo->quant_tbl_ptrs[i] = NULL;
 8001608:	8805883a 	mov	r2,r17

  /* Initialize a memory manager instance for this object */
  jinit_memory_mgr((j_common_ptr) cinfo);

  /* Zero out pointers to permanent structures. */
  cinfo->progress = NULL;
 800160c:	88000215 	stw	zero,8(r17)
  cinfo->dest = NULL;
 8001610:	88000515 	stw	zero,20(r17)

  cinfo->comp_info = NULL;
 8001614:	88000f15 	stw	zero,60(r17)

  for (i = 0; i < NUM_QUANT_TBLS; i++)
    cinfo->quant_tbl_ptrs[i] = NULL;
 8001618:	88001015 	stw	zero,64(r17)
 800161c:	88001115 	stw	zero,68(r17)
 8001620:	88001215 	stw	zero,72(r17)
 8001624:	88001315 	stw	zero,76(r17)
 8001628:	0007883a 	mov	r3,zero
 800162c:	01000104 	movi	r4,4

  for (i = 0; i < NUM_HUFF_TBLS; i++) {
 8001630:	18c00044 	addi	r3,r3,1
    cinfo->dc_huff_tbl_ptrs[i] = NULL;
 8001634:	10001415 	stw	zero,80(r2)
    cinfo->ac_huff_tbl_ptrs[i] = NULL;
 8001638:	10001815 	stw	zero,96(r2)
  cinfo->comp_info = NULL;

  for (i = 0; i < NUM_QUANT_TBLS; i++)
    cinfo->quant_tbl_ptrs[i] = NULL;

  for (i = 0; i < NUM_HUFF_TBLS; i++) {
 800163c:	10800104 	addi	r2,r2,4
 8001640:	193ffb1e 	bne	r3,r4,8001630 <jpeg_CreateCompress+0xcc>
  }

  cinfo->input_gamma = 1.0;	/* in case application forgets */

  /* OK, I'm ready */
  cinfo->global_state = CSTATE_START;
 8001644:	00801904 	movi	r2,100
  for (i = 0; i < NUM_HUFF_TBLS; i++) {
    cinfo->dc_huff_tbl_ptrs[i] = NULL;
    cinfo->ac_huff_tbl_ptrs[i] = NULL;
  }

  cinfo->input_gamma = 1.0;	/* in case application forgets */
 8001648:	00cffc34 	movhi	r3,16368

  /* OK, I'm ready */
  cinfo->global_state = CSTATE_START;
 800164c:	88800415 	stw	r2,16(r17)
  for (i = 0; i < NUM_HUFF_TBLS; i++) {
    cinfo->dc_huff_tbl_ptrs[i] = NULL;
    cinfo->ac_huff_tbl_ptrs[i] = NULL;
  }

  cinfo->input_gamma = 1.0;	/* in case application forgets */
 8001650:	88c00b15 	stw	r3,44(r17)
 8001654:	88000a15 	stw	zero,40(r17)

  /* OK, I'm ready */
  cinfo->global_state = CSTATE_START;
}
 8001658:	dfc00317 	ldw	ra,12(sp)
 800165c:	dc800217 	ldw	r18,8(sp)
 8001660:	dc400117 	ldw	r17,4(sp)
 8001664:	dc000017 	ldw	r16,0(sp)
 8001668:	dec00404 	addi	sp,sp,16
 800166c:	f800283a 	ret

08001670 <jpeg_write_scanlines>:
jpeg_write_scanlines (j_compress_ptr cinfo, JSAMPARRAY scanlines,
		      JDIMENSION num_lines)
{
  JDIMENSION row_ctr, rows_left;

  if (cinfo->global_state != CSTATE_SCANNING)
 8001670:	20c00417 	ldw	r3,16(r4)
 */

GLOBAL(JDIMENSION)
jpeg_write_scanlines (j_compress_ptr cinfo, JSAMPARRAY scanlines,
		      JDIMENSION num_lines)
{
 8001674:	defffb04 	addi	sp,sp,-20
  JDIMENSION row_ctr, rows_left;

  if (cinfo->global_state != CSTATE_SCANNING)
 8001678:	00801944 	movi	r2,101
 */

GLOBAL(JDIMENSION)
jpeg_write_scanlines (j_compress_ptr cinfo, JSAMPARRAY scanlines,
		      JDIMENSION num_lines)
{
 800167c:	dc800315 	stw	r18,12(sp)
 8001680:	dc400215 	stw	r17,8(sp)
 8001684:	dc000115 	stw	r16,4(sp)
 8001688:	dfc00415 	stw	ra,16(sp)
 800168c:	2021883a 	mov	r16,r4
 8001690:	2825883a 	mov	r18,r5
 8001694:	3023883a 	mov	r17,r6
  JDIMENSION row_ctr, rows_left;

  if (cinfo->global_state != CSTATE_SCANNING)
 8001698:	18800826 	beq	r3,r2,80016bc <jpeg_write_scanlines+0x4c>
    ERREXIT1(cinfo, JERR_BAD_STATE, cinfo->global_state);
 800169c:	21400017 	ldw	r5,0(r4)
 80016a0:	00800484 	movi	r2,18
 80016a4:	28800515 	stw	r2,20(r5)
 80016a8:	20c00417 	ldw	r3,16(r4)
 80016ac:	28c00615 	stw	r3,24(r5)
 80016b0:	20800017 	ldw	r2,0(r4)
 80016b4:	10c00017 	ldw	r3,0(r2)
 80016b8:	183ee83a 	callr	r3
  if (cinfo->next_scanline >= cinfo->image_height)
 80016bc:	80c03617 	ldw	r3,216(r16)
 80016c0:	80800717 	ldw	r2,28(r16)
 80016c4:	1880252e 	bgeu	r3,r2,800175c <jpeg_write_scanlines+0xec>
    WARNMS(cinfo, JWRN_TOO_MUCH_DATA);

  /* Call progress monitor hook if present */
  if (cinfo->progress != NULL) {
 80016c8:	81000217 	ldw	r4,8(r16)
 80016cc:	20000726 	beq	r4,zero,80016ec <jpeg_write_scanlines+0x7c>
    cinfo->progress->pass_counter = (long) cinfo->next_scanline;
 80016d0:	80803617 	ldw	r2,216(r16)
    cinfo->progress->pass_limit = (long) cinfo->image_height;
 80016d4:	80c00717 	ldw	r3,28(r16)
    (*cinfo->progress->progress_monitor) ((j_common_ptr) cinfo);
 80016d8:	21400017 	ldw	r5,0(r4)
  if (cinfo->next_scanline >= cinfo->image_height)
    WARNMS(cinfo, JWRN_TOO_MUCH_DATA);

  /* Call progress monitor hook if present */
  if (cinfo->progress != NULL) {
    cinfo->progress->pass_counter = (long) cinfo->next_scanline;
 80016dc:	20800115 	stw	r2,4(r4)
    cinfo->progress->pass_limit = (long) cinfo->image_height;
 80016e0:	20c00215 	stw	r3,8(r4)
    (*cinfo->progress->progress_monitor) ((j_common_ptr) cinfo);
 80016e4:	8009883a 	mov	r4,r16
 80016e8:	283ee83a 	callr	r5
  /* Give master control module another chance if this is first call to
   * jpeg_write_scanlines.  This lets output of the frame/scan headers be
   * delayed so that application can write COM, etc, markers between
   * jpeg_start_compress and jpeg_write_scanlines.
   */
  if (cinfo->master->call_pass_startup)
 80016ec:	80c05117 	ldw	r3,324(r16)
 80016f0:	18800317 	ldw	r2,12(r3)
 80016f4:	10000326 	beq	r2,zero,8001704 <jpeg_write_scanlines+0x94>
    (*cinfo->master->pass_startup) (cinfo);
 80016f8:	18800117 	ldw	r2,4(r3)
 80016fc:	8009883a 	mov	r4,r16
 8001700:	103ee83a 	callr	r2
 8001704:	80c00717 	ldw	r3,28(r16)
 8001708:	80803617 	ldw	r2,216(r16)
 800170c:	188fc83a 	sub	r7,r3,r2
 8001710:	89c0012e 	bgeu	r17,r7,8001718 <jpeg_write_scanlines+0xa8>
 8001714:	880f883a 	mov	r7,r17
  rows_left = cinfo->image_height - cinfo->next_scanline;
  if (num_lines > rows_left)
    num_lines = rows_left;

  row_ctr = 0;
  (*cinfo->main->process_data) (cinfo, scanlines, &row_ctr, num_lines);
 8001718:	80805217 	ldw	r2,328(r16)
  /* Ignore any extra scanlines at bottom of image. */
  rows_left = cinfo->image_height - cinfo->next_scanline;
  if (num_lines > rows_left)
    num_lines = rows_left;

  row_ctr = 0;
 800171c:	d8000015 	stw	zero,0(sp)
  (*cinfo->main->process_data) (cinfo, scanlines, &row_ctr, num_lines);
 8001720:	900b883a 	mov	r5,r18
 8001724:	12000117 	ldw	r8,4(r2)
 8001728:	8009883a 	mov	r4,r16
 800172c:	d80d883a 	mov	r6,sp
 8001730:	403ee83a 	callr	r8
  cinfo->next_scanline += row_ctr;
 8001734:	d8800017 	ldw	r2,0(sp)
 8001738:	80c03617 	ldw	r3,216(r16)
 800173c:	1887883a 	add	r3,r3,r2
 8001740:	80c03615 	stw	r3,216(r16)
  return row_ctr;
}
 8001744:	dfc00417 	ldw	ra,16(sp)
 8001748:	dc800317 	ldw	r18,12(sp)
 800174c:	dc400217 	ldw	r17,8(sp)
 8001750:	dc000117 	ldw	r16,4(sp)
 8001754:	dec00504 	addi	sp,sp,20
 8001758:	f800283a 	ret
  JDIMENSION row_ctr, rows_left;

  if (cinfo->global_state != CSTATE_SCANNING)
    ERREXIT1(cinfo, JERR_BAD_STATE, cinfo->global_state);
  if (cinfo->next_scanline >= cinfo->image_height)
    WARNMS(cinfo, JWRN_TOO_MUCH_DATA);
 800175c:	80800017 	ldw	r2,0(r16)
 8001760:	00c01dc4 	movi	r3,119
 8001764:	8009883a 	mov	r4,r16
 8001768:	11800117 	ldw	r6,4(r2)
 800176c:	10c00515 	stw	r3,20(r2)
 8001770:	017fffc4 	movi	r5,-1
 8001774:	303ee83a 	callr	r6
 8001778:	003fd306 	br	80016c8 <jpeg_write_scanlines+0x58>

0800177c <jpeg_write_raw_data>:
jpeg_write_raw_data (j_compress_ptr cinfo, JSAMPIMAGE data,
		     JDIMENSION num_lines)
{
  JDIMENSION lines_per_iMCU_row;

  if (cinfo->global_state != CSTATE_RAW_OK)
 800177c:	20c00417 	ldw	r3,16(r4)
 */

GLOBAL(JDIMENSION)
jpeg_write_raw_data (j_compress_ptr cinfo, JSAMPIMAGE data,
		     JDIMENSION num_lines)
{
 8001780:	defffb04 	addi	sp,sp,-20
  JDIMENSION lines_per_iMCU_row;

  if (cinfo->global_state != CSTATE_RAW_OK)
 8001784:	00801984 	movi	r2,102
 */

GLOBAL(JDIMENSION)
jpeg_write_raw_data (j_compress_ptr cinfo, JSAMPIMAGE data,
		     JDIMENSION num_lines)
{
 8001788:	dcc00315 	stw	r19,12(sp)
 800178c:	dc800215 	stw	r18,8(sp)
 8001790:	dc000015 	stw	r16,0(sp)
 8001794:	dfc00415 	stw	ra,16(sp)
 8001798:	dc400115 	stw	r17,4(sp)
 800179c:	2021883a 	mov	r16,r4
 80017a0:	2827883a 	mov	r19,r5
 80017a4:	3025883a 	mov	r18,r6
  JDIMENSION lines_per_iMCU_row;

  if (cinfo->global_state != CSTATE_RAW_OK)
 80017a8:	18800826 	beq	r3,r2,80017cc <jpeg_write_raw_data+0x50>
    ERREXIT1(cinfo, JERR_BAD_STATE, cinfo->global_state);
 80017ac:	21400017 	ldw	r5,0(r4)
 80017b0:	00800484 	movi	r2,18
 80017b4:	28800515 	stw	r2,20(r5)
 80017b8:	20c00417 	ldw	r3,16(r4)
 80017bc:	28c00615 	stw	r3,24(r5)
 80017c0:	20800017 	ldw	r2,0(r4)
 80017c4:	10c00017 	ldw	r3,0(r2)
 80017c8:	183ee83a 	callr	r3
  if (cinfo->next_scanline >= cinfo->image_height) {
 80017cc:	81003617 	ldw	r4,216(r16)
 80017d0:	81400717 	ldw	r5,28(r16)
 80017d4:	21403b2e 	bgeu	r4,r5,80018c4 <jpeg_write_raw_data+0x148>
    WARNMS(cinfo, JWRN_TOO_MUCH_DATA);
    return 0;
  }

  /* Call progress monitor hook if present */
  if (cinfo->progress != NULL) {
 80017d8:	80c00217 	ldw	r3,8(r16)
 80017dc:	18000526 	beq	r3,zero,80017f4 <jpeg_write_raw_data+0x78>
    cinfo->progress->pass_counter = (long) cinfo->next_scanline;
    cinfo->progress->pass_limit = (long) cinfo->image_height;
    (*cinfo->progress->progress_monitor) ((j_common_ptr) cinfo);
 80017e0:	18800017 	ldw	r2,0(r3)
    return 0;
  }

  /* Call progress monitor hook if present */
  if (cinfo->progress != NULL) {
    cinfo->progress->pass_counter = (long) cinfo->next_scanline;
 80017e4:	19000115 	stw	r4,4(r3)
    cinfo->progress->pass_limit = (long) cinfo->image_height;
 80017e8:	19400215 	stw	r5,8(r3)
    (*cinfo->progress->progress_monitor) ((j_common_ptr) cinfo);
 80017ec:	8009883a 	mov	r4,r16
 80017f0:	103ee83a 	callr	r2
  /* Give master control module another chance if this is first call to
   * jpeg_write_raw_data.  This lets output of the frame/scan headers be
   * delayed so that application can write COM, etc, markers between
   * jpeg_start_compress and jpeg_write_raw_data.
   */
  if (cinfo->master->call_pass_startup)
 80017f4:	80c05117 	ldw	r3,324(r16)
 80017f8:	18800317 	ldw	r2,12(r3)
 80017fc:	10002a1e 	bne	r2,zero,80018a8 <jpeg_write_raw_data+0x12c>
    (*cinfo->master->pass_startup) (cinfo);

  /* Verify that at least one iMCU row has been passed. */
  lines_per_iMCU_row = cinfo->max_v_samp_factor * DCTSIZE;
 8001800:	80803917 	ldw	r2,228(r16)
 8001804:	102290fa 	slli	r17,r2,3
  if (num_lines < lines_per_iMCU_row)
 8001808:	94401a36 	bltu	r18,r17,8001874 <jpeg_write_raw_data+0xf8>
    ERREXIT(cinfo, JERR_BUFFER_SIZE);

  /* Directly compress the row. */
  if (! (*cinfo->coef->compress_data) (cinfo, data)) {
 800180c:	80805417 	ldw	r2,336(r16)
 8001810:	980b883a 	mov	r5,r19
 8001814:	8009883a 	mov	r4,r16
 8001818:	10c00117 	ldw	r3,4(r2)
 800181c:	183ee83a 	callr	r3
 8001820:	10000b26 	beq	r2,zero,8001850 <jpeg_write_raw_data+0xd4>
    /* If compressor did not consume the whole row, suspend processing. */
    return 0;
  }

  /* OK, we processed one iMCU row. */
  cinfo->next_scanline += lines_per_iMCU_row;
 8001824:	80803617 	ldw	r2,216(r16)
 8001828:	1445883a 	add	r2,r2,r17
 800182c:	80803615 	stw	r2,216(r16)
  return lines_per_iMCU_row;
}
 8001830:	8805883a 	mov	r2,r17
 8001834:	dfc00417 	ldw	ra,16(sp)
 8001838:	dcc00317 	ldw	r19,12(sp)
 800183c:	dc800217 	ldw	r18,8(sp)
 8001840:	dc400117 	ldw	r17,4(sp)
 8001844:	dc000017 	ldw	r16,0(sp)
 8001848:	dec00504 	addi	sp,sp,20
 800184c:	f800283a 	ret
  lines_per_iMCU_row = cinfo->max_v_samp_factor * DCTSIZE;
  if (num_lines < lines_per_iMCU_row)
    ERREXIT(cinfo, JERR_BUFFER_SIZE);

  /* Directly compress the row. */
  if (! (*cinfo->coef->compress_data) (cinfo, data)) {
 8001850:	0023883a 	mov	r17,zero
  }

  /* OK, we processed one iMCU row. */
  cinfo->next_scanline += lines_per_iMCU_row;
  return lines_per_iMCU_row;
}
 8001854:	8805883a 	mov	r2,r17
 8001858:	dfc00417 	ldw	ra,16(sp)
 800185c:	dcc00317 	ldw	r19,12(sp)
 8001860:	dc800217 	ldw	r18,8(sp)
 8001864:	dc400117 	ldw	r17,4(sp)
 8001868:	dc000017 	ldw	r16,0(sp)
 800186c:	dec00504 	addi	sp,sp,20
 8001870:	f800283a 	ret
    (*cinfo->master->pass_startup) (cinfo);

  /* Verify that at least one iMCU row has been passed. */
  lines_per_iMCU_row = cinfo->max_v_samp_factor * DCTSIZE;
  if (num_lines < lines_per_iMCU_row)
    ERREXIT(cinfo, JERR_BUFFER_SIZE);
 8001874:	80800017 	ldw	r2,0(r16)
 8001878:	00c00544 	movi	r3,21
 800187c:	8009883a 	mov	r4,r16
 8001880:	11400017 	ldw	r5,0(r2)
 8001884:	10c00515 	stw	r3,20(r2)
 8001888:	283ee83a 	callr	r5

  /* Directly compress the row. */
  if (! (*cinfo->coef->compress_data) (cinfo, data)) {
 800188c:	80805417 	ldw	r2,336(r16)
 8001890:	980b883a 	mov	r5,r19
 8001894:	8009883a 	mov	r4,r16
 8001898:	10c00117 	ldw	r3,4(r2)
 800189c:	183ee83a 	callr	r3
 80018a0:	103fe01e 	bne	r2,zero,8001824 <jpeg_write_raw_data+0xa8>
 80018a4:	003fea06 	br	8001850 <jpeg_write_raw_data+0xd4>
   * jpeg_write_raw_data.  This lets output of the frame/scan headers be
   * delayed so that application can write COM, etc, markers between
   * jpeg_start_compress and jpeg_write_raw_data.
   */
  if (cinfo->master->call_pass_startup)
    (*cinfo->master->pass_startup) (cinfo);
 80018a8:	18800117 	ldw	r2,4(r3)
 80018ac:	8009883a 	mov	r4,r16
 80018b0:	103ee83a 	callr	r2

  /* Verify that at least one iMCU row has been passed. */
  lines_per_iMCU_row = cinfo->max_v_samp_factor * DCTSIZE;
 80018b4:	80803917 	ldw	r2,228(r16)
 80018b8:	102290fa 	slli	r17,r2,3
  if (num_lines < lines_per_iMCU_row)
 80018bc:	947fd32e 	bgeu	r18,r17,800180c <jpeg_write_raw_data+0x90>
 80018c0:	003fec06 	br	8001874 <jpeg_write_raw_data+0xf8>
  JDIMENSION lines_per_iMCU_row;

  if (cinfo->global_state != CSTATE_RAW_OK)
    ERREXIT1(cinfo, JERR_BAD_STATE, cinfo->global_state);
  if (cinfo->next_scanline >= cinfo->image_height) {
    WARNMS(cinfo, JWRN_TOO_MUCH_DATA);
 80018c4:	80800017 	ldw	r2,0(r16)
 80018c8:	00c01dc4 	movi	r3,119
 80018cc:	8009883a 	mov	r4,r16
 80018d0:	11800117 	ldw	r6,4(r2)
 80018d4:	10c00515 	stw	r3,20(r2)
 80018d8:	017fffc4 	movi	r5,-1
 80018dc:	303ee83a 	callr	r6
 80018e0:	0023883a 	mov	r17,zero
  }

  /* OK, we processed one iMCU row. */
  cinfo->next_scanline += lines_per_iMCU_row;
  return lines_per_iMCU_row;
}
 80018e4:	8805883a 	mov	r2,r17
 80018e8:	dfc00417 	ldw	ra,16(sp)
 80018ec:	dcc00317 	ldw	r19,12(sp)
 80018f0:	dc800217 	ldw	r18,8(sp)
 80018f4:	dc400117 	ldw	r17,4(sp)
 80018f8:	dc000017 	ldw	r16,0(sp)
 80018fc:	dec00504 	addi	sp,sp,20
 8001900:	f800283a 	ret

08001904 <jpeg_start_compress>:
 */

GLOBAL(void)
jpeg_start_compress (j_compress_ptr cinfo, boolean write_all_tables)
{
  if (cinfo->global_state != CSTATE_START)
 8001904:	20c00417 	ldw	r3,16(r4)
 * wrong thing.
 */

GLOBAL(void)
jpeg_start_compress (j_compress_ptr cinfo, boolean write_all_tables)
{
 8001908:	defffd04 	addi	sp,sp,-12
  if (cinfo->global_state != CSTATE_START)
 800190c:	00801904 	movi	r2,100
 * wrong thing.
 */

GLOBAL(void)
jpeg_start_compress (j_compress_ptr cinfo, boolean write_all_tables)
{
 8001910:	dc400115 	stw	r17,4(sp)
 8001914:	dc000015 	stw	r16,0(sp)
 8001918:	dfc00215 	stw	ra,8(sp)
 800191c:	2021883a 	mov	r16,r4
 8001920:	2823883a 	mov	r17,r5
  if (cinfo->global_state != CSTATE_START)
 8001924:	18800826 	beq	r3,r2,8001948 <jpeg_start_compress+0x44>
    ERREXIT1(cinfo, JERR_BAD_STATE, cinfo->global_state);
 8001928:	21400017 	ldw	r5,0(r4)
 800192c:	00800484 	movi	r2,18
 8001930:	28800515 	stw	r2,20(r5)
 8001934:	20c00417 	ldw	r3,16(r4)
 8001938:	28c00615 	stw	r3,24(r5)
 800193c:	20800017 	ldw	r2,0(r4)
 8001940:	10c00017 	ldw	r3,0(r2)
 8001944:	183ee83a 	callr	r3

  if (write_all_tables)
    jpeg_suppress_tables(cinfo, FALSE);	/* mark all tables to be written */
 8001948:	000b883a 	mov	r5,zero
 800194c:	8009883a 	mov	r4,r16
jpeg_start_compress (j_compress_ptr cinfo, boolean write_all_tables)
{
  if (cinfo->global_state != CSTATE_START)
    ERREXIT1(cinfo, JERR_BAD_STATE, cinfo->global_state);

  if (write_all_tables)
 8001950:	8800191e 	bne	r17,zero,80019b8 <jpeg_start_compress+0xb4>
    jpeg_suppress_tables(cinfo, FALSE);	/* mark all tables to be written */

  /* (Re)initialize error mgr and destination modules */
  (*cinfo->err->reset_error_mgr) ((j_common_ptr) cinfo);
 8001954:	80800017 	ldw	r2,0(r16)
 8001958:	8009883a 	mov	r4,r16
 800195c:	10c00417 	ldw	r3,16(r2)
 8001960:	183ee83a 	callr	r3
  (*cinfo->dest->init_destination) (cinfo);
 8001964:	81400517 	ldw	r5,20(r16)
 8001968:	8009883a 	mov	r4,r16
 800196c:	28800217 	ldw	r2,8(r5)
 8001970:	103ee83a 	callr	r2
  /* Perform master selection of active modules */
  jinit_compress_master(cinfo);
 8001974:	8009883a 	mov	r4,r16
 8001978:	8004aa00 	call	8004aa0 <jinit_compress_master>
  /* Set up for the first pass */
  (*cinfo->master->prepare_for_pass) (cinfo);
 800197c:	80805117 	ldw	r2,324(r16)
 8001980:	8009883a 	mov	r4,r16
 8001984:	10c00017 	ldw	r3,0(r2)
 8001988:	183ee83a 	callr	r3
  /* Ready for application to drive first pass through jpeg_write_scanlines
   * or jpeg_write_raw_data.
   */
  cinfo->next_scanline = 0;
  cinfo->global_state = (cinfo->raw_data_in ? CSTATE_RAW_OK : CSTATE_SCANNING);
 800198c:	80802a17 	ldw	r2,168(r16)
 8001990:	00c01984 	movi	r3,102
  /* Set up for the first pass */
  (*cinfo->master->prepare_for_pass) (cinfo);
  /* Ready for application to drive first pass through jpeg_write_scanlines
   * or jpeg_write_raw_data.
   */
  cinfo->next_scanline = 0;
 8001994:	80003615 	stw	zero,216(r16)
  cinfo->global_state = (cinfo->raw_data_in ? CSTATE_RAW_OK : CSTATE_SCANNING);
 8001998:	1005003a 	cmpeq	r2,r2,zero
 800199c:	1885c83a 	sub	r2,r3,r2
 80019a0:	80800415 	stw	r2,16(r16)
}
 80019a4:	dfc00217 	ldw	ra,8(sp)
 80019a8:	dc400117 	ldw	r17,4(sp)
 80019ac:	dc000017 	ldw	r16,0(sp)
 80019b0:	dec00304 	addi	sp,sp,12
 80019b4:	f800283a 	ret
{
  if (cinfo->global_state != CSTATE_START)
    ERREXIT1(cinfo, JERR_BAD_STATE, cinfo->global_state);

  if (write_all_tables)
    jpeg_suppress_tables(cinfo, FALSE);	/* mark all tables to be written */
 80019b8:	80012680 	call	8001268 <jpeg_suppress_tables>
 80019bc:	003fe506 	br	8001954 <jpeg_start_compress+0x50>

080019c0 <start_iMCU_row>:

  /* In an interleaved scan, an MCU row is the same as an iMCU row.
   * In a noninterleaved scan, an iMCU row has v_samp_factor MCU rows.
   * But at the bottom of the image, process only what's left.
   */
  if (cinfo->comps_in_scan > 1) {
 80019c0:	20803b17 	ldw	r2,236(r4)
 80019c4:	00c00044 	movi	r3,1

LOCAL(void)
start_iMCU_row (j_compress_ptr cinfo)
/* Reset within-iMCU-row counters for a new row */
{
  my_coef_ptr coef = (my_coef_ptr) cinfo->coef;
 80019c8:	21405417 	ldw	r5,336(r4)

  /* In an interleaved scan, an MCU row is the same as an iMCU row.
   * In a noninterleaved scan, an iMCU row has v_samp_factor MCU rows.
   * But at the bottom of the image, process only what's left.
   */
  if (cinfo->comps_in_scan > 1) {
 80019cc:	1880040e 	bge	r3,r2,80019e0 <start_iMCU_row+0x20>
    coef->MCU_rows_per_iMCU_row = 1;
  } else {
    if (coef->iMCU_row_num < (cinfo->total_iMCU_rows-1))
      coef->MCU_rows_per_iMCU_row = cinfo->cur_comp_info[0]->v_samp_factor;
    else
      coef->MCU_rows_per_iMCU_row = cinfo->cur_comp_info[0]->last_row_height;
 80019d0:	28c00515 	stw	r3,20(r5)
  }

  coef->mcu_ctr = 0;
  coef->MCU_vert_offset = 0;
 80019d4:	28000415 	stw	zero,16(r5)
      coef->MCU_rows_per_iMCU_row = cinfo->cur_comp_info[0]->v_samp_factor;
    else
      coef->MCU_rows_per_iMCU_row = cinfo->cur_comp_info[0]->last_row_height;
  }

  coef->mcu_ctr = 0;
 80019d8:	28000315 	stw	zero,12(r5)
  coef->MCU_vert_offset = 0;
}
 80019dc:	f800283a 	ret
   * But at the bottom of the image, process only what's left.
   */
  if (cinfo->comps_in_scan > 1) {
    coef->MCU_rows_per_iMCU_row = 1;
  } else {
    if (coef->iMCU_row_num < (cinfo->total_iMCU_rows-1))
 80019e0:	20803a17 	ldw	r2,232(r4)
 80019e4:	28c00217 	ldw	r3,8(r5)
 80019e8:	10bfffc4 	addi	r2,r2,-1
 80019ec:	18800336 	bltu	r3,r2,80019fc <start_iMCU_row+0x3c>
      coef->MCU_rows_per_iMCU_row = cinfo->cur_comp_info[0]->v_samp_factor;
    else
      coef->MCU_rows_per_iMCU_row = cinfo->cur_comp_info[0]->last_row_height;
 80019f0:	20803c17 	ldw	r2,240(r4)
 80019f4:	10c01217 	ldw	r3,72(r2)
 80019f8:	003ff506 	br	80019d0 <start_iMCU_row+0x10>
   */
  if (cinfo->comps_in_scan > 1) {
    coef->MCU_rows_per_iMCU_row = 1;
  } else {
    if (coef->iMCU_row_num < (cinfo->total_iMCU_rows-1))
      coef->MCU_rows_per_iMCU_row = cinfo->cur_comp_info[0]->v_samp_factor;
 80019fc:	20803c17 	ldw	r2,240(r4)
 8001a00:	10c00317 	ldw	r3,12(r2)
    else
      coef->MCU_rows_per_iMCU_row = cinfo->cur_comp_info[0]->last_row_height;
  }

  coef->mcu_ctr = 0;
  coef->MCU_vert_offset = 0;
 8001a04:	28000415 	stw	zero,16(r5)
      coef->MCU_rows_per_iMCU_row = cinfo->cur_comp_info[0]->v_samp_factor;
    else
      coef->MCU_rows_per_iMCU_row = cinfo->cur_comp_info[0]->last_row_height;
  }

  coef->mcu_ctr = 0;
 8001a08:	28000315 	stw	zero,12(r5)
   */
  if (cinfo->comps_in_scan > 1) {
    coef->MCU_rows_per_iMCU_row = 1;
  } else {
    if (coef->iMCU_row_num < (cinfo->total_iMCU_rows-1))
      coef->MCU_rows_per_iMCU_row = cinfo->cur_comp_info[0]->v_samp_factor;
 8001a0c:	28c00515 	stw	r3,20(r5)
      coef->MCU_rows_per_iMCU_row = cinfo->cur_comp_info[0]->last_row_height;
  }

  coef->mcu_ctr = 0;
  coef->MCU_vert_offset = 0;
}
 8001a10:	f800283a 	ret

08001a14 <start_pass_coef>:
 * Initialize for a processing pass.
 */

METHODDEF(void)
start_pass_coef (j_compress_ptr cinfo, J_BUF_MODE pass_mode)
{
 8001a14:	defffc04 	addi	sp,sp,-16
 8001a18:	dc800215 	stw	r18,8(sp)
  my_coef_ptr coef = (my_coef_ptr) cinfo->coef;
 8001a1c:	24805417 	ldw	r18,336(r4)
 * Initialize for a processing pass.
 */

METHODDEF(void)
start_pass_coef (j_compress_ptr cinfo, J_BUF_MODE pass_mode)
{
 8001a20:	dc400115 	stw	r17,4(sp)
 8001a24:	dc000015 	stw	r16,0(sp)
  my_coef_ptr coef = (my_coef_ptr) cinfo->coef;

  coef->iMCU_row_num = 0;
 8001a28:	90000215 	stw	zero,8(r18)
 * Initialize for a processing pass.
 */

METHODDEF(void)
start_pass_coef (j_compress_ptr cinfo, J_BUF_MODE pass_mode)
{
 8001a2c:	dfc00315 	stw	ra,12(sp)
 8001a30:	2023883a 	mov	r17,r4
 8001a34:	2821883a 	mov	r16,r5
  my_coef_ptr coef = (my_coef_ptr) cinfo->coef;

  coef->iMCU_row_num = 0;
  start_iMCU_row(cinfo);
 8001a38:	80019c00 	call	80019c0 <start_iMCU_row>

  switch (pass_mode) {
 8001a3c:	00800084 	movi	r2,2
 8001a40:	80801f26 	beq	r16,r2,8001ac0 <start_pass_coef+0xac>
 8001a44:	008000c4 	movi	r2,3
 8001a48:	80802826 	beq	r16,r2,8001aec <start_pass_coef+0xd8>
 8001a4c:	80000b26 	beq	r16,zero,8001a7c <start_pass_coef+0x68>
      ERREXIT(cinfo, JERR_BAD_BUFFER_MODE);
    coef->pub.compress_data = compress_output;
    break;
#endif
  default:
    ERREXIT(cinfo, JERR_BAD_BUFFER_MODE);
 8001a50:	88800017 	ldw	r2,0(r17)
 8001a54:	00c00104 	movi	r3,4
 8001a58:	8809883a 	mov	r4,r17
 8001a5c:	12400017 	ldw	r9,0(r2)
 8001a60:	10c00515 	stw	r3,20(r2)
    break;
  }
}
 8001a64:	dfc00317 	ldw	ra,12(sp)
 8001a68:	dc800217 	ldw	r18,8(sp)
 8001a6c:	dc400117 	ldw	r17,4(sp)
 8001a70:	dc000017 	ldw	r16,0(sp)
 8001a74:	dec00404 	addi	sp,sp,16
      ERREXIT(cinfo, JERR_BAD_BUFFER_MODE);
    coef->pub.compress_data = compress_output;
    break;
#endif
  default:
    ERREXIT(cinfo, JERR_BAD_BUFFER_MODE);
 8001a78:	4800683a 	jmp	r9
  coef->iMCU_row_num = 0;
  start_iMCU_row(cinfo);

  switch (pass_mode) {
  case JBUF_PASS_THRU:
    if (coef->whole_image[0] != NULL)
 8001a7c:	90801017 	ldw	r2,64(r18)
 8001a80:	10000626 	beq	r2,zero,8001a9c <start_pass_coef+0x88>
      ERREXIT(cinfo, JERR_BAD_BUFFER_MODE);
 8001a84:	88800017 	ldw	r2,0(r17)
 8001a88:	00c00104 	movi	r3,4
 8001a8c:	8809883a 	mov	r4,r17
 8001a90:	11400017 	ldw	r5,0(r2)
 8001a94:	10c00515 	stw	r3,20(r2)
 8001a98:	283ee83a 	callr	r5
    coef->pub.compress_data = compress_data;
 8001a9c:	00820034 	movhi	r2,2048
 8001aa0:	10886404 	addi	r2,r2,8592
 8001aa4:	90800115 	stw	r2,4(r18)
#endif
  default:
    ERREXIT(cinfo, JERR_BAD_BUFFER_MODE);
    break;
  }
}
 8001aa8:	dfc00317 	ldw	ra,12(sp)
 8001aac:	dc800217 	ldw	r18,8(sp)
 8001ab0:	dc400117 	ldw	r17,4(sp)
 8001ab4:	dc000017 	ldw	r16,0(sp)
 8001ab8:	dec00404 	addi	sp,sp,16
 8001abc:	f800283a 	ret
    if (coef->whole_image[0] == NULL)
      ERREXIT(cinfo, JERR_BAD_BUFFER_MODE);
    coef->pub.compress_data = compress_first_pass;
    break;
  case JBUF_CRANK_DEST:
    if (coef->whole_image[0] == NULL)
 8001ac0:	90801017 	ldw	r2,64(r18)
 8001ac4:	10001b26 	beq	r2,zero,8001b34 <start_pass_coef+0x120>
      ERREXIT(cinfo, JERR_BAD_BUFFER_MODE);
    coef->pub.compress_data = compress_output;
 8001ac8:	00820034 	movhi	r2,2048
 8001acc:	1086d404 	addi	r2,r2,6992
 8001ad0:	90800115 	stw	r2,4(r18)
#endif
  default:
    ERREXIT(cinfo, JERR_BAD_BUFFER_MODE);
    break;
  }
}
 8001ad4:	dfc00317 	ldw	ra,12(sp)
 8001ad8:	dc800217 	ldw	r18,8(sp)
 8001adc:	dc400117 	ldw	r17,4(sp)
 8001ae0:	dc000017 	ldw	r16,0(sp)
 8001ae4:	dec00404 	addi	sp,sp,16
 8001ae8:	f800283a 	ret
      ERREXIT(cinfo, JERR_BAD_BUFFER_MODE);
    coef->pub.compress_data = compress_data;
    break;
#ifdef FULL_COEF_BUFFER_SUPPORTED
  case JBUF_SAVE_AND_PASS:
    if (coef->whole_image[0] == NULL)
 8001aec:	90801017 	ldw	r2,64(r18)
 8001af0:	10000926 	beq	r2,zero,8001b18 <start_pass_coef+0x104>
      ERREXIT(cinfo, JERR_BAD_BUFFER_MODE);
    coef->pub.compress_data = compress_first_pass;
 8001af4:	00820034 	movhi	r2,2048
 8001af8:	1087ab04 	addi	r2,r2,7852
 8001afc:	90800115 	stw	r2,4(r18)
#endif
  default:
    ERREXIT(cinfo, JERR_BAD_BUFFER_MODE);
    break;
  }
}
 8001b00:	dfc00317 	ldw	ra,12(sp)
 8001b04:	dc800217 	ldw	r18,8(sp)
 8001b08:	dc400117 	ldw	r17,4(sp)
 8001b0c:	dc000017 	ldw	r16,0(sp)
 8001b10:	dec00404 	addi	sp,sp,16
 8001b14:	f800283a 	ret
    coef->pub.compress_data = compress_data;
    break;
#ifdef FULL_COEF_BUFFER_SUPPORTED
  case JBUF_SAVE_AND_PASS:
    if (coef->whole_image[0] == NULL)
      ERREXIT(cinfo, JERR_BAD_BUFFER_MODE);
 8001b18:	88800017 	ldw	r2,0(r17)
 8001b1c:	00c00104 	movi	r3,4
 8001b20:	8809883a 	mov	r4,r17
 8001b24:	11400017 	ldw	r5,0(r2)
 8001b28:	10c00515 	stw	r3,20(r2)
 8001b2c:	283ee83a 	callr	r5
 8001b30:	003ff006 	br	8001af4 <start_pass_coef+0xe0>
    coef->pub.compress_data = compress_first_pass;
    break;
  case JBUF_CRANK_DEST:
    if (coef->whole_image[0] == NULL)
      ERREXIT(cinfo, JERR_BAD_BUFFER_MODE);
 8001b34:	88800017 	ldw	r2,0(r17)
 8001b38:	00c00104 	movi	r3,4
 8001b3c:	8809883a 	mov	r4,r17
 8001b40:	11400017 	ldw	r5,0(r2)
 8001b44:	10c00515 	stw	r3,20(r2)
 8001b48:	283ee83a 	callr	r5
 8001b4c:	003fde06 	br	8001ac8 <start_pass_coef+0xb4>

08001b50 <compress_output>:

  /* Align the virtual buffers for the components used in this scan.
   * NB: during first pass, this is safe only because the buffers will
   * already be aligned properly, so jmemmgr.c won't need to do any I/O.
   */
  for (ci = 0; ci < cinfo->comps_in_scan; ci++) {
 8001b50:	20803b17 	ldw	r2,236(r4)
 * NB: input_buf is ignored; it is likely to be a NULL pointer.
 */

METHODDEF(boolean)
compress_output (j_compress_ptr cinfo, JSAMPIMAGE input_buf)
{
 8001b54:	deffed04 	addi	sp,sp,-76
 8001b58:	dc800b15 	stw	r18,44(sp)
 8001b5c:	dfc01215 	stw	ra,72(sp)
 8001b60:	df001115 	stw	fp,68(sp)
 8001b64:	ddc01015 	stw	r23,64(sp)
 8001b68:	dd800f15 	stw	r22,60(sp)
 8001b6c:	dd400e15 	stw	r21,56(sp)
 8001b70:	dd000d15 	stw	r20,52(sp)
 8001b74:	dcc00c15 	stw	r19,48(sp)
 8001b78:	dc400a15 	stw	r17,40(sp)
 8001b7c:	dc000915 	stw	r16,36(sp)
 8001b80:	d9000615 	stw	r4,24(sp)
  my_coef_ptr coef = (my_coef_ptr) cinfo->coef;
 8001b84:	24805417 	ldw	r18,336(r4)

  /* Align the virtual buffers for the components used in this scan.
   * NB: during first pass, this is safe only because the buffers will
   * already be aligned properly, so jmemmgr.c won't need to do any I/O.
   */
  for (ci = 0; ci < cinfo->comps_in_scan; ci++) {
 8001b88:	00801c0e 	bge	zero,r2,8001bfc <compress_output+0xac>
 8001b8c:	2029883a 	mov	r20,r4
 8001b90:	002b883a 	mov	r21,zero
 8001b94:	dd800104 	addi	r22,sp,4
    compptr = cinfo->cur_comp_info[ci];
 8001b98:	a0803c17 	ldw	r2,240(r20)
    buffer[ci] = (*cinfo->mem->access_virt_barray)
 8001b9c:	d8c00617 	ldw	r3,24(sp)
 8001ba0:	91400217 	ldw	r5,8(r18)
 8001ba4:	14000117 	ldw	r16,4(r2)
 8001ba8:	14c00317 	ldw	r19,12(r2)
 8001bac:	1c400117 	ldw	r17,4(r3)
 8001bb0:	8421883a 	add	r16,r16,r16
 8001bb4:	9809883a 	mov	r4,r19
 8001bb8:	8421883a 	add	r16,r16,r16
 8001bbc:	801ec440 	call	801ec44 <__mulsi3>
 8001bc0:	84a1883a 	add	r16,r16,r18
 8001bc4:	d8000015 	stw	zero,0(sp)
 8001bc8:	81401017 	ldw	r5,64(r16)
 8001bcc:	d9000617 	ldw	r4,24(sp)
 8001bd0:	88c00817 	ldw	r3,32(r17)
 8001bd4:	100d883a 	mov	r6,r2
 8001bd8:	980f883a 	mov	r7,r19
 8001bdc:	183ee83a 	callr	r3

  /* Align the virtual buffers for the components used in this scan.
   * NB: during first pass, this is safe only because the buffers will
   * already be aligned properly, so jmemmgr.c won't need to do any I/O.
   */
  for (ci = 0; ci < cinfo->comps_in_scan; ci++) {
 8001be0:	d9400617 	ldw	r5,24(sp)
 8001be4:	ad400044 	addi	r21,r21,1
    compptr = cinfo->cur_comp_info[ci];
    buffer[ci] = (*cinfo->mem->access_virt_barray)
 8001be8:	b0800015 	stw	r2,0(r22)

  /* Align the virtual buffers for the components used in this scan.
   * NB: during first pass, this is safe only because the buffers will
   * already be aligned properly, so jmemmgr.c won't need to do any I/O.
   */
  for (ci = 0; ci < cinfo->comps_in_scan; ci++) {
 8001bec:	29003b17 	ldw	r4,236(r5)
 8001bf0:	a5000104 	addi	r20,r20,4
 8001bf4:	b5800104 	addi	r22,r22,4
 8001bf8:	a93fe716 	blt	r21,r4,8001b98 <compress_output+0x48>
       coef->iMCU_row_num * compptr->v_samp_factor,
       (JDIMENSION) compptr->v_samp_factor, FALSE);
  }

  /* Loop to process one whole iMCU row */
  for (yoffset = coef->MCU_vert_offset; yoffset < coef->MCU_rows_per_iMCU_row;
 8001bfc:	90800417 	ldw	r2,16(r18)
 8001c00:	90c00517 	ldw	r3,20(r18)
 8001c04:	d8800515 	stw	r2,20(sp)
 8001c08:	10c0470e 	bge	r2,r3,8001d28 <compress_output+0x1d8>
 8001c0c:	1085883a 	add	r2,r2,r2
 8001c10:	91400604 	addi	r5,r18,24
 8001c14:	10b9883a 	add	fp,r2,r2
 8001c18:	d9400815 	stw	r5,32(sp)
       yoffset++) {
    for (MCU_col_num = coef->mcu_ctr; MCU_col_num < cinfo->MCUs_per_row;
 8001c1c:	d9000617 	ldw	r4,24(sp)
 8001c20:	95c00317 	ldw	r23,12(r18)
 8001c24:	20804017 	ldw	r2,256(r4)
 8001c28:	b880392e 	bgeu	r23,r2,8001d10 <compress_output+0x1c0>
	 MCU_col_num++) {
      /* Construct list of pointers to DCT blocks belonging to this MCU */
      blkn = 0;			/* index of current DCT block within MCU */
      for (ci = 0; ci < cinfo->comps_in_scan; ci++) {
 8001c2c:	d8800617 	ldw	r2,24(sp)
 8001c30:	10803b17 	ldw	r2,236(r2)
 8001c34:	d8800715 	stw	r2,28(sp)
 8001c38:	0080290e 	bge	zero,r2,8001ce0 <compress_output+0x190>
 8001c3c:	dd800617 	ldw	r22,24(sp)
 8001c40:	0023883a 	mov	r17,zero
 8001c44:	002b883a 	mov	r21,zero
 8001c48:	dd000104 	addi	r20,sp,4
	compptr = cinfo->cur_comp_info[ci];
 8001c4c:	b0803c17 	ldw	r2,240(r22)
	start_col = MCU_col_num * compptr->MCU_width;
	for (yindex = 0; yindex < compptr->MCU_height; yindex++) {
 8001c50:	14c00e17 	ldw	r19,56(r2)
	 MCU_col_num++) {
      /* Construct list of pointers to DCT blocks belonging to this MCU */
      blkn = 0;			/* index of current DCT block within MCU */
      for (ci = 0; ci < cinfo->comps_in_scan; ci++) {
	compptr = cinfo->cur_comp_info[ci];
	start_col = MCU_col_num * compptr->MCU_width;
 8001c54:	14000d17 	ldw	r16,52(r2)
	for (yindex = 0; yindex < compptr->MCU_height; yindex++) {
 8001c58:	04c01c0e 	bge	zero,r19,8001ccc <compress_output+0x17c>
 8001c5c:	800891fa 	slli	r4,r16,7
 8001c60:	b80b883a 	mov	r5,r23
 8001c64:	801ec440 	call	801ec44 <__mulsi3>
 8001c68:	1015883a 	mov	r10,r2
 8001c6c:	a0800017 	ldw	r2,0(r20)
 8001c70:	8c47883a 	add	r3,r17,r17
 8001c74:	18c7883a 	add	r3,r3,r3
 8001c78:	8409883a 	add	r4,r16,r16
 8001c7c:	e08f883a 	add	r7,fp,r2
 8001c80:	18c00604 	addi	r3,r3,24
 8001c84:	2109883a 	add	r4,r4,r4
 8001c88:	0011883a 	mov	r8,zero
 8001c8c:	82400050 	cmplti	r9,r16,1
	  buffer_ptr = buffer[ci][yindex+yoffset] + start_col;
 8001c90:	38800017 	ldw	r2,0(r7)
	  for (xindex = 0; xindex < compptr->MCU_width; xindex++) {
 8001c94:	48000a1e 	bne	r9,zero,8001cc0 <compress_output+0x170>
      blkn = 0;			/* index of current DCT block within MCU */
      for (ci = 0; ci < cinfo->comps_in_scan; ci++) {
	compptr = cinfo->cur_comp_info[ci];
	start_col = MCU_col_num * compptr->MCU_width;
	for (yindex = 0; yindex < compptr->MCU_height; yindex++) {
	  buffer_ptr = buffer[ci][yindex+yoffset] + start_col;
 8001c98:	128b883a 	add	r5,r2,r10
 8001c9c:	000d883a 	mov	r6,zero
 8001ca0:	90c5883a 	add	r2,r18,r3
	  for (xindex = 0; xindex < compptr->MCU_width; xindex++) {
 8001ca4:	31800044 	addi	r6,r6,1
	    coef->MCU_buffer[blkn++] = buffer_ptr++;
 8001ca8:	11400015 	stw	r5,0(r2)
 8001cac:	29402004 	addi	r5,r5,128
      for (ci = 0; ci < cinfo->comps_in_scan; ci++) {
	compptr = cinfo->cur_comp_info[ci];
	start_col = MCU_col_num * compptr->MCU_width;
	for (yindex = 0; yindex < compptr->MCU_height; yindex++) {
	  buffer_ptr = buffer[ci][yindex+yoffset] + start_col;
	  for (xindex = 0; xindex < compptr->MCU_width; xindex++) {
 8001cb0:	10800104 	addi	r2,r2,4
 8001cb4:	81bffb1e 	bne	r16,r6,8001ca4 <compress_output+0x154>
 8001cb8:	8c23883a 	add	r17,r17,r16
 8001cbc:	1907883a 	add	r3,r3,r4
      /* Construct list of pointers to DCT blocks belonging to this MCU */
      blkn = 0;			/* index of current DCT block within MCU */
      for (ci = 0; ci < cinfo->comps_in_scan; ci++) {
	compptr = cinfo->cur_comp_info[ci];
	start_col = MCU_col_num * compptr->MCU_width;
	for (yindex = 0; yindex < compptr->MCU_height; yindex++) {
 8001cc0:	42000044 	addi	r8,r8,1
 8001cc4:	39c00104 	addi	r7,r7,4
 8001cc8:	44fff11e 	bne	r8,r19,8001c90 <compress_output+0x140>
       yoffset++) {
    for (MCU_col_num = coef->mcu_ctr; MCU_col_num < cinfo->MCUs_per_row;
	 MCU_col_num++) {
      /* Construct list of pointers to DCT blocks belonging to this MCU */
      blkn = 0;			/* index of current DCT block within MCU */
      for (ci = 0; ci < cinfo->comps_in_scan; ci++) {
 8001ccc:	d9400717 	ldw	r5,28(sp)
 8001cd0:	ad400044 	addi	r21,r21,1
 8001cd4:	b5800104 	addi	r22,r22,4
 8001cd8:	a5000104 	addi	r20,r20,4
 8001cdc:	a97fdb16 	blt	r21,r5,8001c4c <compress_output+0xfc>
	    coef->MCU_buffer[blkn++] = buffer_ptr++;
	  }
	}
      }
      /* Try to write the MCU. */
      if (! (*cinfo->entropy->encode_mcu) (cinfo, coef->MCU_buffer)) {
 8001ce0:	d8c00617 	ldw	r3,24(sp)
 8001ce4:	d9400817 	ldw	r5,32(sp)
 8001ce8:	18805917 	ldw	r2,356(r3)
 8001cec:	1809883a 	mov	r4,r3
 8001cf0:	10c00117 	ldw	r3,4(r2)
 8001cf4:	183ee83a 	callr	r3
 8001cf8:	10001226 	beq	r2,zero,8001d44 <compress_output+0x1f4>
  }

  /* Loop to process one whole iMCU row */
  for (yoffset = coef->MCU_vert_offset; yoffset < coef->MCU_rows_per_iMCU_row;
       yoffset++) {
    for (MCU_col_num = coef->mcu_ctr; MCU_col_num < cinfo->MCUs_per_row;
 8001cfc:	d9400617 	ldw	r5,24(sp)
	 MCU_col_num++) {
 8001d00:	bdc00044 	addi	r23,r23,1
  }

  /* Loop to process one whole iMCU row */
  for (yoffset = coef->MCU_vert_offset; yoffset < coef->MCU_rows_per_iMCU_row;
       yoffset++) {
    for (MCU_col_num = coef->mcu_ctr; MCU_col_num < cinfo->MCUs_per_row;
 8001d04:	28804017 	ldw	r2,256(r5)
 8001d08:	b8bfc836 	bltu	r23,r2,8001c2c <compress_output+0xdc>
 8001d0c:	90c00517 	ldw	r3,20(r18)
       (JDIMENSION) compptr->v_samp_factor, FALSE);
  }

  /* Loop to process one whole iMCU row */
  for (yoffset = coef->MCU_vert_offset; yoffset < coef->MCU_rows_per_iMCU_row;
       yoffset++) {
 8001d10:	d9000517 	ldw	r4,20(sp)
	coef->mcu_ctr = MCU_col_num;
	return FALSE;
      }
    }
    /* Completed an MCU row, but perhaps not an iMCU row */
    coef->mcu_ctr = 0;
 8001d14:	90000315 	stw	zero,12(r18)
       (JDIMENSION) compptr->v_samp_factor, FALSE);
  }

  /* Loop to process one whole iMCU row */
  for (yoffset = coef->MCU_vert_offset; yoffset < coef->MCU_rows_per_iMCU_row;
       yoffset++) {
 8001d18:	e7000104 	addi	fp,fp,4
 8001d1c:	21000044 	addi	r4,r4,1
 8001d20:	d9000515 	stw	r4,20(sp)
       coef->iMCU_row_num * compptr->v_samp_factor,
       (JDIMENSION) compptr->v_samp_factor, FALSE);
  }

  /* Loop to process one whole iMCU row */
  for (yoffset = coef->MCU_vert_offset; yoffset < coef->MCU_rows_per_iMCU_row;
 8001d24:	20ffbd16 	blt	r4,r3,8001c1c <compress_output+0xcc>
    }
    /* Completed an MCU row, but perhaps not an iMCU row */
    coef->mcu_ctr = 0;
  }
  /* Completed the iMCU row, advance counters for next one */
  coef->iMCU_row_num++;
 8001d28:	90800217 	ldw	r2,8(r18)
  start_iMCU_row(cinfo);
 8001d2c:	d9000617 	ldw	r4,24(sp)
    }
    /* Completed an MCU row, but perhaps not an iMCU row */
    coef->mcu_ctr = 0;
  }
  /* Completed the iMCU row, advance counters for next one */
  coef->iMCU_row_num++;
 8001d30:	10800044 	addi	r2,r2,1
 8001d34:	90800215 	stw	r2,8(r18)
  start_iMCU_row(cinfo);
 8001d38:	80019c00 	call	80019c0 <start_iMCU_row>
 8001d3c:	00800044 	movi	r2,1
 8001d40:	00000306 	br	8001d50 <compress_output+0x200>
	}
      }
      /* Try to write the MCU. */
      if (! (*cinfo->entropy->encode_mcu) (cinfo, coef->MCU_buffer)) {
	/* Suspension forced; update state counters and exit */
	coef->MCU_vert_offset = yoffset;
 8001d44:	d9000517 	ldw	r4,20(sp)
	coef->mcu_ctr = MCU_col_num;
 8001d48:	95c00315 	stw	r23,12(r18)
	}
      }
      /* Try to write the MCU. */
      if (! (*cinfo->entropy->encode_mcu) (cinfo, coef->MCU_buffer)) {
	/* Suspension forced; update state counters and exit */
	coef->MCU_vert_offset = yoffset;
 8001d4c:	91000415 	stw	r4,16(r18)
  }
  /* Completed the iMCU row, advance counters for next one */
  coef->iMCU_row_num++;
  start_iMCU_row(cinfo);
  return TRUE;
}
 8001d50:	dfc01217 	ldw	ra,72(sp)
 8001d54:	df001117 	ldw	fp,68(sp)
 8001d58:	ddc01017 	ldw	r23,64(sp)
 8001d5c:	dd800f17 	ldw	r22,60(sp)
 8001d60:	dd400e17 	ldw	r21,56(sp)
 8001d64:	dd000d17 	ldw	r20,52(sp)
 8001d68:	dcc00c17 	ldw	r19,48(sp)
 8001d6c:	dc800b17 	ldw	r18,44(sp)
 8001d70:	dc400a17 	ldw	r17,40(sp)
 8001d74:	dc000917 	ldw	r16,36(sp)
 8001d78:	dec01304 	addi	sp,sp,76
 8001d7c:	f800283a 	ret

08001d80 <jinit_c_coef_controller>:
GLOBAL(void)
jinit_c_coef_controller (j_compress_ptr cinfo, boolean need_full_buffer)
{
  my_coef_ptr coef;

  coef = (my_coef_ptr)
 8001d80:	20800117 	ldw	r2,4(r4)
 * Initialize coefficient buffer controller.
 */

GLOBAL(void)
jinit_c_coef_controller (j_compress_ptr cinfo, boolean need_full_buffer)
{
 8001d84:	defff704 	addi	sp,sp,-36
 8001d88:	dcc00515 	stw	r19,20(sp)
  my_coef_ptr coef;

  coef = (my_coef_ptr)
 8001d8c:	10c00017 	ldw	r3,0(r2)
 * Initialize coefficient buffer controller.
 */

GLOBAL(void)
jinit_c_coef_controller (j_compress_ptr cinfo, boolean need_full_buffer)
{
 8001d90:	dc800415 	stw	r18,16(sp)
 8001d94:	dc400315 	stw	r17,12(sp)
 8001d98:	dfc00815 	stw	ra,32(sp)
 8001d9c:	dd400715 	stw	r21,28(sp)
 8001da0:	dd000615 	stw	r20,24(sp)
 8001da4:	dc000215 	stw	r16,8(sp)
 8001da8:	2823883a 	mov	r17,r5
  my_coef_ptr coef;

  coef = (my_coef_ptr)
 8001dac:	01801a04 	movi	r6,104
 8001db0:	01400044 	movi	r5,1
 * Initialize coefficient buffer controller.
 */

GLOBAL(void)
jinit_c_coef_controller (j_compress_ptr cinfo, boolean need_full_buffer)
{
 8001db4:	2027883a 	mov	r19,r4
  my_coef_ptr coef;

  coef = (my_coef_ptr)
 8001db8:	183ee83a 	callr	r3
 8001dbc:	1025883a 	mov	r18,r2
    (*cinfo->mem->alloc_small) ((j_common_ptr) cinfo, JPOOL_IMAGE,
				SIZEOF(my_coef_controller));
  cinfo->coef = (struct jpeg_c_coef_controller *) coef;
  coef->pub.start_pass = start_pass_coef;
 8001dc0:	00820034 	movhi	r2,2048
 8001dc4:	10868504 	addi	r2,r2,6676
 8001dc8:	90800015 	stw	r2,0(r18)
  my_coef_ptr coef;

  coef = (my_coef_ptr)
    (*cinfo->mem->alloc_small) ((j_common_ptr) cinfo, JPOOL_IMAGE,
				SIZEOF(my_coef_controller));
  cinfo->coef = (struct jpeg_c_coef_controller *) coef;
 8001dcc:	9c805415 	stw	r18,336(r19)
  coef->pub.start_pass = start_pass_coef;

  /* Create the coefficient buffer. */
  if (need_full_buffer) {
 8001dd0:	88002526 	beq	r17,zero,8001e68 <jinit_c_coef_controller+0xe8>
    /* Allocate a full-image virtual array for each component, */
    /* padded to a multiple of samp_factor DCT blocks in each direction. */
    int ci;
    jpeg_component_info *compptr;

    for (ci = 0, compptr = cinfo->comp_info; ci < cinfo->num_components;
 8001dd4:	98800d17 	ldw	r2,52(r19)
 8001dd8:	9c000f17 	ldw	r16,60(r19)
 8001ddc:	0080190e 	bge	zero,r2,8001e44 <jinit_c_coef_controller+0xc4>
 8001de0:	9029883a 	mov	r20,r18
 8001de4:	002b883a 	mov	r21,zero
	 ci++, compptr++) {
      coef->whole_image[ci] = (*cinfo->mem->request_virt_barray)
 8001de8:	81000717 	ldw	r4,28(r16)
 8001dec:	81400217 	ldw	r5,8(r16)
 8001df0:	98800117 	ldw	r2,4(r19)
    /* padded to a multiple of samp_factor DCT blocks in each direction. */
    int ci;
    jpeg_component_info *compptr;

    for (ci = 0, compptr = cinfo->comp_info; ci < cinfo->num_components;
	 ci++, compptr++) {
 8001df4:	ad400044 	addi	r21,r21,1
      coef->whole_image[ci] = (*cinfo->mem->request_virt_barray)
 8001df8:	14800517 	ldw	r18,20(r2)
 8001dfc:	801ba280 	call	801ba28 <jround_up>
 8001e00:	81000817 	ldw	r4,32(r16)
 8001e04:	81400317 	ldw	r5,12(r16)
 8001e08:	1023883a 	mov	r17,r2
 8001e0c:	801ba280 	call	801ba28 <jround_up>
 8001e10:	d8800015 	stw	r2,0(sp)
 8001e14:	80800317 	ldw	r2,12(r16)
 8001e18:	880f883a 	mov	r7,r17
 8001e1c:	9809883a 	mov	r4,r19
 8001e20:	d8800115 	stw	r2,4(sp)
 8001e24:	01400044 	movi	r5,1
 8001e28:	000d883a 	mov	r6,zero
 8001e2c:	903ee83a 	callr	r18
    /* Allocate a full-image virtual array for each component, */
    /* padded to a multiple of samp_factor DCT blocks in each direction. */
    int ci;
    jpeg_component_info *compptr;

    for (ci = 0, compptr = cinfo->comp_info; ci < cinfo->num_components;
 8001e30:	98c00d17 	ldw	r3,52(r19)
	 ci++, compptr++) {
      coef->whole_image[ci] = (*cinfo->mem->request_virt_barray)
 8001e34:	a0801015 	stw	r2,64(r20)
    /* padded to a multiple of samp_factor DCT blocks in each direction. */
    int ci;
    jpeg_component_info *compptr;

    for (ci = 0, compptr = cinfo->comp_info; ci < cinfo->num_components;
	 ci++, compptr++) {
 8001e38:	84001504 	addi	r16,r16,84
 8001e3c:	a5000104 	addi	r20,r20,4
    /* Allocate a full-image virtual array for each component, */
    /* padded to a multiple of samp_factor DCT blocks in each direction. */
    int ci;
    jpeg_component_info *compptr;

    for (ci = 0, compptr = cinfo->comp_info; ci < cinfo->num_components;
 8001e40:	a8ffe916 	blt	r21,r3,8001de8 <jinit_c_coef_controller+0x68>
    for (i = 0; i < C_MAX_BLOCKS_IN_MCU; i++) {
      coef->MCU_buffer[i] = buffer + i;
    }
    coef->whole_image[0] = NULL; /* flag for no virtual arrays */
  }
}
 8001e44:	dfc00817 	ldw	ra,32(sp)
 8001e48:	dd400717 	ldw	r21,28(sp)
 8001e4c:	dd000617 	ldw	r20,24(sp)
 8001e50:	dcc00517 	ldw	r19,20(sp)
 8001e54:	dc800417 	ldw	r18,16(sp)
 8001e58:	dc400317 	ldw	r17,12(sp)
 8001e5c:	dc000217 	ldw	r16,8(sp)
 8001e60:	dec00904 	addi	sp,sp,36
 8001e64:	f800283a 	ret
  } else {
    /* We only need a single-MCU buffer. */
    JBLOCKROW buffer;
    int i;

    buffer = (JBLOCKROW)
 8001e68:	98800117 	ldw	r2,4(r19)
 8001e6c:	9809883a 	mov	r4,r19
 8001e70:	01400044 	movi	r5,1
 8001e74:	10c00117 	ldw	r3,4(r2)
 8001e78:	01814004 	movi	r6,1280
 8001e7c:	183ee83a 	callr	r3
 8001e80:	100b883a 	mov	r5,r2
 8001e84:	9007883a 	mov	r3,r18
 8001e88:	0009883a 	mov	r4,zero
 8001e8c:	01814004 	movi	r6,1280
      (*cinfo->mem->alloc_large) ((j_common_ptr) cinfo, JPOOL_IMAGE,
				  C_MAX_BLOCKS_IN_MCU * SIZEOF(JBLOCK));
    for (i = 0; i < C_MAX_BLOCKS_IN_MCU; i++) {
      coef->MCU_buffer[i] = buffer + i;
 8001e90:	2905883a 	add	r2,r5,r4
 8001e94:	21002004 	addi	r4,r4,128
 8001e98:	18800615 	stw	r2,24(r3)
 8001e9c:	18c00104 	addi	r3,r3,4
    int i;

    buffer = (JBLOCKROW)
      (*cinfo->mem->alloc_large) ((j_common_ptr) cinfo, JPOOL_IMAGE,
				  C_MAX_BLOCKS_IN_MCU * SIZEOF(JBLOCK));
    for (i = 0; i < C_MAX_BLOCKS_IN_MCU; i++) {
 8001ea0:	21bffb1e 	bne	r4,r6,8001e90 <jinit_c_coef_controller+0x110>
      coef->MCU_buffer[i] = buffer + i;
    }
    coef->whole_image[0] = NULL; /* flag for no virtual arrays */
 8001ea4:	90001015 	stw	zero,64(r18)
 8001ea8:	003fe606 	br	8001e44 <jinit_c_coef_controller+0xc4>

08001eac <compress_first_pass>:

METHODDEF(boolean)
compress_first_pass (j_compress_ptr cinfo, JSAMPIMAGE input_buf)
{
  my_coef_ptr coef = (my_coef_ptr) cinfo->coef;
  JDIMENSION last_iMCU_row = cinfo->total_iMCU_rows - 1;
 8001eac:	20803a17 	ldw	r2,232(r4)
 * at the scan-dependent variables (MCU dimensions, etc).
 */

METHODDEF(boolean)
compress_first_pass (j_compress_ptr cinfo, JSAMPIMAGE input_buf)
{
 8001eb0:	deffe604 	addi	sp,sp,-104
  JCOEF lastDC;
  jpeg_component_info *compptr;
  JBLOCKARRAY buffer;
  JBLOCKROW thisblockrow, lastblockrow;

  for (ci = 0, compptr = cinfo->comp_info; ci < cinfo->num_components;
 8001eb4:	20c00d17 	ldw	r3,52(r4)

METHODDEF(boolean)
compress_first_pass (j_compress_ptr cinfo, JSAMPIMAGE input_buf)
{
  my_coef_ptr coef = (my_coef_ptr) cinfo->coef;
  JDIMENSION last_iMCU_row = cinfo->total_iMCU_rows - 1;
 8001eb8:	10bfffc4 	addi	r2,r2,-1
 8001ebc:	d8800915 	stw	r2,36(sp)
 */

METHODDEF(boolean)
compress_first_pass (j_compress_ptr cinfo, JSAMPIMAGE input_buf)
{
  my_coef_ptr coef = (my_coef_ptr) cinfo->coef;
 8001ec0:	20805417 	ldw	r2,336(r4)
 * at the scan-dependent variables (MCU dimensions, etc).
 */

METHODDEF(boolean)
compress_first_pass (j_compress_ptr cinfo, JSAMPIMAGE input_buf)
{
 8001ec4:	df001815 	stw	fp,96(sp)
 8001ec8:	dfc01915 	stw	ra,100(sp)
  my_coef_ptr coef = (my_coef_ptr) cinfo->coef;
 8001ecc:	d8800a15 	stw	r2,40(sp)
  JCOEF lastDC;
  jpeg_component_info *compptr;
  JBLOCKARRAY buffer;
  JBLOCKROW thisblockrow, lastblockrow;

  for (ci = 0, compptr = cinfo->comp_info; ci < cinfo->num_components;
 8001ed0:	20800f17 	ldw	r2,60(r4)
 * at the scan-dependent variables (MCU dimensions, etc).
 */

METHODDEF(boolean)
compress_first_pass (j_compress_ptr cinfo, JSAMPIMAGE input_buf)
{
 8001ed4:	ddc01715 	stw	r23,92(sp)
 8001ed8:	dd801615 	stw	r22,88(sp)
 8001edc:	dd401515 	stw	r21,84(sp)
 8001ee0:	dd001415 	stw	r20,80(sp)
 8001ee4:	dcc01315 	stw	r19,76(sp)
 8001ee8:	dc801215 	stw	r18,72(sp)
 8001eec:	dc401115 	stw	r17,68(sp)
 8001ef0:	dc001015 	stw	r16,64(sp)
 8001ef4:	2039883a 	mov	fp,r4
 8001ef8:	d9400d15 	stw	r5,52(sp)
  JCOEF lastDC;
  jpeg_component_info *compptr;
  JBLOCKARRAY buffer;
  JBLOCKROW thisblockrow, lastblockrow;

  for (ci = 0, compptr = cinfo->comp_info; ci < cinfo->num_components;
 8001efc:	d8800715 	stw	r2,28(sp)
 8001f00:	00c0950e 	bge	zero,r3,8002158 <compress_first_pass+0x2ac>
 8001f04:	d8c00a17 	ldw	r3,40(sp)
 8001f08:	d9400315 	stw	r5,12(sp)
 8001f0c:	d8000815 	stw	zero,32(sp)
 8001f10:	d8c00415 	stw	r3,16(sp)
       ci++, compptr++) {
    /* Align the virtual buffer for this component. */
    buffer = (*cinfo->mem->access_virt_barray)
 8001f14:	d8800717 	ldw	r2,28(sp)
 8001f18:	d8c00a17 	ldw	r3,40(sp)
 8001f1c:	e4000117 	ldw	r16,4(fp)
 8001f20:	14800317 	ldw	r18,12(r2)
 8001f24:	19400217 	ldw	r5,8(r3)
 8001f28:	9009883a 	mov	r4,r18
 8001f2c:	801ec440 	call	801ec44 <__mulsi3>
 8001f30:	d8c00417 	ldw	r3,16(sp)
 8001f34:	100d883a 	mov	r6,r2
 8001f38:	900f883a 	mov	r7,r18
 8001f3c:	19401017 	ldw	r5,64(r3)
 8001f40:	00c00044 	movi	r3,1
 8001f44:	d8c00015 	stw	r3,0(sp)
 8001f48:	82000817 	ldw	r8,32(r16)
 8001f4c:	e009883a 	mov	r4,fp
 8001f50:	403ee83a 	callr	r8
 8001f54:	d8800615 	stw	r2,24(sp)
      ((j_common_ptr) cinfo, coef->whole_image[ci],
       coef->iMCU_row_num * compptr->v_samp_factor,
       (JDIMENSION) compptr->v_samp_factor, TRUE);
    /* Count non-dummy DCT block rows in this iMCU row. */
    if (coef->iMCU_row_num < last_iMCU_row)
 8001f58:	d8800a17 	ldw	r2,40(sp)
 8001f5c:	d8c00917 	ldw	r3,36(sp)
 8001f60:	14000217 	ldw	r16,8(r2)
 8001f64:	80c0462e 	bgeu	r16,r3,8002080 <compress_first_pass+0x1d4>
      block_rows = compptr->v_samp_factor;
 8001f68:	d8800717 	ldw	r2,28(sp)
 8001f6c:	15c00317 	ldw	r23,12(r2)
    else {
      /* NB: can't use last_row_height here, since may not be set! */
      block_rows = (int) (compptr->height_in_blocks % compptr->v_samp_factor);
      if (block_rows == 0) block_rows = compptr->v_samp_factor;
    }
    blocks_across = compptr->width_in_blocks;
 8001f70:	d8800717 	ldw	r2,28(sp)
 8001f74:	15800717 	ldw	r22,28(r2)
    h_samp_factor = compptr->h_samp_factor;
 8001f78:	14800217 	ldw	r18,8(r2)
    /* Count number of dummy blocks to be added at the right margin. */
    ndummy = (int) (blocks_across % h_samp_factor);
 8001f7c:	b009883a 	mov	r4,r22
 8001f80:	900b883a 	mov	r5,r18
 8001f84:	801ec3c0 	call	801ec3c <__umodsi3>
 8001f88:	1023883a 	mov	r17,r2
    if (ndummy > 0)
 8001f8c:	0080010e 	bge	zero,r2,8001f94 <compress_first_pass+0xe8>
      ndummy = h_samp_factor - ndummy;
 8001f90:	90a3c83a 	sub	r17,r18,r2
    /* Perform DCT for all non-dummy blocks in this iMCU row.  Each call
     * on forward_DCT processes a complete horizontal row of DCT blocks.
     */
    for (block_row = 0; block_row < block_rows; block_row++) {
 8001f94:	05c0280e 	bge	zero,r23,8002038 <compress_first_pass+0x18c>
				   input_buf[ci], thisblockrow,
				   (JDIMENSION) (block_row * DCTSIZE),
				   (JDIMENSION) 0, blocks_across);
      if (ndummy > 0) {
	/* Create dummy blocks at the right edge of the image. */
	thisblockrow += blocks_across; /* => first dummy block */
 8001f98:	b00691fa 	slli	r3,r22,7
	jzero_far((void FAR *) thisblockrow, ndummy * SIZEOF(JBLOCK));
 8001f9c:	880491fa 	slli	r2,r17,7
 8001fa0:	dcc00617 	ldw	r19,24(sp)
				   input_buf[ci], thisblockrow,
				   (JDIMENSION) (block_row * DCTSIZE),
				   (JDIMENSION) 0, blocks_across);
      if (ndummy > 0) {
	/* Create dummy blocks at the right edge of the image. */
	thisblockrow += blocks_across; /* => first dummy block */
 8001fa4:	d8c00c15 	stw	r3,48(sp)
 8001fa8:	88c00050 	cmplti	r3,r17,1
	jzero_far((void FAR *) thisblockrow, ndummy * SIZEOF(JBLOCK));
 8001fac:	d8800b15 	stw	r2,44(sp)
 8001fb0:	002b883a 	mov	r21,zero
 8001fb4:	0029883a 	mov	r20,zero
 8001fb8:	d8c00e15 	stw	r3,56(sp)
    /* Perform DCT for all non-dummy blocks in this iMCU row.  Each call
     * on forward_DCT processes a complete horizontal row of DCT blocks.
     */
    for (block_row = 0; block_row < block_rows; block_row++) {
      thisblockrow = buffer[block_row];
      (*cinfo->fdct->forward_DCT) (cinfo, compptr,
 8001fbc:	e0805817 	ldw	r2,352(fp)
      ndummy = h_samp_factor - ndummy;
    /* Perform DCT for all non-dummy blocks in this iMCU row.  Each call
     * on forward_DCT processes a complete horizontal row of DCT blocks.
     */
    for (block_row = 0; block_row < block_rows; block_row++) {
      thisblockrow = buffer[block_row];
 8001fc0:	9c000017 	ldw	r16,0(r19)
      (*cinfo->fdct->forward_DCT) (cinfo, compptr,
 8001fc4:	dd000015 	stw	r20,0(sp)
 8001fc8:	d8000115 	stw	zero,4(sp)
 8001fcc:	dd800215 	stw	r22,8(sp)
 8001fd0:	10c00117 	ldw	r3,4(r2)
 8001fd4:	d8800317 	ldw	r2,12(sp)
 8001fd8:	d9400717 	ldw	r5,28(sp)
 8001fdc:	e009883a 	mov	r4,fp
 8001fe0:	11800017 	ldw	r6,0(r2)
 8001fe4:	800f883a 	mov	r7,r16
 8001fe8:	183ee83a 	callr	r3
				   input_buf[ci], thisblockrow,
				   (JDIMENSION) (block_row * DCTSIZE),
				   (JDIMENSION) 0, blocks_across);
      if (ndummy > 0) {
 8001fec:	d8c00e17 	ldw	r3,56(sp)
 8001ff0:	18000b1e 	bne	r3,zero,8002020 <compress_first_pass+0x174>
	/* Create dummy blocks at the right edge of the image. */
	thisblockrow += blocks_across; /* => first dummy block */
 8001ff4:	d8800c17 	ldw	r2,48(sp)
	jzero_far((void FAR *) thisblockrow, ndummy * SIZEOF(JBLOCK));
 8001ff8:	d9400b17 	ldw	r5,44(sp)
				   input_buf[ci], thisblockrow,
				   (JDIMENSION) (block_row * DCTSIZE),
				   (JDIMENSION) 0, blocks_across);
      if (ndummy > 0) {
	/* Create dummy blocks at the right edge of the image. */
	thisblockrow += blocks_across; /* => first dummy block */
 8001ffc:	80a1883a 	add	r16,r16,r2
	jzero_far((void FAR *) thisblockrow, ndummy * SIZEOF(JBLOCK));
 8002000:	8009883a 	mov	r4,r16
 8002004:	801ba580 	call	801ba58 <jzero_far>
	lastDC = thisblockrow[-1][0];
 8002008:	80ffe00b 	ldhu	r3,-128(r16)
 800200c:	0005883a 	mov	r2,zero
	for (bi = 0; bi < ndummy; bi++) {
 8002010:	10800044 	addi	r2,r2,1
	  thisblockrow[bi][0] = lastDC;
 8002014:	80c0000d 	sth	r3,0(r16)
      if (ndummy > 0) {
	/* Create dummy blocks at the right edge of the image. */
	thisblockrow += blocks_across; /* => first dummy block */
	jzero_far((void FAR *) thisblockrow, ndummy * SIZEOF(JBLOCK));
	lastDC = thisblockrow[-1][0];
	for (bi = 0; bi < ndummy; bi++) {
 8002018:	84002004 	addi	r16,r16,128
 800201c:	88bffc1e 	bne	r17,r2,8002010 <compress_first_pass+0x164>
    if (ndummy > 0)
      ndummy = h_samp_factor - ndummy;
    /* Perform DCT for all non-dummy blocks in this iMCU row.  Each call
     * on forward_DCT processes a complete horizontal row of DCT blocks.
     */
    for (block_row = 0; block_row < block_rows; block_row++) {
 8002020:	ad400044 	addi	r21,r21,1
 8002024:	9cc00104 	addi	r19,r19,4
 8002028:	a5000204 	addi	r20,r20,8
 800202c:	bd7fe31e 	bne	r23,r21,8001fbc <compress_first_pass+0x110>
 8002030:	d8c00a17 	ldw	r3,40(sp)
 8002034:	1c000217 	ldw	r16,8(r3)
    /* If at end of image, create dummy block rows as needed.
     * The tricky part here is that within each MCU, we want the DC values
     * of the dummy blocks to match the last real block's DC value.
     * This squeezes a few more bytes out of the resulting file...
     */
    if (coef->iMCU_row_num == last_iMCU_row) {
 8002038:	d8800917 	ldw	r2,36(sp)
 800203c:	14001826 	beq	r2,r16,80020a0 <compress_first_pass+0x1f4>
  jpeg_component_info *compptr;
  JBLOCKARRAY buffer;
  JBLOCKROW thisblockrow, lastblockrow;

  for (ci = 0, compptr = cinfo->comp_info; ci < cinfo->num_components;
       ci++, compptr++) {
 8002040:	d8c00817 	ldw	r3,32(sp)
  JCOEF lastDC;
  jpeg_component_info *compptr;
  JBLOCKARRAY buffer;
  JBLOCKROW thisblockrow, lastblockrow;

  for (ci = 0, compptr = cinfo->comp_info; ci < cinfo->num_components;
 8002044:	e0800d17 	ldw	r2,52(fp)
       ci++, compptr++) {
 8002048:	18c00044 	addi	r3,r3,1
 800204c:	d8c00815 	stw	r3,32(sp)
 8002050:	d8c00417 	ldw	r3,16(sp)
 8002054:	18c00104 	addi	r3,r3,4
 8002058:	d8c00415 	stw	r3,16(sp)
 800205c:	d8c00317 	ldw	r3,12(sp)
 8002060:	18c00104 	addi	r3,r3,4
 8002064:	d8c00315 	stw	r3,12(sp)
  JCOEF lastDC;
  jpeg_component_info *compptr;
  JBLOCKARRAY buffer;
  JBLOCKROW thisblockrow, lastblockrow;

  for (ci = 0, compptr = cinfo->comp_info; ci < cinfo->num_components;
 8002068:	d8c00817 	ldw	r3,32(sp)
 800206c:	18803a0e 	bge	r3,r2,8002158 <compress_first_pass+0x2ac>
       ci++, compptr++) {
 8002070:	d8800717 	ldw	r2,28(sp)
 8002074:	10801504 	addi	r2,r2,84
 8002078:	d8800715 	stw	r2,28(sp)
 800207c:	003fa506 	br	8001f14 <compress_first_pass+0x68>
    /* Count non-dummy DCT block rows in this iMCU row. */
    if (coef->iMCU_row_num < last_iMCU_row)
      block_rows = compptr->v_samp_factor;
    else {
      /* NB: can't use last_row_height here, since may not be set! */
      block_rows = (int) (compptr->height_in_blocks % compptr->v_samp_factor);
 8002080:	d8c00717 	ldw	r3,28(sp)
 8002084:	1dc00317 	ldw	r23,12(r3)
 8002088:	19000817 	ldw	r4,32(r3)
 800208c:	b80b883a 	mov	r5,r23
 8002090:	801ec3c0 	call	801ec3c <__umodsi3>
      if (block_rows == 0) block_rows = compptr->v_samp_factor;
 8002094:	103fb626 	beq	r2,zero,8001f70 <compress_first_pass+0xc4>
    /* Count non-dummy DCT block rows in this iMCU row. */
    if (coef->iMCU_row_num < last_iMCU_row)
      block_rows = compptr->v_samp_factor;
    else {
      /* NB: can't use last_row_height here, since may not be set! */
      block_rows = (int) (compptr->height_in_blocks % compptr->v_samp_factor);
 8002098:	102f883a 	mov	r23,r2
 800209c:	003fb406 	br	8001f70 <compress_first_pass+0xc4>
     * The tricky part here is that within each MCU, we want the DC values
     * of the dummy blocks to match the last real block's DC value.
     * This squeezes a few more bytes out of the resulting file...
     */
    if (coef->iMCU_row_num == last_iMCU_row) {
      blocks_across += ndummy;	/* include lower right corner */
 80020a0:	b461883a 	add	r16,r22,r17
      MCUs_across = blocks_across / h_samp_factor;
 80020a4:	8009883a 	mov	r4,r16
 80020a8:	900b883a 	mov	r5,r18
 80020ac:	801ec340 	call	801ec34 <__udivsi3>
      for (block_row = block_rows; block_row < compptr->v_samp_factor;
 80020b0:	d8c00717 	ldw	r3,28(sp)
     * of the dummy blocks to match the last real block's DC value.
     * This squeezes a few more bytes out of the resulting file...
     */
    if (coef->iMCU_row_num == last_iMCU_row) {
      blocks_across += ndummy;	/* include lower right corner */
      MCUs_across = blocks_across / h_samp_factor;
 80020b4:	102d883a 	mov	r22,r2
      for (block_row = block_rows; block_row < compptr->v_samp_factor;
 80020b8:	18800317 	ldw	r2,12(r3)
 80020bc:	b8bfe00e 	bge	r23,r2,8002040 <compress_first_pass+0x194>
 80020c0:	d8c00617 	ldw	r3,24(sp)
 80020c4:	802091fa 	slli	r16,r16,7
 80020c8:	bdc5883a 	add	r2,r23,r23
 80020cc:	1085883a 	add	r2,r2,r2
 80020d0:	902291fa 	slli	r17,r18,7
 80020d4:	18ab883a 	add	r21,r3,r2
 80020d8:	b005003a 	cmpeq	r2,r22,zero
 80020dc:	dc000515 	stw	r16,20(sp)
 80020e0:	d8800f15 	stw	r2,60(sp)
 80020e4:	95000050 	cmplti	r20,r18,1
	   block_row++) {
	thisblockrow = buffer[block_row];
 80020e8:	ac000017 	ldw	r16,0(r21)
	lastblockrow = buffer[block_row-1];
	jzero_far((void FAR *) thisblockrow,
 80020ec:	d9400517 	ldw	r5,20(sp)
      blocks_across += ndummy;	/* include lower right corner */
      MCUs_across = blocks_across / h_samp_factor;
      for (block_row = block_rows; block_row < compptr->v_samp_factor;
	   block_row++) {
	thisblockrow = buffer[block_row];
	lastblockrow = buffer[block_row-1];
 80020f0:	acffff17 	ldw	r19,-4(r21)
	jzero_far((void FAR *) thisblockrow,
 80020f4:	8009883a 	mov	r4,r16
 80020f8:	801ba580 	call	801ba58 <jzero_far>
		  (size_t) (blocks_across * SIZEOF(JBLOCK)));
	for (MCUindex = 0; MCUindex < MCUs_across; MCUindex++) {
 80020fc:	d8c00f17 	ldw	r3,60(sp)
 8002100:	18000f1e 	bne	r3,zero,8002140 <compress_first_pass+0x294>
 8002104:	9c4b883a 	add	r5,r19,r17
 8002108:	000d883a 	mov	r6,zero
	  lastDC = lastblockrow[h_samp_factor-1][0];
 800210c:	293fe00b 	ldhu	r4,-128(r5)
	  for (bi = 0; bi < h_samp_factor; bi++) {
 8002110:	a000061e 	bne	r20,zero,800212c <compress_first_pass+0x280>
 8002114:	8005883a 	mov	r2,r16
 8002118:	0007883a 	mov	r3,zero
 800211c:	18c00044 	addi	r3,r3,1
	    thisblockrow[bi][0] = lastDC;
 8002120:	1100000d 	sth	r4,0(r2)
	lastblockrow = buffer[block_row-1];
	jzero_far((void FAR *) thisblockrow,
		  (size_t) (blocks_across * SIZEOF(JBLOCK)));
	for (MCUindex = 0; MCUindex < MCUs_across; MCUindex++) {
	  lastDC = lastblockrow[h_samp_factor-1][0];
	  for (bi = 0; bi < h_samp_factor; bi++) {
 8002124:	10802004 	addi	r2,r2,128
 8002128:	90fffc1e 	bne	r18,r3,800211c <compress_first_pass+0x270>
	   block_row++) {
	thisblockrow = buffer[block_row];
	lastblockrow = buffer[block_row-1];
	jzero_far((void FAR *) thisblockrow,
		  (size_t) (blocks_across * SIZEOF(JBLOCK)));
	for (MCUindex = 0; MCUindex < MCUs_across; MCUindex++) {
 800212c:	31800044 	addi	r6,r6,1
 8002130:	2c4b883a 	add	r5,r5,r17
 8002134:	b1800226 	beq	r22,r6,8002140 <compress_first_pass+0x294>
 8002138:	8461883a 	add	r16,r16,r17
 800213c:	003ff306 	br	800210c <compress_first_pass+0x260>
     * This squeezes a few more bytes out of the resulting file...
     */
    if (coef->iMCU_row_num == last_iMCU_row) {
      blocks_across += ndummy;	/* include lower right corner */
      MCUs_across = blocks_across / h_samp_factor;
      for (block_row = block_rows; block_row < compptr->v_samp_factor;
 8002140:	d8c00717 	ldw	r3,28(sp)
	   block_row++) {
 8002144:	bdc00044 	addi	r23,r23,1
 8002148:	ad400104 	addi	r21,r21,4
     * This squeezes a few more bytes out of the resulting file...
     */
    if (coef->iMCU_row_num == last_iMCU_row) {
      blocks_across += ndummy;	/* include lower right corner */
      MCUs_across = blocks_across / h_samp_factor;
      for (block_row = block_rows; block_row < compptr->v_samp_factor;
 800214c:	18800317 	ldw	r2,12(r3)
 8002150:	b8bfe516 	blt	r23,r2,80020e8 <compress_first_pass+0x23c>
 8002154:	003fba06 	br	8002040 <compress_first_pass+0x194>
  /* NB: compress_output will increment iMCU_row_num if successful.
   * A suspension return will result in redoing all the work above next time.
   */

  /* Emit data to the entropy encoder, sharing code with subsequent passes */
  return compress_output(cinfo, input_buf);
 8002158:	d9400d17 	ldw	r5,52(sp)
 800215c:	e009883a 	mov	r4,fp
}
 8002160:	dfc01917 	ldw	ra,100(sp)
 8002164:	df001817 	ldw	fp,96(sp)
 8002168:	ddc01717 	ldw	r23,92(sp)
 800216c:	dd801617 	ldw	r22,88(sp)
 8002170:	dd401517 	ldw	r21,84(sp)
 8002174:	dd001417 	ldw	r20,80(sp)
 8002178:	dcc01317 	ldw	r19,76(sp)
 800217c:	dc801217 	ldw	r18,72(sp)
 8002180:	dc401117 	ldw	r17,68(sp)
 8002184:	dc001017 	ldw	r16,64(sp)
 8002188:	dec01a04 	addi	sp,sp,104
  /* NB: compress_output will increment iMCU_row_num if successful.
   * A suspension return will result in redoing all the work above next time.
   */

  /* Emit data to the entropy encoder, sharing code with subsequent passes */
  return compress_output(cinfo, input_buf);
 800218c:	8001b501 	jmpi	8001b50 <compress_output>

08002190 <compress_data>:
 * For single pass, this is the same as the components in the scan.
 */

METHODDEF(boolean)
compress_data (j_compress_ptr cinfo, JSAMPIMAGE input_buf)
{
 8002190:	deffe804 	addi	sp,sp,-96
 8002194:	dd001215 	stw	r20,72(sp)
  my_coef_ptr coef = (my_coef_ptr) cinfo->coef;
 8002198:	25005417 	ldw	r20,336(r4)
  JDIMENSION MCU_col_num;	/* index of current MCU within row */
  JDIMENSION last_MCU_col = cinfo->MCUs_per_row - 1;
 800219c:	20804017 	ldw	r2,256(r4)
  JDIMENSION last_iMCU_row = cinfo->total_iMCU_rows - 1;
 80021a0:	20c03a17 	ldw	r3,232(r4)
 * For single pass, this is the same as the components in the scan.
 */

METHODDEF(boolean)
compress_data (j_compress_ptr cinfo, JSAMPIMAGE input_buf)
{
 80021a4:	df001615 	stw	fp,88(sp)
 80021a8:	2039883a 	mov	fp,r4
  int blkn, bi, ci, yindex, yoffset, blockcnt;
  JDIMENSION ypos, xpos;
  jpeg_component_info *compptr;

  /* Loop to write as much as one whole iMCU row */
  for (yoffset = coef->MCU_vert_offset; yoffset < coef->MCU_rows_per_iMCU_row;
 80021ac:	a1000417 	ldw	r4,16(r20)
METHODDEF(boolean)
compress_data (j_compress_ptr cinfo, JSAMPIMAGE input_buf)
{
  my_coef_ptr coef = (my_coef_ptr) cinfo->coef;
  JDIMENSION MCU_col_num;	/* index of current MCU within row */
  JDIMENSION last_MCU_col = cinfo->MCUs_per_row - 1;
 80021b0:	10bfffc4 	addi	r2,r2,-1
 80021b4:	d8800a15 	stw	r2,40(sp)
  int blkn, bi, ci, yindex, yoffset, blockcnt;
  JDIMENSION ypos, xpos;
  jpeg_component_info *compptr;

  /* Loop to write as much as one whole iMCU row */
  for (yoffset = coef->MCU_vert_offset; yoffset < coef->MCU_rows_per_iMCU_row;
 80021b8:	d9000715 	stw	r4,28(sp)
 80021bc:	d8800717 	ldw	r2,28(sp)
 80021c0:	a1000517 	ldw	r4,20(r20)
compress_data (j_compress_ptr cinfo, JSAMPIMAGE input_buf)
{
  my_coef_ptr coef = (my_coef_ptr) cinfo->coef;
  JDIMENSION MCU_col_num;	/* index of current MCU within row */
  JDIMENSION last_MCU_col = cinfo->MCUs_per_row - 1;
  JDIMENSION last_iMCU_row = cinfo->total_iMCU_rows - 1;
 80021c4:	18ffffc4 	addi	r3,r3,-1
 * For single pass, this is the same as the components in the scan.
 */

METHODDEF(boolean)
compress_data (j_compress_ptr cinfo, JSAMPIMAGE input_buf)
{
 80021c8:	dfc01715 	stw	ra,92(sp)
 80021cc:	ddc01515 	stw	r23,84(sp)
 80021d0:	dd801415 	stw	r22,80(sp)
 80021d4:	dd401315 	stw	r21,76(sp)
 80021d8:	dcc01115 	stw	r19,68(sp)
 80021dc:	dc801015 	stw	r18,64(sp)
 80021e0:	dc400f15 	stw	r17,60(sp)
 80021e4:	dc000e15 	stw	r16,56(sp)
 80021e8:	d9400c15 	stw	r5,48(sp)
  my_coef_ptr coef = (my_coef_ptr) cinfo->coef;
  JDIMENSION MCU_col_num;	/* index of current MCU within row */
  JDIMENSION last_MCU_col = cinfo->MCUs_per_row - 1;
  JDIMENSION last_iMCU_row = cinfo->total_iMCU_rows - 1;
 80021ec:	d8c00915 	stw	r3,36(sp)
  int blkn, bi, ci, yindex, yoffset, blockcnt;
  JDIMENSION ypos, xpos;
  jpeg_component_info *compptr;

  /* Loop to write as much as one whole iMCU row */
  for (yoffset = coef->MCU_vert_offset; yoffset < coef->MCU_rows_per_iMCU_row;
 80021f0:	1100730e 	bge	r2,r4,80023c0 <compress_data+0x230>
 80021f4:	100690fa 	slli	r3,r2,3
 80021f8:	a0800604 	addi	r2,r20,24
 80021fc:	d8800d15 	stw	r2,52(sp)
 8002200:	d8c00315 	stw	r3,12(sp)
       yoffset++) {
    for (MCU_col_num = coef->mcu_ctr; MCU_col_num <= last_MCU_col;
 8002204:	a0c00317 	ldw	r3,12(r20)
 8002208:	d8800a17 	ldw	r2,40(sp)
 800220c:	d8c00b15 	stw	r3,44(sp)
 8002210:	10c06336 	bltu	r2,r3,80023a0 <compress_data+0x210>
       * so we fill them with values that will encode to the smallest amount of
       * data, viz: all zeroes in the AC entries, DC entries equal to previous
       * block's DC value.  (Thanks to Thomas Kinsman for this idea.)
       */
      blkn = 0;
      for (ci = 0; ci < cinfo->comps_in_scan; ci++) {
 8002214:	e4c03b17 	ldw	r19,236(fp)
 8002218:	04c0550e 	bge	zero,r19,8002370 <compress_data+0x1e0>
 800221c:	d9000c17 	ldw	r4,48(sp)
 8002220:	df000515 	stw	fp,20(sp)
 8002224:	0023883a 	mov	r17,zero
 8002228:	d9000415 	stw	r4,16(sp)
 800222c:	d8000815 	stw	zero,32(sp)
	compptr = cinfo->cur_comp_info[ci];
 8002230:	d8c00517 	ldw	r3,20(sp)
	blockcnt = (MCU_col_num < last_MCU_col) ? compptr->MCU_width
 8002234:	d9000b17 	ldw	r4,44(sp)
 8002238:	d8800a17 	ldw	r2,40(sp)
       * data, viz: all zeroes in the AC entries, DC entries equal to previous
       * block's DC value.  (Thanks to Thomas Kinsman for this idea.)
       */
      blkn = 0;
      for (ci = 0; ci < cinfo->comps_in_scan; ci++) {
	compptr = cinfo->cur_comp_info[ci];
 800223c:	1c003c17 	ldw	r16,240(r3)
	blockcnt = (MCU_col_num < last_MCU_col) ? compptr->MCU_width
 8002240:	20807a2e 	bgeu	r4,r2,800242c <compress_data+0x29c>
 8002244:	84800d17 	ldw	r18,52(r16)
						: compptr->last_col_width;
	xpos = MCU_col_num * compptr->MCU_sample_width;
 8002248:	81401017 	ldw	r5,64(r16)
 800224c:	d9000b17 	ldw	r4,44(sp)
 8002250:	801ec440 	call	801ec44 <__mulsi3>
 8002254:	d8800615 	stw	r2,24(sp)
	ypos = yoffset * DCTSIZE; /* ypos == (yoffset+yindex) * DCTSIZE */
	for (yindex = 0; yindex < compptr->MCU_height; yindex++) {
 8002258:	80800e17 	ldw	r2,56(r16)
 800225c:	00803a0e 	bge	zero,r2,8002348 <compress_data+0x1b8>
 8002260:	dd400317 	ldw	r21,12(sp)
 8002264:	002f883a 	mov	r23,zero
 8002268:	00000506 	br	8002280 <compress_data+0xf0>
 800226c:	80800e17 	ldw	r2,56(r16)
 8002270:	bdc00044 	addi	r23,r23,1
		      compptr->MCU_width * SIZEOF(JBLOCK));
	    for (bi = 0; bi < compptr->MCU_width; bi++) {
	      coef->MCU_buffer[blkn+bi][0][0] = coef->MCU_buffer[blkn-1][0][0];
	    }
	  }
	  blkn += compptr->MCU_width;
 8002274:	8963883a 	add	r17,r17,r5
	compptr = cinfo->cur_comp_info[ci];
	blockcnt = (MCU_col_num < last_MCU_col) ? compptr->MCU_width
						: compptr->last_col_width;
	xpos = MCU_col_num * compptr->MCU_sample_width;
	ypos = yoffset * DCTSIZE; /* ypos == (yoffset+yindex) * DCTSIZE */
	for (yindex = 0; yindex < compptr->MCU_height; yindex++) {
 8002278:	b880320e 	bge	r23,r2,8002344 <compress_data+0x1b4>
	    for (bi = 0; bi < compptr->MCU_width; bi++) {
	      coef->MCU_buffer[blkn+bi][0][0] = coef->MCU_buffer[blkn-1][0][0];
	    }
	  }
	  blkn += compptr->MCU_width;
	  ypos += DCTSIZE;
 800227c:	ad400204 	addi	r21,r21,8
	blockcnt = (MCU_col_num < last_MCU_col) ? compptr->MCU_width
						: compptr->last_col_width;
	xpos = MCU_col_num * compptr->MCU_sample_width;
	ypos = yoffset * DCTSIZE; /* ypos == (yoffset+yindex) * DCTSIZE */
	for (yindex = 0; yindex < compptr->MCU_height; yindex++) {
	  if (coef->iMCU_row_num < last_iMCU_row ||
 8002280:	a0800217 	ldw	r2,8(r20)
 8002284:	d8c00917 	ldw	r3,36(sp)
 8002288:	10c00436 	bltu	r2,r3,800229c <compress_data+0x10c>
 800228c:	d9000717 	ldw	r4,28(sp)
 8002290:	80c01217 	ldw	r3,72(r16)
 8002294:	b905883a 	add	r2,r23,r4
 8002298:	10c0500e 	bge	r2,r3,80023dc <compress_data+0x24c>
	      yoffset+yindex < compptr->last_row_height) {
	    (*cinfo->fdct->forward_DCT) (cinfo, compptr,
 800229c:	d9000617 	ldw	r4,24(sp)
 80022a0:	e0805817 	ldw	r2,352(fp)
 80022a4:	dd400015 	stw	r21,0(sp)
 80022a8:	d9000115 	stw	r4,4(sp)
 80022ac:	dc800215 	stw	r18,8(sp)
 80022b0:	12000117 	ldw	r8,4(r2)
 80022b4:	8c47883a 	add	r3,r17,r17
 80022b8:	d8800417 	ldw	r2,16(sp)
 80022bc:	18c7883a 	add	r3,r3,r3
 80022c0:	1d07883a 	add	r3,r3,r20
 80022c4:	19c00617 	ldw	r7,24(r3)
 80022c8:	11800017 	ldw	r6,0(r2)
 80022cc:	800b883a 	mov	r5,r16
 80022d0:	e009883a 	mov	r4,fp
 80022d4:	403ee83a 	callr	r8
					 input_buf[ci], coef->MCU_buffer[blkn],
					 ypos, xpos, (JDIMENSION) blockcnt);
	    if (blockcnt < compptr->MCU_width) {
 80022d8:	81400d17 	ldw	r5,52(r16)
 80022dc:	917fe30e 	bge	r18,r5,800226c <compress_data+0xdc>
	      /* Create some dummy blocks at the right edge of the image. */
	      jzero_far((void FAR *) coef->MCU_buffer[blkn + blockcnt],
 80022e0:	9445883a 	add	r2,r18,r17
 80022e4:	1085883a 	add	r2,r2,r2
 80022e8:	10a7883a 	add	r19,r2,r2
 80022ec:	9d05883a 	add	r2,r19,r20
 80022f0:	2c8bc83a 	sub	r5,r5,r18
 80022f4:	280a91fa 	slli	r5,r5,7
 80022f8:	11000617 	ldw	r4,24(r2)
 80022fc:	801ba580 	call	801ba58 <jzero_far>
			(compptr->MCU_width - blockcnt) * SIZEOF(JBLOCK));
	      for (bi = blockcnt; bi < compptr->MCU_width; bi++) {
 8002300:	81400d17 	ldw	r5,52(r16)
 8002304:	917fd90e 	bge	r18,r5,800226c <compress_data+0xdc>
 8002308:	98800604 	addi	r2,r19,24
 800230c:	a08d883a 	add	r6,r20,r2
 8002310:	000f883a 	mov	r7,zero
 8002314:	2c91c83a 	sub	r8,r5,r18
		coef->MCU_buffer[blkn+bi][0][0] = coef->MCU_buffer[blkn+bi-1][0][0];
 8002318:	30bfff17 	ldw	r2,-4(r6)
 800231c:	31000017 	ldw	r4,0(r6)
 8002320:	39c00044 	addi	r7,r7,1
 8002324:	10c0000b 	ldhu	r3,0(r2)
 8002328:	31800104 	addi	r6,r6,4
 800232c:	20c0000d 	sth	r3,0(r4)
					 ypos, xpos, (JDIMENSION) blockcnt);
	    if (blockcnt < compptr->MCU_width) {
	      /* Create some dummy blocks at the right edge of the image. */
	      jzero_far((void FAR *) coef->MCU_buffer[blkn + blockcnt],
			(compptr->MCU_width - blockcnt) * SIZEOF(JBLOCK));
	      for (bi = blockcnt; bi < compptr->MCU_width; bi++) {
 8002330:	41fff91e 	bne	r8,r7,8002318 <compress_data+0x188>
	compptr = cinfo->cur_comp_info[ci];
	blockcnt = (MCU_col_num < last_MCU_col) ? compptr->MCU_width
						: compptr->last_col_width;
	xpos = MCU_col_num * compptr->MCU_sample_width;
	ypos = yoffset * DCTSIZE; /* ypos == (yoffset+yindex) * DCTSIZE */
	for (yindex = 0; yindex < compptr->MCU_height; yindex++) {
 8002334:	80800e17 	ldw	r2,56(r16)
 8002338:	bdc00044 	addi	r23,r23,1
		      compptr->MCU_width * SIZEOF(JBLOCK));
	    for (bi = 0; bi < compptr->MCU_width; bi++) {
	      coef->MCU_buffer[blkn+bi][0][0] = coef->MCU_buffer[blkn-1][0][0];
	    }
	  }
	  blkn += compptr->MCU_width;
 800233c:	8963883a 	add	r17,r17,r5
	compptr = cinfo->cur_comp_info[ci];
	blockcnt = (MCU_col_num < last_MCU_col) ? compptr->MCU_width
						: compptr->last_col_width;
	xpos = MCU_col_num * compptr->MCU_sample_width;
	ypos = yoffset * DCTSIZE; /* ypos == (yoffset+yindex) * DCTSIZE */
	for (yindex = 0; yindex < compptr->MCU_height; yindex++) {
 8002340:	b8bfce16 	blt	r23,r2,800227c <compress_data+0xec>
 8002344:	e4c03b17 	ldw	r19,236(fp)
       * so we fill them with values that will encode to the smallest amount of
       * data, viz: all zeroes in the AC entries, DC entries equal to previous
       * block's DC value.  (Thanks to Thomas Kinsman for this idea.)
       */
      blkn = 0;
      for (ci = 0; ci < cinfo->comps_in_scan; ci++) {
 8002348:	d8c00817 	ldw	r3,32(sp)
 800234c:	d9000517 	ldw	r4,20(sp)
 8002350:	d8800417 	ldw	r2,16(sp)
 8002354:	18c00044 	addi	r3,r3,1
 8002358:	21000104 	addi	r4,r4,4
 800235c:	10800104 	addi	r2,r2,4
 8002360:	d8c00815 	stw	r3,32(sp)
 8002364:	d9000515 	stw	r4,20(sp)
 8002368:	d8800415 	stw	r2,16(sp)
 800236c:	1cffb016 	blt	r3,r19,8002230 <compress_data+0xa0>
	}
      }
      /* Try to write the MCU.  In event of a suspension failure, we will
       * re-DCT the MCU on restart (a bit inefficient, could be fixed...)
       */
      if (! (*cinfo->entropy->encode_mcu) (cinfo, coef->MCU_buffer)) {
 8002370:	e0805917 	ldw	r2,356(fp)
 8002374:	d9400d17 	ldw	r5,52(sp)
 8002378:	e009883a 	mov	r4,fp
 800237c:	10c00117 	ldw	r3,4(r2)
 8002380:	183ee83a 	callr	r3
 8002384:	10002b26 	beq	r2,zero,8002434 <compress_data+0x2a4>

  /* Loop to write as much as one whole iMCU row */
  for (yoffset = coef->MCU_vert_offset; yoffset < coef->MCU_rows_per_iMCU_row;
       yoffset++) {
    for (MCU_col_num = coef->mcu_ctr; MCU_col_num <= last_MCU_col;
	 MCU_col_num++) {
 8002388:	d8800b17 	ldw	r2,44(sp)
  jpeg_component_info *compptr;

  /* Loop to write as much as one whole iMCU row */
  for (yoffset = coef->MCU_vert_offset; yoffset < coef->MCU_rows_per_iMCU_row;
       yoffset++) {
    for (MCU_col_num = coef->mcu_ctr; MCU_col_num <= last_MCU_col;
 800238c:	d8c00a17 	ldw	r3,40(sp)
	 MCU_col_num++) {
 8002390:	10800044 	addi	r2,r2,1
 8002394:	d8800b15 	stw	r2,44(sp)
  jpeg_component_info *compptr;

  /* Loop to write as much as one whole iMCU row */
  for (yoffset = coef->MCU_vert_offset; yoffset < coef->MCU_rows_per_iMCU_row;
       yoffset++) {
    for (MCU_col_num = coef->mcu_ctr; MCU_col_num <= last_MCU_col;
 8002398:	18bf9e2e 	bgeu	r3,r2,8002214 <compress_data+0x84>
 800239c:	a1000517 	ldw	r4,20(r20)
  JDIMENSION ypos, xpos;
  jpeg_component_info *compptr;

  /* Loop to write as much as one whole iMCU row */
  for (yoffset = coef->MCU_vert_offset; yoffset < coef->MCU_rows_per_iMCU_row;
       yoffset++) {
 80023a0:	d8800717 	ldw	r2,28(sp)
 80023a4:	d8c00317 	ldw	r3,12(sp)
	coef->mcu_ctr = MCU_col_num;
	return FALSE;
      }
    }
    /* Completed an MCU row, but perhaps not an iMCU row */
    coef->mcu_ctr = 0;
 80023a8:	a0000315 	stw	zero,12(r20)
  JDIMENSION ypos, xpos;
  jpeg_component_info *compptr;

  /* Loop to write as much as one whole iMCU row */
  for (yoffset = coef->MCU_vert_offset; yoffset < coef->MCU_rows_per_iMCU_row;
       yoffset++) {
 80023ac:	10800044 	addi	r2,r2,1
 80023b0:	18c00204 	addi	r3,r3,8
 80023b4:	d8800715 	stw	r2,28(sp)
 80023b8:	d8c00315 	stw	r3,12(sp)
  int blkn, bi, ci, yindex, yoffset, blockcnt;
  JDIMENSION ypos, xpos;
  jpeg_component_info *compptr;

  /* Loop to write as much as one whole iMCU row */
  for (yoffset = coef->MCU_vert_offset; yoffset < coef->MCU_rows_per_iMCU_row;
 80023bc:	113f9116 	blt	r2,r4,8002204 <compress_data+0x74>
    }
    /* Completed an MCU row, but perhaps not an iMCU row */
    coef->mcu_ctr = 0;
  }
  /* Completed the iMCU row, advance counters for next one */
  coef->iMCU_row_num++;
 80023c0:	a0800217 	ldw	r2,8(r20)
  start_iMCU_row(cinfo);
 80023c4:	e009883a 	mov	r4,fp
    }
    /* Completed an MCU row, but perhaps not an iMCU row */
    coef->mcu_ctr = 0;
  }
  /* Completed the iMCU row, advance counters for next one */
  coef->iMCU_row_num++;
 80023c8:	10800044 	addi	r2,r2,1
 80023cc:	a0800215 	stw	r2,8(r20)
  start_iMCU_row(cinfo);
 80023d0:	80019c00 	call	80019c0 <start_iMCU_row>
 80023d4:	00800044 	movi	r2,1
 80023d8:	00001a06 	br	8002444 <compress_data+0x2b4>
		coef->MCU_buffer[blkn+bi][0][0] = coef->MCU_buffer[blkn+bi-1][0][0];
	      }
	    }
	  } else {
	    /* Create a row of dummy blocks at the bottom of the image. */
	    jzero_far((void FAR *) coef->MCU_buffer[blkn],
 80023dc:	81400d17 	ldw	r5,52(r16)
 80023e0:	8c45883a 	add	r2,r17,r17
 80023e4:	10ad883a 	add	r22,r2,r2
 80023e8:	b527883a 	add	r19,r22,r20
 80023ec:	280a91fa 	slli	r5,r5,7
 80023f0:	99000617 	ldw	r4,24(r19)
 80023f4:	801ba580 	call	801ba58 <jzero_far>
		      compptr->MCU_width * SIZEOF(JBLOCK));
	    for (bi = 0; bi < compptr->MCU_width; bi++) {
 80023f8:	81400d17 	ldw	r5,52(r16)
 80023fc:	017f9b0e 	bge	zero,r5,800226c <compress_data+0xdc>
	      coef->MCU_buffer[blkn+bi][0][0] = coef->MCU_buffer[blkn-1][0][0];
 8002400:	99c00517 	ldw	r7,20(r19)
 8002404:	b0800604 	addi	r2,r22,24
 8002408:	a089883a 	add	r4,r20,r2
 800240c:	000d883a 	mov	r6,zero
 8002410:	20c00017 	ldw	r3,0(r4)
 8002414:	3880000b 	ldhu	r2,0(r7)
	    }
	  } else {
	    /* Create a row of dummy blocks at the bottom of the image. */
	    jzero_far((void FAR *) coef->MCU_buffer[blkn],
		      compptr->MCU_width * SIZEOF(JBLOCK));
	    for (bi = 0; bi < compptr->MCU_width; bi++) {
 8002418:	31800044 	addi	r6,r6,1
 800241c:	21000104 	addi	r4,r4,4
	      coef->MCU_buffer[blkn+bi][0][0] = coef->MCU_buffer[blkn-1][0][0];
 8002420:	1880000d 	sth	r2,0(r3)
	    }
	  } else {
	    /* Create a row of dummy blocks at the bottom of the image. */
	    jzero_far((void FAR *) coef->MCU_buffer[blkn],
		      compptr->MCU_width * SIZEOF(JBLOCK));
	    for (bi = 0; bi < compptr->MCU_width; bi++) {
 8002424:	317ffa1e 	bne	r6,r5,8002410 <compress_data+0x280>
 8002428:	003f9006 	br	800226c <compress_data+0xdc>
       * block's DC value.  (Thanks to Thomas Kinsman for this idea.)
       */
      blkn = 0;
      for (ci = 0; ci < cinfo->comps_in_scan; ci++) {
	compptr = cinfo->cur_comp_info[ci];
	blockcnt = (MCU_col_num < last_MCU_col) ? compptr->MCU_width
 800242c:	84801117 	ldw	r18,68(r16)
 8002430:	003f8506 	br	8002248 <compress_data+0xb8>
       * re-DCT the MCU on restart (a bit inefficient, could be fixed...)
       */
      if (! (*cinfo->entropy->encode_mcu) (cinfo, coef->MCU_buffer)) {
	/* Suspension forced; update state counters and exit */
	coef->MCU_vert_offset = yoffset;
	coef->mcu_ctr = MCU_col_num;
 8002434:	d8c00b17 	ldw	r3,44(sp)
      /* Try to write the MCU.  In event of a suspension failure, we will
       * re-DCT the MCU on restart (a bit inefficient, could be fixed...)
       */
      if (! (*cinfo->entropy->encode_mcu) (cinfo, coef->MCU_buffer)) {
	/* Suspension forced; update state counters and exit */
	coef->MCU_vert_offset = yoffset;
 8002438:	d9000717 	ldw	r4,28(sp)
	coef->mcu_ctr = MCU_col_num;
 800243c:	a0c00315 	stw	r3,12(r20)
      /* Try to write the MCU.  In event of a suspension failure, we will
       * re-DCT the MCU on restart (a bit inefficient, could be fixed...)
       */
      if (! (*cinfo->entropy->encode_mcu) (cinfo, coef->MCU_buffer)) {
	/* Suspension forced; update state counters and exit */
	coef->MCU_vert_offset = yoffset;
 8002440:	a1000415 	stw	r4,16(r20)
  }
  /* Completed the iMCU row, advance counters for next one */
  coef->iMCU_row_num++;
  start_iMCU_row(cinfo);
  return TRUE;
}
 8002444:	dfc01717 	ldw	ra,92(sp)
 8002448:	df001617 	ldw	fp,88(sp)
 800244c:	ddc01517 	ldw	r23,84(sp)
 8002450:	dd801417 	ldw	r22,80(sp)
 8002454:	dd401317 	ldw	r21,76(sp)
 8002458:	dd001217 	ldw	r20,72(sp)
 800245c:	dcc01117 	ldw	r19,68(sp)
 8002460:	dc801017 	ldw	r18,64(sp)
 8002464:	dc400f17 	ldw	r17,60(sp)
 8002468:	dc000e17 	ldw	r16,56(sp)
 800246c:	dec01804 	addi	sp,sp,96
 8002470:	f800283a 	ret

08002474 <rgb_ycc_start>:
  my_cconvert_ptr cconvert = (my_cconvert_ptr) cinfo->cconvert;
  INT32 * rgb_ycc_tab;
  INT32 i;

  /* Allocate and fill in the conversion tables. */
  cconvert->rgb_ycc_tab = rgb_ycc_tab = (INT32 *)
 8002474:	21800117 	ldw	r6,4(r4)
 * Initialize for RGB->YCC colorspace conversion.
 */

METHODDEF(void)
rgb_ycc_start (j_compress_ptr cinfo)
{
 8002478:	defffe04 	addi	sp,sp,-8
 800247c:	dc000015 	stw	r16,0(sp)
  my_cconvert_ptr cconvert = (my_cconvert_ptr) cinfo->cconvert;
  INT32 * rgb_ycc_tab;
  INT32 i;

  /* Allocate and fill in the conversion tables. */
  cconvert->rgb_ycc_tab = rgb_ycc_tab = (INT32 *)
 8002480:	30c00017 	ldw	r3,0(r6)
 */

METHODDEF(void)
rgb_ycc_start (j_compress_ptr cinfo)
{
  my_cconvert_ptr cconvert = (my_cconvert_ptr) cinfo->cconvert;
 8002484:	24005617 	ldw	r16,344(r4)
  INT32 * rgb_ycc_tab;
  INT32 i;

  /* Allocate and fill in the conversion tables. */
  cconvert->rgb_ycc_tab = rgb_ycc_tab = (INT32 *)
 8002488:	01400044 	movi	r5,1
 800248c:	01880004 	movi	r6,8192
 * Initialize for RGB->YCC colorspace conversion.
 */

METHODDEF(void)
rgb_ycc_start (j_compress_ptr cinfo)
{
 8002490:	dfc00115 	stw	ra,4(sp)
  my_cconvert_ptr cconvert = (my_cconvert_ptr) cinfo->cconvert;
  INT32 * rgb_ycc_tab;
  INT32 i;

  /* Allocate and fill in the conversion tables. */
  cconvert->rgb_ycc_tab = rgb_ycc_tab = (INT32 *)
 8002494:	183ee83a 	callr	r3
 8002498:	02a00014 	movui	r10,32768
 800249c:	80800215 	stw	r2,8(r16)
 80024a0:	0007883a 	mov	r3,zero
 80024a4:	0013883a 	mov	r9,zero
 80024a8:	0011883a 	mov	r8,zero
 80024ac:	000f883a 	mov	r7,zero
 80024b0:	01802034 	movhi	r6,128
 80024b4:	319fffc4 	addi	r6,r6,32767
 80024b8:	000b883a 	mov	r5,zero
 80024bc:	0009883a 	mov	r4,zero
 80024c0:	03659194 	movui	r13,38470
 80024c4:	5019883a 	mov	r12,r10
 80024c8:	02c01374 	movhi	r11,77
 80024cc:	5ae2c004 	addi	r11,r11,-29952
    (*cinfo->mem->alloc_small) ((j_common_ptr) cinfo, JPOOL_IMAGE,
				(TABLE_SIZE * SIZEOF(INT32)));

  for (i = 0; i <= MAXJSAMPLE; i++) {
    rgb_ycc_tab[i+R_Y_OFF] = FIX(0.29900) * i;
 80024d0:	10c00015 	stw	r3,0(r2)
    rgb_ycc_tab[i+B_CB_OFF] = FIX(0.50000) * i    + CBCR_OFFSET + ONE_HALF-1;
/*  B=>Cb and R=>Cr tables are the same
    rgb_ycc_tab[i+R_CR_OFF] = FIX(0.50000) * i    + CBCR_OFFSET + ONE_HALF-1;
*/
    rgb_ycc_tab[i+G_CR_OFF] = (-FIX(0.41869)) * i;
    rgb_ycc_tab[i+B_CR_OFF] = (-FIX(0.08131)) * i;
 80024d4:	18d322c4 	addi	r3,r3,19595
    (*cinfo->mem->alloc_small) ((j_common_ptr) cinfo, JPOOL_IMAGE,
				(TABLE_SIZE * SIZEOF(INT32)));

  for (i = 0; i <= MAXJSAMPLE; i++) {
    rgb_ycc_tab[i+R_Y_OFF] = FIX(0.29900) * i;
    rgb_ycc_tab[i+G_Y_OFF] = FIX(0.58700) * i;
 80024d8:	12410015 	stw	r9,1024(r2)
    rgb_ycc_tab[i+B_Y_OFF] = FIX(0.11400) * i     + ONE_HALF;
 80024dc:	12820015 	stw	r10,2048(r2)
    rgb_ycc_tab[i+R_CB_OFF] = (-FIX(0.16874)) * i;
 80024e0:	12030015 	stw	r8,3072(r2)
    rgb_ycc_tab[i+G_CB_OFF] = (-FIX(0.33126)) * i;
 80024e4:	11c40015 	stw	r7,4096(r2)
    /* We use a rounding fudge-factor of 0.5-epsilon for Cb and Cr.
     * This ensures that the maximum output will round to MAXJSAMPLE
     * not MAXJSAMPLE+1, and thus that we don't have to range-limit.
     */
    rgb_ycc_tab[i+B_CB_OFF] = FIX(0.50000) * i    + CBCR_OFFSET + ONE_HALF-1;
 80024e8:	11850015 	stw	r6,5120(r2)
/*  B=>Cb and R=>Cr tables are the same
    rgb_ycc_tab[i+R_CR_OFF] = FIX(0.50000) * i    + CBCR_OFFSET + ONE_HALF-1;
*/
    rgb_ycc_tab[i+G_CR_OFF] = (-FIX(0.41869)) * i;
 80024ec:	11460015 	stw	r5,6144(r2)
    rgb_ycc_tab[i+B_CR_OFF] = (-FIX(0.08131)) * i;
 80024f0:	11070015 	stw	r4,7168(r2)
 80024f4:	4b53883a 	add	r9,r9,r13
 80024f8:	10800104 	addi	r2,r2,4
 80024fc:	52874bc4 	addi	r10,r10,7471
 8002500:	42353344 	addi	r8,r8,-11059
 8002504:	39eaccc4 	addi	r7,r7,-21709
 8002508:	330d883a 	add	r6,r6,r12
 800250c:	29653444 	addi	r5,r5,-27439
 8002510:	213acbc4 	addi	r4,r4,-5329
  /* Allocate and fill in the conversion tables. */
  cconvert->rgb_ycc_tab = rgb_ycc_tab = (INT32 *)
    (*cinfo->mem->alloc_small) ((j_common_ptr) cinfo, JPOOL_IMAGE,
				(TABLE_SIZE * SIZEOF(INT32)));

  for (i = 0; i <= MAXJSAMPLE; i++) {
 8002514:	1affee1e 	bne	r3,r11,80024d0 <rgb_ycc_start+0x5c>
    rgb_ycc_tab[i+R_CR_OFF] = FIX(0.50000) * i    + CBCR_OFFSET + ONE_HALF-1;
*/
    rgb_ycc_tab[i+G_CR_OFF] = (-FIX(0.41869)) * i;
    rgb_ycc_tab[i+B_CR_OFF] = (-FIX(0.08131)) * i;
  }
}
 8002518:	dfc00117 	ldw	ra,4(sp)
 800251c:	dc000017 	ldw	r16,0(sp)
 8002520:	dec00204 	addi	sp,sp,8
 8002524:	f800283a 	ret

08002528 <rgb_ycc_convert>:
		 JSAMPARRAY input_buf, JSAMPIMAGE output_buf,
		 JDIMENSION output_row, int num_rows)
{
  my_cconvert_ptr cconvert = (my_cconvert_ptr) cinfo->cconvert;
  register int r, g, b;
  register INT32 * ctab = cconvert->rgb_ycc_tab;
 8002528:	20805617 	ldw	r2,344(r4)

METHODDEF(void)
rgb_ycc_convert (j_compress_ptr cinfo,
		 JSAMPARRAY input_buf, JSAMPIMAGE output_buf,
		 JDIMENSION output_row, int num_rows)
{
 800252c:	defffa04 	addi	sp,sp,-24
 8002530:	dd400515 	stw	r21,20(sp)
 8002534:	dd000415 	stw	r20,16(sp)
 8002538:	db000617 	ldw	r12,24(sp)
  register int r, g, b;
  register INT32 * ctab = cconvert->rgb_ycc_tab;
  register JSAMPROW inptr;
  register JSAMPROW outptr0, outptr1, outptr2;
  register JDIMENSION col;
  JDIMENSION num_cols = cinfo->image_width;
 800253c:	25000617 	ldw	r20,24(r4)
		 JSAMPARRAY input_buf, JSAMPIMAGE output_buf,
		 JDIMENSION output_row, int num_rows)
{
  my_cconvert_ptr cconvert = (my_cconvert_ptr) cinfo->cconvert;
  register int r, g, b;
  register INT32 * ctab = cconvert->rgb_ycc_tab;
 8002540:	15400217 	ldw	r21,8(r2)
  register JSAMPROW inptr;
  register JSAMPROW outptr0, outptr1, outptr2;
  register JDIMENSION col;
  JDIMENSION num_cols = cinfo->image_width;
 8002544:	39cf883a 	add	r7,r7,r7

METHODDEF(void)
rgb_ycc_convert (j_compress_ptr cinfo,
		 JSAMPARRAY input_buf, JSAMPIMAGE output_buf,
		 JDIMENSION output_row, int num_rows)
{
 8002548:	281d883a 	mov	r14,r5
 800254c:	301b883a 	mov	r13,r6
  register int r, g, b;
  register INT32 * ctab = cconvert->rgb_ycc_tab;
  register JSAMPROW inptr;
  register JSAMPROW outptr0, outptr1, outptr2;
  register JDIMENSION col;
  JDIMENSION num_cols = cinfo->image_width;
 8002550:	39d7883a 	add	r11,r7,r7

METHODDEF(void)
rgb_ycc_convert (j_compress_ptr cinfo,
		 JSAMPARRAY input_buf, JSAMPIMAGE output_buf,
		 JDIMENSION output_row, int num_rows)
{
 8002554:	dcc00315 	stw	r19,12(sp)
 8002558:	dc800215 	stw	r18,8(sp)
 800255c:	dc400115 	stw	r17,4(sp)
 8002560:	dc000015 	stw	r16,0(sp)
 8002564:	00000d06 	br	800259c <rgb_ycc_convert+0x74>
  register JDIMENSION col;
  JDIMENSION num_cols = cinfo->image_width;

  while (--num_rows >= 0) {
    inptr = *input_buf++;
    outptr0 = output_buf[0][output_row];
 8002568:	68800017 	ldw	r2,0(r13)
    outptr1 = output_buf[1][output_row];
 800256c:	68c00117 	ldw	r3,4(r13)
    outptr2 = output_buf[2][output_row];
 8002570:	69000217 	ldw	r4,8(r13)
  register JDIMENSION col;
  JDIMENSION num_cols = cinfo->image_width;

  while (--num_rows >= 0) {
    inptr = *input_buf++;
    outptr0 = output_buf[0][output_row];
 8002574:	12c5883a 	add	r2,r2,r11
    outptr1 = output_buf[1][output_row];
 8002578:	1ac7883a 	add	r3,r3,r11
    outptr2 = output_buf[2][output_row];
 800257c:	22c9883a 	add	r4,r4,r11
  register JDIMENSION col;
  JDIMENSION num_cols = cinfo->image_width;

  while (--num_rows >= 0) {
    inptr = *input_buf++;
    outptr0 = output_buf[0][output_row];
 8002580:	14800017 	ldw	r18,0(r2)
    outptr1 = output_buf[1][output_row];
 8002584:	1c400017 	ldw	r17,0(r3)
    outptr2 = output_buf[2][output_row];
 8002588:	24000017 	ldw	r16,0(r4)
  register JSAMPROW outptr0, outptr1, outptr2;
  register JDIMENSION col;
  JDIMENSION num_cols = cinfo->image_width;

  while (--num_rows >= 0) {
    inptr = *input_buf++;
 800258c:	73c00017 	ldw	r15,0(r14)
    outptr0 = output_buf[0][output_row];
    outptr1 = output_buf[1][output_row];
    outptr2 = output_buf[2][output_row];
    output_row++;
    for (col = 0; col < num_cols; col++) {
 8002590:	a0000c1e 	bne	r20,zero,80025c4 <rgb_ycc_convert+0x9c>
  register JSAMPROW outptr0, outptr1, outptr2;
  register JDIMENSION col;
  JDIMENSION num_cols = cinfo->image_width;

  while (--num_rows >= 0) {
    inptr = *input_buf++;
 8002594:	73800104 	addi	r14,r14,4
 8002598:	5ac00104 	addi	r11,r11,4
  register JSAMPROW inptr;
  register JSAMPROW outptr0, outptr1, outptr2;
  register JDIMENSION col;
  JDIMENSION num_cols = cinfo->image_width;

  while (--num_rows >= 0) {
 800259c:	633fffc4 	addi	r12,r12,-1
 80025a0:	603ff10e 	bge	r12,zero,8002568 <rgb_ycc_convert+0x40>
      outptr2[col] = (JSAMPLE)
		((ctab[r+R_CR_OFF] + ctab[g+G_CR_OFF] + ctab[b+B_CR_OFF])
		 >> SCALEBITS);
    }
  }
}
 80025a4:	dd400517 	ldw	r21,20(sp)
 80025a8:	dd000417 	ldw	r20,16(sp)
 80025ac:	dcc00317 	ldw	r19,12(sp)
 80025b0:	dc800217 	ldw	r18,8(sp)
 80025b4:	dc400117 	ldw	r17,4(sp)
 80025b8:	dc000017 	ldw	r16,0(sp)
 80025bc:	dec00604 	addi	sp,sp,24
 80025c0:	f800283a 	ret
    inptr = *input_buf++;
    outptr0 = output_buf[0][output_row];
    outptr1 = output_buf[1][output_row];
    outptr2 = output_buf[2][output_row];
    output_row++;
    for (col = 0; col < num_cols; col++) {
 80025c4:	0027883a 	mov	r19,zero
      r = GETJSAMPLE(inptr[RGB_RED]);
 80025c8:	79000003 	ldbu	r4,0(r15)
      g = GETJSAMPLE(inptr[RGB_GREEN]);
 80025cc:	79400043 	ldbu	r5,1(r15)
      b = GETJSAMPLE(inptr[RGB_BLUE]);
 80025d0:	79800083 	ldbu	r6,2(r15)
       * must be too; we do not need an explicit range-limiting operation.
       * Hence the value being shifted is never negative, and we don't
       * need the general RIGHT_SHIFT macro.
       */
      /* Y */
      outptr0[col] = (JSAMPLE)
 80025d4:	2109883a 	add	r4,r4,r4
 80025d8:	294b883a 	add	r5,r5,r5
 80025dc:	2109883a 	add	r4,r4,r4
 80025e0:	294b883a 	add	r5,r5,r5
 80025e4:	318d883a 	add	r6,r6,r6
 80025e8:	a909883a 	add	r4,r21,r4
 80025ec:	a94b883a 	add	r5,r21,r5
 80025f0:	318d883a 	add	r6,r6,r6
 80025f4:	20800017 	ldw	r2,0(r4)
 80025f8:	28c10017 	ldw	r3,1024(r5)
 80025fc:	a98d883a 	add	r6,r21,r6
 8002600:	31c20017 	ldw	r7,2048(r6)
 8002604:	10c5883a 	add	r2,r2,r3
 8002608:	94d1883a 	add	r8,r18,r19
 800260c:	11c5883a 	add	r2,r2,r7
 8002610:	1005d43a 	srai	r2,r2,16
		((ctab[r+R_Y_OFF] + ctab[g+G_Y_OFF] + ctab[b+B_Y_OFF])
		 >> SCALEBITS);
      /* Cb */
      outptr1[col] = (JSAMPLE)
 8002614:	8cd3883a 	add	r9,r17,r19
		((ctab[r+R_CB_OFF] + ctab[g+G_CB_OFF] + ctab[b+B_CB_OFF])
		 >> SCALEBITS);
      /* Cr */
      outptr2[col] = (JSAMPLE)
 8002618:	84d5883a 	add	r10,r16,r19
       * must be too; we do not need an explicit range-limiting operation.
       * Hence the value being shifted is never negative, and we don't
       * need the general RIGHT_SHIFT macro.
       */
      /* Y */
      outptr0[col] = (JSAMPLE)
 800261c:	40800005 	stb	r2,0(r8)
		((ctab[r+R_Y_OFF] + ctab[g+G_Y_OFF] + ctab[b+B_Y_OFF])
		 >> SCALEBITS);
      /* Cb */
      outptr1[col] = (JSAMPLE)
 8002620:	20c30017 	ldw	r3,3072(r4)
 8002624:	28840017 	ldw	r2,4096(r5)
 8002628:	31c50017 	ldw	r7,5120(r6)
    inptr = *input_buf++;
    outptr0 = output_buf[0][output_row];
    outptr1 = output_buf[1][output_row];
    outptr2 = output_buf[2][output_row];
    output_row++;
    for (col = 0; col < num_cols; col++) {
 800262c:	9cc00044 	addi	r19,r19,1
      /* Y */
      outptr0[col] = (JSAMPLE)
		((ctab[r+R_Y_OFF] + ctab[g+G_Y_OFF] + ctab[b+B_Y_OFF])
		 >> SCALEBITS);
      /* Cb */
      outptr1[col] = (JSAMPLE)
 8002630:	1887883a 	add	r3,r3,r2
 8002634:	19c7883a 	add	r3,r3,r7
 8002638:	1807d43a 	srai	r3,r3,16
    output_row++;
    for (col = 0; col < num_cols; col++) {
      r = GETJSAMPLE(inptr[RGB_RED]);
      g = GETJSAMPLE(inptr[RGB_GREEN]);
      b = GETJSAMPLE(inptr[RGB_BLUE]);
      inptr += RGB_PIXELSIZE;
 800263c:	7bc000c4 	addi	r15,r15,3
      /* Y */
      outptr0[col] = (JSAMPLE)
		((ctab[r+R_Y_OFF] + ctab[g+G_Y_OFF] + ctab[b+B_Y_OFF])
		 >> SCALEBITS);
      /* Cb */
      outptr1[col] = (JSAMPLE)
 8002640:	48c00005 	stb	r3,0(r9)
		((ctab[r+R_CB_OFF] + ctab[g+G_CB_OFF] + ctab[b+B_CB_OFF])
		 >> SCALEBITS);
      /* Cr */
      outptr2[col] = (JSAMPLE)
 8002644:	20850017 	ldw	r2,5120(r4)
 8002648:	28c60017 	ldw	r3,6144(r5)
 800264c:	31070017 	ldw	r4,7168(r6)
 8002650:	10c5883a 	add	r2,r2,r3
 8002654:	1105883a 	add	r2,r2,r4
 8002658:	1005d43a 	srai	r2,r2,16
 800265c:	50800005 	stb	r2,0(r10)
    inptr = *input_buf++;
    outptr0 = output_buf[0][output_row];
    outptr1 = output_buf[1][output_row];
    outptr2 = output_buf[2][output_row];
    output_row++;
    for (col = 0; col < num_cols; col++) {
 8002660:	a4ffcc26 	beq	r20,r19,8002594 <rgb_ycc_convert+0x6c>
 8002664:	003fd806 	br	80025c8 <rgb_ycc_convert+0xa0>

08002668 <rgb_gray_convert>:
		  JSAMPARRAY input_buf, JSAMPIMAGE output_buf,
		  JDIMENSION output_row, int num_rows)
{
  my_cconvert_ptr cconvert = (my_cconvert_ptr) cinfo->cconvert;
  register int r, g, b;
  register INT32 * ctab = cconvert->rgb_ycc_tab;
 8002668:	20805617 	ldw	r2,344(r4)

METHODDEF(void)
rgb_gray_convert (j_compress_ptr cinfo,
		  JSAMPARRAY input_buf, JSAMPIMAGE output_buf,
		  JDIMENSION output_row, int num_rows)
{
 800266c:	deffff04 	addi	sp,sp,-4
 8002670:	dc000015 	stw	r16,0(sp)
  register int r, g, b;
  register INT32 * ctab = cconvert->rgb_ycc_tab;
  register JSAMPROW inptr;
  register JSAMPROW outptr;
  register JDIMENSION col;
  JDIMENSION num_cols = cinfo->image_width;
 8002674:	24000617 	ldw	r16,24(r4)

METHODDEF(void)
rgb_gray_convert (j_compress_ptr cinfo,
		  JSAMPARRAY input_buf, JSAMPIMAGE output_buf,
		  JDIMENSION output_row, int num_rows)
{
 8002678:	da000117 	ldw	r8,4(sp)
  my_cconvert_ptr cconvert = (my_cconvert_ptr) cinfo->cconvert;
  register int r, g, b;
  register INT32 * ctab = cconvert->rgb_ycc_tab;
 800267c:	13c00217 	ldw	r15,8(r2)
  register JSAMPROW inptr;
  register JSAMPROW outptr;
  register JDIMENSION col;
  JDIMENSION num_cols = cinfo->image_width;
 8002680:	39cf883a 	add	r7,r7,r7

METHODDEF(void)
rgb_gray_convert (j_compress_ptr cinfo,
		  JSAMPARRAY input_buf, JSAMPIMAGE output_buf,
		  JDIMENSION output_row, int num_rows)
{
 8002684:	2813883a 	mov	r9,r5
 8002688:	301b883a 	mov	r13,r6
  register int r, g, b;
  register INT32 * ctab = cconvert->rgb_ycc_tab;
  register JSAMPROW inptr;
  register JSAMPROW outptr;
  register JDIMENSION col;
  JDIMENSION num_cols = cinfo->image_width;
 800268c:	39cf883a 	add	r7,r7,r7
 8002690:	8019003a 	cmpeq	r12,r16,zero
 8002694:	00000706 	br	80026b4 <rgb_gray_convert+0x4c>

  while (--num_rows >= 0) {
    inptr = *input_buf++;
    outptr = output_buf[0][output_row];
 8002698:	68800017 	ldw	r2,0(r13)
  register JSAMPROW outptr;
  register JDIMENSION col;
  JDIMENSION num_cols = cinfo->image_width;

  while (--num_rows >= 0) {
    inptr = *input_buf++;
 800269c:	4a800017 	ldw	r10,0(r9)
    outptr = output_buf[0][output_row];
 80026a0:	11c5883a 	add	r2,r2,r7
 80026a4:	12c00017 	ldw	r11,0(r2)
    output_row++;
    for (col = 0; col < num_cols; col++) {
 80026a8:	60000726 	beq	r12,zero,80026c8 <rgb_gray_convert+0x60>
  register JSAMPROW outptr;
  register JDIMENSION col;
  JDIMENSION num_cols = cinfo->image_width;

  while (--num_rows >= 0) {
    inptr = *input_buf++;
 80026ac:	4a400104 	addi	r9,r9,4
 80026b0:	39c00104 	addi	r7,r7,4
  register JSAMPROW inptr;
  register JSAMPROW outptr;
  register JDIMENSION col;
  JDIMENSION num_cols = cinfo->image_width;

  while (--num_rows >= 0) {
 80026b4:	423fffc4 	addi	r8,r8,-1
 80026b8:	403ff70e 	bge	r8,zero,8002698 <rgb_gray_convert+0x30>
      outptr[col] = (JSAMPLE)
		((ctab[r+R_Y_OFF] + ctab[g+G_Y_OFF] + ctab[b+B_Y_OFF])
		 >> SCALEBITS);
    }
  }
}
 80026bc:	dc000017 	ldw	r16,0(sp)
 80026c0:	dec00104 	addi	sp,sp,4
 80026c4:	f800283a 	ret

  while (--num_rows >= 0) {
    inptr = *input_buf++;
    outptr = output_buf[0][output_row];
    output_row++;
    for (col = 0; col < num_cols; col++) {
 80026c8:	001d883a 	mov	r14,zero
      r = GETJSAMPLE(inptr[RGB_RED]);
