Archive member included because of file (symbol)

/package/eda/altera/altera13.0sp1/nios2eds/bin/gnu/H-i686-pc-linux-gnu/bin/../lib/gcc/nios2-elf/4.1.2/libgcc.a(_addsub_sf.o)
                              obj/default/jfdctflt.o (__subsf3)
/package/eda/altera/altera13.0sp1/nios2eds/bin/gnu/H-i686-pc-linux-gnu/bin/../lib/gcc/nios2-elf/4.1.2/libgcc.a(_mul_sf.o)
                              obj/default/jcdctmgr.o (__mulsf3)
/package/eda/altera/altera13.0sp1/nios2eds/bin/gnu/H-i686-pc-linux-gnu/bin/../lib/gcc/nios2-elf/4.1.2/libgcc.a(_si_to_sf.o)
                              obj/default/jcdctmgr.o (__floatsisf)
/package/eda/altera/altera13.0sp1/nios2eds/bin/gnu/H-i686-pc-linux-gnu/bin/../lib/gcc/nios2-elf/4.1.2/libgcc.a(_sf_to_si.o)
                              obj/default/jcdctmgr.o (__fixsfsi)
/package/eda/altera/altera13.0sp1/nios2eds/bin/gnu/H-i686-pc-linux-gnu/bin/../lib/gcc/nios2-elf/4.1.2/libgcc.a(_thenan_sf.o)
                              /package/eda/altera/altera13.0sp1/nios2eds/bin/gnu/H-i686-pc-linux-gnu/bin/../lib/gcc/nios2-elf/4.1.2/libgcc.a(_addsub_sf.o) (__thenan_sf)
/package/eda/altera/altera13.0sp1/nios2eds/bin/gnu/H-i686-pc-linux-gnu/bin/../lib/gcc/nios2-elf/4.1.2/libgcc.a(_mul_df.o)
                              obj/default/jcdctmgr.o (__muldf3)
/package/eda/altera/altera13.0sp1/nios2eds/bin/gnu/H-i686-pc-linux-gnu/bin/../lib/gcc/nios2-elf/4.1.2/libgcc.a(_div_df.o)
                              obj/default/jcdctmgr.o (__divdf3)
/package/eda/altera/altera13.0sp1/nios2eds/bin/gnu/H-i686-pc-linux-gnu/bin/../lib/gcc/nios2-elf/4.1.2/libgcc.a(_df_to_sf.o)
                              obj/default/jcdctmgr.o (__truncdfsf2)
/package/eda/altera/altera13.0sp1/nios2eds/bin/gnu/H-i686-pc-linux-gnu/bin/../lib/gcc/nios2-elf/4.1.2/libgcc.a(_thenan_df.o)
                              /package/eda/altera/altera13.0sp1/nios2eds/bin/gnu/H-i686-pc-linux-gnu/bin/../lib/gcc/nios2-elf/4.1.2/libgcc.a(_mul_df.o) (__thenan_df)
/package/eda/altera/altera13.0sp1/nios2eds/bin/gnu/H-i686-pc-linux-gnu/bin/../lib/gcc/nios2-elf/4.1.2/libgcc.a(_usi_to_df.o)
                              obj/default/jcdctmgr.o (__floatunsidf)
/package/eda/altera/altera13.0sp1/nios2eds/bin/gnu/H-i686-pc-linux-gnu/bin/../lib/gcc/nios2-elf/4.1.2/libgcc.a(lib2-divmod.o)
                              obj/default/jcdctmgr.o (__divsi3)
/package/eda/altera/altera13.0sp1/nios2eds/bin/gnu/H-i686-pc-linux-gnu/bin/../lib/gcc/nios2-elf/4.1.2/libgcc.a(lib2-divtable.o)
                              obj/default/jcdctmgr.o (__divsi3_table)
/package/eda/altera/altera13.0sp1/nios2eds/bin/gnu/H-i686-pc-linux-gnu/bin/../lib/gcc/nios2-elf/4.1.2/libgcc.a(_muldi3.o)
                              /package/eda/altera/altera13.0sp1/nios2eds/bin/gnu/H-i686-pc-linux-gnu/bin/../lib/gcc/nios2-elf/4.1.2/libgcc.a(_mul_sf.o) (__muldi3)
/package/eda/altera/altera13.0sp1/nios2eds/bin/gnu/H-i686-pc-linux-gnu/bin/../lib/gcc/nios2-elf/4.1.2/libgcc.a(_clzsi2.o)
                              /package/eda/altera/altera13.0sp1/nios2eds/bin/gnu/H-i686-pc-linux-gnu/bin/../lib/gcc/nios2-elf/4.1.2/libgcc.a(_si_to_sf.o) (__clzsi2)
/package/eda/altera/altera13.0sp1/nios2eds/bin/gnu/H-i686-pc-linux-gnu/bin/../lib/gcc/nios2-elf/4.1.2/libgcc.a(_pack_sf.o)
                              /package/eda/altera/altera13.0sp1/nios2eds/bin/gnu/H-i686-pc-linux-gnu/bin/../lib/gcc/nios2-elf/4.1.2/libgcc.a(_addsub_sf.o) (__pack_f)
/package/eda/altera/altera13.0sp1/nios2eds/bin/gnu/H-i686-pc-linux-gnu/bin/../lib/gcc/nios2-elf/4.1.2/libgcc.a(_unpack_sf.o)
                              /package/eda/altera/altera13.0sp1/nios2eds/bin/gnu/H-i686-pc-linux-gnu/bin/../lib/gcc/nios2-elf/4.1.2/libgcc.a(_addsub_sf.o) (__unpack_f)
/package/eda/altera/altera13.0sp1/nios2eds/bin/gnu/H-i686-pc-linux-gnu/bin/../lib/gcc/nios2-elf/4.1.2/libgcc.a(_make_sf.o)
                              /package/eda/altera/altera13.0sp1/nios2eds/bin/gnu/H-i686-pc-linux-gnu/bin/../lib/gcc/nios2-elf/4.1.2/libgcc.a(_df_to_sf.o) (__make_fp)
/package/eda/altera/altera13.0sp1/nios2eds/bin/gnu/H-i686-pc-linux-gnu/bin/../lib/gcc/nios2-elf/4.1.2/libgcc.a(_pack_df.o)
                              /package/eda/altera/altera13.0sp1/nios2eds/bin/gnu/H-i686-pc-linux-gnu/bin/../lib/gcc/nios2-elf/4.1.2/libgcc.a(_mul_df.o) (__pack_d)
/package/eda/altera/altera13.0sp1/nios2eds/bin/gnu/H-i686-pc-linux-gnu/bin/../lib/gcc/nios2-elf/4.1.2/libgcc.a(_unpack_df.o)
                              /package/eda/altera/altera13.0sp1/nios2eds/bin/gnu/H-i686-pc-linux-gnu/bin/../lib/gcc/nios2-elf/4.1.2/libgcc.a(_mul_df.o) (__unpack_d)
/package/eda/altera/altera13.0sp1/nios2eds/bin/gnu/H-i686-pc-linux-gnu/bin/../lib/gcc/nios2-elf/4.1.2/libgcc.a(_clz.o)
                              /package/eda/altera/altera13.0sp1/nios2eds/bin/gnu/H-i686-pc-linux-gnu/bin/../lib/gcc/nios2-elf/4.1.2/libgcc.a(_clzsi2.o) (__clz_tab)
/package/eda/altera/altera13.0sp1/nios2eds/bin/gnu/H-i686-pc-linux-gnu/bin/../lib/gcc/nios2-elf/4.1.2/../../../../nios2-elf/lib/libc.a(lib_a-ctype_.o)
                              obj/default/cdjpeg.o (__ctype_ptr)
/package/eda/altera/altera13.0sp1/nios2eds/bin/gnu/H-i686-pc-linux-gnu/bin/../lib/gcc/nios2-elf/4.1.2/../../../../nios2-elf/lib/libc.a(lib_a-exit.o)
                              obj/default/djpeg.o (exit)
/package/eda/altera/altera13.0sp1/nios2eds/bin/gnu/H-i686-pc-linux-gnu/bin/../lib/gcc/nios2-elf/4.1.2/../../../../nios2-elf/lib/libc.a(lib_a-fclose.o)
                              obj/default/djpeg.o (fclose)
/package/eda/altera/altera13.0sp1/nios2eds/bin/gnu/H-i686-pc-linux-gnu/bin/../lib/gcc/nios2-elf/4.1.2/../../../../nios2-elf/lib/libc.a(lib_a-fflush.o)
                              /package/eda/altera/altera13.0sp1/nios2eds/bin/gnu/H-i686-pc-linux-gnu/bin/../lib/gcc/nios2-elf/4.1.2/../../../../nios2-elf/lib/libc.a(lib_a-fclose.o) (_fflush_r)
/package/eda/altera/altera13.0sp1/nios2eds/bin/gnu/H-i686-pc-linux-gnu/bin/../lib/gcc/nios2-elf/4.1.2/../../../../nios2-elf/lib/libc.a(lib_a-findfp.o)
                              /package/eda/altera/altera13.0sp1/nios2eds/bin/gnu/H-i686-pc-linux-gnu/bin/../lib/gcc/nios2-elf/4.1.2/../../../../nios2-elf/lib/libc.a(lib_a-fclose.o) (__sfp_lock_acquire)
/package/eda/altera/altera13.0sp1/nios2eds/bin/gnu/H-i686-pc-linux-gnu/bin/../lib/gcc/nios2-elf/4.1.2/../../../../nios2-elf/lib/libc.a(lib_a-fopen.o)
                              obj/default/djpeg.o (fopen)
/package/eda/altera/altera13.0sp1/nios2eds/bin/gnu/H-i686-pc-linux-gnu/bin/../lib/gcc/nios2-elf/4.1.2/../../../../nios2-elf/lib/libc.a(lib_a-fprintf.o)
                              obj/default/djpeg.o (fprintf)
/package/eda/altera/altera13.0sp1/nios2eds/bin/gnu/H-i686-pc-linux-gnu/bin/../lib/gcc/nios2-elf/4.1.2/../../../../nios2-elf/lib/libc.a(lib_a-fputc.o)
                              obj/default/djpeg.o (fputc)
/package/eda/altera/altera13.0sp1/nios2eds/bin/gnu/H-i686-pc-linux-gnu/bin/../lib/gcc/nios2-elf/4.1.2/../../../../nios2-elf/lib/libc.a(lib_a-fread.o)
                              obj/default/jdatasrc.o (fread)
/package/eda/altera/altera13.0sp1/nios2eds/bin/gnu/H-i686-pc-linux-gnu/bin/../lib/gcc/nios2-elf/4.1.2/../../../../nios2-elf/lib/libc.a(lib_a-freer.o)
                              /package/eda/altera/altera13.0sp1/nios2eds/bin/gnu/H-i686-pc-linux-gnu/bin/../lib/gcc/nios2-elf/4.1.2/../../../../nios2-elf/lib/libc.a(lib_a-fclose.o) (_free_r)
/package/eda/altera/altera13.0sp1/nios2eds/bin/gnu/H-i686-pc-linux-gnu/bin/../lib/gcc/nios2-elf/4.1.2/../../../../nios2-elf/lib/libc.a(lib_a-fseek.o)
                              /package/eda/altera/altera13.0sp1/nios2eds/bin/gnu/H-i686-pc-linux-gnu/bin/../lib/gcc/nios2-elf/4.1.2/../../../../nios2-elf/lib/libc.a(lib_a-fopen.o) (_fseek_r)
/package/eda/altera/altera13.0sp1/nios2eds/bin/gnu/H-i686-pc-linux-gnu/bin/../lib/gcc/nios2-elf/4.1.2/../../../../nios2-elf/lib/libc.a(lib_a-fstatr.o)
                              /package/eda/altera/altera13.0sp1/nios2eds/bin/gnu/H-i686-pc-linux-gnu/bin/../lib/gcc/nios2-elf/4.1.2/../../../../nios2-elf/lib/libc.a(lib_a-fseek.o) (_fstat_r)
/package/eda/altera/altera13.0sp1/nios2eds/bin/gnu/H-i686-pc-linux-gnu/bin/../lib/gcc/nios2-elf/4.1.2/../../../../nios2-elf/lib/libc.a(lib_a-fwalk.o)
                              /package/eda/altera/altera13.0sp1/nios2eds/bin/gnu/H-i686-pc-linux-gnu/bin/../lib/gcc/nios2-elf/4.1.2/../../../../nios2-elf/lib/libc.a(lib_a-fflush.o) (_fwalk_reent)
/package/eda/altera/altera13.0sp1/nios2eds/bin/gnu/H-i686-pc-linux-gnu/bin/../lib/gcc/nios2-elf/4.1.2/../../../../nios2-elf/lib/libc.a(lib_a-fwrite.o)
                              obj/default/djpeg.o (fwrite)
/package/eda/altera/altera13.0sp1/nios2eds/bin/gnu/H-i686-pc-linux-gnu/bin/../lib/gcc/nios2-elf/4.1.2/../../../../nios2-elf/lib/libc.a(lib_a-getc.o)
                              obj/default/rdcolmap.o (getc)
/package/eda/altera/altera13.0sp1/nios2eds/bin/gnu/H-i686-pc-linux-gnu/bin/../lib/gcc/nios2-elf/4.1.2/../../../../nios2-elf/lib/libc.a(lib_a-getenv.o)
                              obj/default/jmemmgr.o (getenv)
/package/eda/altera/altera13.0sp1/nios2eds/bin/gnu/H-i686-pc-linux-gnu/bin/../lib/gcc/nios2-elf/4.1.2/../../../../nios2-elf/lib/libc.a(lib_a-getenv_r.o)
                              /package/eda/altera/altera13.0sp1/nios2eds/bin/gnu/H-i686-pc-linux-gnu/bin/../lib/gcc/nios2-elf/4.1.2/../../../../nios2-elf/lib/libc.a(lib_a-getenv.o) (_findenv_r)
/package/eda/altera/altera13.0sp1/nios2eds/bin/gnu/H-i686-pc-linux-gnu/bin/../lib/gcc/nios2-elf/4.1.2/../../../../nios2-elf/lib/libc.a(lib_a-impure.o)
                              obj/default/cdjpeg.o (_impure_ptr)
/package/eda/altera/altera13.0sp1/nios2eds/bin/gnu/H-i686-pc-linux-gnu/bin/../lib/gcc/nios2-elf/4.1.2/../../../../nios2-elf/lib/libc.a(lib_a-int_errno.o)
                              /package/eda/altera/altera13.0sp1/nios2eds/bin/gnu/H-i686-pc-linux-gnu/bin/../lib/gcc/nios2-elf/4.1.2/../../../../nios2-elf/lib/libc.a(lib_a-fstatr.o) (errno)
/package/eda/altera/altera13.0sp1/nios2eds/bin/gnu/H-i686-pc-linux-gnu/bin/../lib/gcc/nios2-elf/4.1.2/../../../../nios2-elf/lib/libc.a(lib_a-makebuf.o)
                              /package/eda/altera/altera13.0sp1/nios2eds/bin/gnu/H-i686-pc-linux-gnu/bin/../lib/gcc/nios2-elf/4.1.2/../../../../nios2-elf/lib/libc.a(lib_a-fseek.o) (__smakebuf_r)
/package/eda/altera/altera13.0sp1/nios2eds/bin/gnu/H-i686-pc-linux-gnu/bin/../lib/gcc/nios2-elf/4.1.2/../../../../nios2-elf/lib/libc.a(lib_a-malloc.o)
                              obj/default/jmemnobs.o (free)
/package/eda/altera/altera13.0sp1/nios2eds/bin/gnu/H-i686-pc-linux-gnu/bin/../lib/gcc/nios2-elf/4.1.2/../../../../nios2-elf/lib/libc.a(lib_a-mallocr.o)
                              /package/eda/altera/altera13.0sp1/nios2eds/bin/gnu/H-i686-pc-linux-gnu/bin/../lib/gcc/nios2-elf/4.1.2/../../../../nios2-elf/lib/libc.a(lib_a-findfp.o) (_malloc_r)
/package/eda/altera/altera13.0sp1/nios2eds/bin/gnu/H-i686-pc-linux-gnu/bin/../lib/gcc/nios2-elf/4.1.2/../../../../nios2-elf/lib/libc.a(lib_a-memcpy.o)
                              obj/default/djpeg.o (memcpy)
/package/eda/altera/altera13.0sp1/nios2eds/bin/gnu/H-i686-pc-linux-gnu/bin/../lib/gcc/nios2-elf/4.1.2/../../../../nios2-elf/lib/libc.a(lib_a-memset.o)
                              obj/default/jcapimin.o (memset)
/package/eda/altera/altera13.0sp1/nios2eds/bin/gnu/H-i686-pc-linux-gnu/bin/../lib/gcc/nios2-elf/4.1.2/../../../../nios2-elf/lib/libc.a(lib_a-openr.o)
                              /package/eda/altera/altera13.0sp1/nios2eds/bin/gnu/H-i686-pc-linux-gnu/bin/../lib/gcc/nios2-elf/4.1.2/../../../../nios2-elf/lib/libc.a(lib_a-fopen.o) (_open_r)
/package/eda/altera/altera13.0sp1/nios2eds/bin/gnu/H-i686-pc-linux-gnu/bin/../lib/gcc/nios2-elf/4.1.2/../../../../nios2-elf/lib/libc.a(lib_a-printf.o)
                              obj/default/djpeg.o (printf)
/package/eda/altera/altera13.0sp1/nios2eds/bin/gnu/H-i686-pc-linux-gnu/bin/../lib/gcc/nios2-elf/4.1.2/../../../../nios2-elf/lib/libc.a(lib_a-putc.o)
                              obj/default/djpeg.o (putc)
/package/eda/altera/altera13.0sp1/nios2eds/bin/gnu/H-i686-pc-linux-gnu/bin/../lib/gcc/nios2-elf/4.1.2/../../../../nios2-elf/lib/libc.a(lib_a-puts.o)
                              obj/default/djpeg.o (puts)
/package/eda/altera/altera13.0sp1/nios2eds/bin/gnu/H-i686-pc-linux-gnu/bin/../lib/gcc/nios2-elf/4.1.2/../../../../nios2-elf/lib/libc.a(lib_a-refill.o)
                              /package/eda/altera/altera13.0sp1/nios2eds/bin/gnu/H-i686-pc-linux-gnu/bin/../lib/gcc/nios2-elf/4.1.2/../../../../nios2-elf/lib/libc.a(lib_a-fread.o) (__srefill_r)
/package/eda/altera/altera13.0sp1/nios2eds/bin/gnu/H-i686-pc-linux-gnu/bin/../lib/gcc/nios2-elf/4.1.2/../../../../nios2-elf/lib/libc.a(lib_a-rget.o)
                              /package/eda/altera/altera13.0sp1/nios2eds/bin/gnu/H-i686-pc-linux-gnu/bin/../lib/gcc/nios2-elf/4.1.2/../../../../nios2-elf/lib/libc.a(lib_a-getc.o) (__srget_r)
/package/eda/altera/altera13.0sp1/nios2eds/bin/gnu/H-i686-pc-linux-gnu/bin/../lib/gcc/nios2-elf/4.1.2/../../../../nios2-elf/lib/libc.a(lib_a-sbrkr.o)
                              /package/eda/altera/altera13.0sp1/nios2eds/bin/gnu/H-i686-pc-linux-gnu/bin/../lib/gcc/nios2-elf/4.1.2/../../../../nios2-elf/lib/libc.a(lib_a-freer.o) (_sbrk_r)
/package/eda/altera/altera13.0sp1/nios2eds/bin/gnu/H-i686-pc-linux-gnu/bin/../lib/gcc/nios2-elf/4.1.2/../../../../nios2-elf/lib/libc.a(lib_a-sprintf.o)
                              obj/default/jerror.o (sprintf)
/package/eda/altera/altera13.0sp1/nios2eds/bin/gnu/H-i686-pc-linux-gnu/bin/../lib/gcc/nios2-elf/4.1.2/../../../../nios2-elf/lib/libc.a(lib_a-sscanf.o)
                              obj/default/djpeg.o (sscanf)
/package/eda/altera/altera13.0sp1/nios2eds/bin/gnu/H-i686-pc-linux-gnu/bin/../lib/gcc/nios2-elf/4.1.2/../../../../nios2-elf/lib/libc.a(lib_a-stdio.o)
                              /package/eda/altera/altera13.0sp1/nios2eds/bin/gnu/H-i686-pc-linux-gnu/bin/../lib/gcc/nios2-elf/4.1.2/../../../../nios2-elf/lib/libc.a(lib_a-findfp.o) (__sclose)
/package/eda/altera/altera13.0sp1/nios2eds/bin/gnu/H-i686-pc-linux-gnu/bin/../lib/gcc/nios2-elf/4.1.2/../../../../nios2-elf/lib/libc.a(lib_a-strdup.o)
                              obj/default/djpeg.o (strdup)
/package/eda/altera/altera13.0sp1/nios2eds/bin/gnu/H-i686-pc-linux-gnu/bin/../lib/gcc/nios2-elf/4.1.2/../../../../nios2-elf/lib/libc.a(lib_a-strdup_r.o)
                              /package/eda/altera/altera13.0sp1/nios2eds/bin/gnu/H-i686-pc-linux-gnu/bin/../lib/gcc/nios2-elf/4.1.2/../../../../nios2-elf/lib/libc.a(lib_a-strdup.o) (_strdup_r)
/package/eda/altera/altera13.0sp1/nios2eds/bin/gnu/H-i686-pc-linux-gnu/bin/../lib/gcc/nios2-elf/4.1.2/../../../../nios2-elf/lib/libc.a(lib_a-strlen.o)
                              /package/eda/altera/altera13.0sp1/nios2eds/bin/gnu/H-i686-pc-linux-gnu/bin/../lib/gcc/nios2-elf/4.1.2/../../../../nios2-elf/lib/libc.a(lib_a-puts.o) (strlen)
/package/eda/altera/altera13.0sp1/nios2eds/bin/gnu/H-i686-pc-linux-gnu/bin/../lib/gcc/nios2-elf/4.1.2/../../../../nios2-elf/lib/libc.a(lib_a-strncmp.o)
                              /package/eda/altera/altera13.0sp1/nios2eds/bin/gnu/H-i686-pc-linux-gnu/bin/../lib/gcc/nios2-elf/4.1.2/../../../../nios2-elf/lib/libc.a(lib_a-getenv_r.o) (strncmp)
/package/eda/altera/altera13.0sp1/nios2eds/bin/gnu/H-i686-pc-linux-gnu/bin/../lib/gcc/nios2-elf/4.1.2/../../../../nios2-elf/lib/libc.a(lib_a-vfprintf.o)
                              /package/eda/altera/altera13.0sp1/nios2eds/bin/gnu/H-i686-pc-linux-gnu/bin/../lib/gcc/nios2-elf/4.1.2/../../../../nios2-elf/lib/libc.a(lib_a-printf.o) (___vfprintf_internal_r)
/package/eda/altera/altera13.0sp1/nios2eds/bin/gnu/H-i686-pc-linux-gnu/bin/../lib/gcc/nios2-elf/4.1.2/../../../../nios2-elf/lib/libc.a(lib_a-vfscanf.o)
                              /package/eda/altera/altera13.0sp1/nios2eds/bin/gnu/H-i686-pc-linux-gnu/bin/../lib/gcc/nios2-elf/4.1.2/../../../../nios2-elf/lib/libc.a(lib_a-sscanf.o) (__svfscanf_r)
/package/eda/altera/altera13.0sp1/nios2eds/bin/gnu/H-i686-pc-linux-gnu/bin/../lib/gcc/nios2-elf/4.1.2/../../../../nios2-elf/lib/libc.a(lib_a-wbuf.o)
                              /package/eda/altera/altera13.0sp1/nios2eds/bin/gnu/H-i686-pc-linux-gnu/bin/../lib/gcc/nios2-elf/4.1.2/../../../../nios2-elf/lib/libc.a(lib_a-putc.o) (__swbuf_r)
/package/eda/altera/altera13.0sp1/nios2eds/bin/gnu/H-i686-pc-linux-gnu/bin/../lib/gcc/nios2-elf/4.1.2/../../../../nios2-elf/lib/libc.a(lib_a-writer.o)
                              /package/eda/altera/altera13.0sp1/nios2eds/bin/gnu/H-i686-pc-linux-gnu/bin/../lib/gcc/nios2-elf/4.1.2/../../../../nios2-elf/lib/libc.a(lib_a-stdio.o) (_write_r)
/package/eda/altera/altera13.0sp1/nios2eds/bin/gnu/H-i686-pc-linux-gnu/bin/../lib/gcc/nios2-elf/4.1.2/../../../../nios2-elf/lib/libc.a(lib_a-wsetup.o)
                              /package/eda/altera/altera13.0sp1/nios2eds/bin/gnu/H-i686-pc-linux-gnu/bin/../lib/gcc/nios2-elf/4.1.2/../../../../nios2-elf/lib/libc.a(lib_a-vfprintf.o) (__swsetup_r)
/package/eda/altera/altera13.0sp1/nios2eds/bin/gnu/H-i686-pc-linux-gnu/bin/../lib/gcc/nios2-elf/4.1.2/../../../../nios2-elf/lib/libc.a(lib_a-__call_atexit.o)
                              /package/eda/altera/altera13.0sp1/nios2eds/bin/gnu/H-i686-pc-linux-gnu/bin/../lib/gcc/nios2-elf/4.1.2/../../../../nios2-elf/lib/libc.a(lib_a-exit.o) (__call_exitprocs)
/package/eda/altera/altera13.0sp1/nios2eds/bin/gnu/H-i686-pc-linux-gnu/bin/../lib/gcc/nios2-elf/4.1.2/../../../../nios2-elf/lib/libc.a(lib_a-closer.o)
                              /package/eda/altera/altera13.0sp1/nios2eds/bin/gnu/H-i686-pc-linux-gnu/bin/../lib/gcc/nios2-elf/4.1.2/../../../../nios2-elf/lib/libc.a(lib_a-stdio.o) (_close_r)
/package/eda/altera/altera13.0sp1/nios2eds/bin/gnu/H-i686-pc-linux-gnu/bin/../lib/gcc/nios2-elf/4.1.2/../../../../nios2-elf/lib/libc.a(lib_a-dtoa.o)
                              /package/eda/altera/altera13.0sp1/nios2eds/bin/gnu/H-i686-pc-linux-gnu/bin/../lib/gcc/nios2-elf/4.1.2/../../../../nios2-elf/lib/libc.a(lib_a-vfprintf.o) (_dtoa_r)
/package/eda/altera/altera13.0sp1/nios2eds/bin/gnu/H-i686-pc-linux-gnu/bin/../lib/gcc/nios2-elf/4.1.2/../../../../nios2-elf/lib/libc.a(lib_a-environ.o)
                              /package/eda/altera/altera13.0sp1/nios2eds/bin/gnu/H-i686-pc-linux-gnu/bin/../lib/gcc/nios2-elf/4.1.2/../../../../nios2-elf/lib/libc.a(lib_a-getenv_r.o) (environ)
/package/eda/altera/altera13.0sp1/nios2eds/bin/gnu/H-i686-pc-linux-gnu/bin/../lib/gcc/nios2-elf/4.1.2/../../../../nios2-elf/lib/libc.a(lib_a-flags.o)
                              /package/eda/altera/altera13.0sp1/nios2eds/bin/gnu/H-i686-pc-linux-gnu/bin/../lib/gcc/nios2-elf/4.1.2/../../../../nios2-elf/lib/libc.a(lib_a-fopen.o) (__sflags)
/package/eda/altera/altera13.0sp1/nios2eds/bin/gnu/H-i686-pc-linux-gnu/bin/../lib/gcc/nios2-elf/4.1.2/../../../../nios2-elf/lib/libc.a(lib_a-fvwrite.o)
                              /package/eda/altera/altera13.0sp1/nios2eds/bin/gnu/H-i686-pc-linux-gnu/bin/../lib/gcc/nios2-elf/4.1.2/../../../../nios2-elf/lib/libc.a(lib_a-fwrite.o) (__sfvwrite_r)
/package/eda/altera/altera13.0sp1/nios2eds/bin/gnu/H-i686-pc-linux-gnu/bin/../lib/gcc/nios2-elf/4.1.2/../../../../nios2-elf/lib/libc.a(lib_a-isattyr.o)
                              /package/eda/altera/altera13.0sp1/nios2eds/bin/gnu/H-i686-pc-linux-gnu/bin/../lib/gcc/nios2-elf/4.1.2/../../../../nios2-elf/lib/libc.a(lib_a-makebuf.o) (_isatty_r)
/package/eda/altera/altera13.0sp1/nios2eds/bin/gnu/H-i686-pc-linux-gnu/bin/../lib/gcc/nios2-elf/4.1.2/../../../../nios2-elf/lib/libc.a(lib_a-iswspace.o)
                              /package/eda/altera/altera13.0sp1/nios2eds/bin/gnu/H-i686-pc-linux-gnu/bin/../lib/gcc/nios2-elf/4.1.2/../../../../nios2-elf/lib/libc.a(lib_a-vfscanf.o) (iswspace)
/package/eda/altera/altera13.0sp1/nios2eds/bin/gnu/H-i686-pc-linux-gnu/bin/../lib/gcc/nios2-elf/4.1.2/../../../../nios2-elf/lib/libc.a(lib_a-locale.o)
                              /package/eda/altera/altera13.0sp1/nios2eds/bin/gnu/H-i686-pc-linux-gnu/bin/../lib/gcc/nios2-elf/4.1.2/../../../../nios2-elf/lib/libc.a(lib_a-vfprintf.o) (_localeconv_r)
/package/eda/altera/altera13.0sp1/nios2eds/bin/gnu/H-i686-pc-linux-gnu/bin/../lib/gcc/nios2-elf/4.1.2/../../../../nios2-elf/lib/libc.a(lib_a-lseekr.o)
                              /package/eda/altera/altera13.0sp1/nios2eds/bin/gnu/H-i686-pc-linux-gnu/bin/../lib/gcc/nios2-elf/4.1.2/../../../../nios2-elf/lib/libc.a(lib_a-stdio.o) (_lseek_r)
/package/eda/altera/altera13.0sp1/nios2eds/bin/gnu/H-i686-pc-linux-gnu/bin/../lib/gcc/nios2-elf/4.1.2/../../../../nios2-elf/lib/libc.a(lib_a-mbrtowc.o)
                              /package/eda/altera/altera13.0sp1/nios2eds/bin/gnu/H-i686-pc-linux-gnu/bin/../lib/gcc/nios2-elf/4.1.2/../../../../nios2-elf/lib/libc.a(lib_a-vfscanf.o) (_mbrtowc_r)
/package/eda/altera/altera13.0sp1/nios2eds/bin/gnu/H-i686-pc-linux-gnu/bin/../lib/gcc/nios2-elf/4.1.2/../../../../nios2-elf/lib/libc.a(lib_a-mbtowc_r.o)
                              /package/eda/altera/altera13.0sp1/nios2eds/bin/gnu/H-i686-pc-linux-gnu/bin/../lib/gcc/nios2-elf/4.1.2/../../../../nios2-elf/lib/libc.a(lib_a-mbrtowc.o) (_mbtowc_r)
/package/eda/altera/altera13.0sp1/nios2eds/bin/gnu/H-i686-pc-linux-gnu/bin/../lib/gcc/nios2-elf/4.1.2/../../../../nios2-elf/lib/libc.a(lib_a-memchr.o)
                              /package/eda/altera/altera13.0sp1/nios2eds/bin/gnu/H-i686-pc-linux-gnu/bin/../lib/gcc/nios2-elf/4.1.2/../../../../nios2-elf/lib/libc.a(lib_a-vfprintf.o) (memchr)
/package/eda/altera/altera13.0sp1/nios2eds/bin/gnu/H-i686-pc-linux-gnu/bin/../lib/gcc/nios2-elf/4.1.2/../../../../nios2-elf/lib/libc.a(lib_a-memmove.o)
                              /package/eda/altera/altera13.0sp1/nios2eds/bin/gnu/H-i686-pc-linux-gnu/bin/../lib/gcc/nios2-elf/4.1.2/../../../../nios2-elf/lib/libc.a(lib_a-fvwrite.o) (memmove)
/package/eda/altera/altera13.0sp1/nios2eds/bin/gnu/H-i686-pc-linux-gnu/bin/../lib/gcc/nios2-elf/4.1.2/../../../../nios2-elf/lib/libc.a(lib_a-mprec.o)
                              /package/eda/altera/altera13.0sp1/nios2eds/bin/gnu/H-i686-pc-linux-gnu/bin/../lib/gcc/nios2-elf/4.1.2/../../../../nios2-elf/lib/libc.a(lib_a-dtoa.o) (_Bfree)
/package/eda/altera/altera13.0sp1/nios2eds/bin/gnu/H-i686-pc-linux-gnu/bin/../lib/gcc/nios2-elf/4.1.2/../../../../nios2-elf/lib/libc.a(lib_a-readr.o)
                              /package/eda/altera/altera13.0sp1/nios2eds/bin/gnu/H-i686-pc-linux-gnu/bin/../lib/gcc/nios2-elf/4.1.2/../../../../nios2-elf/lib/libc.a(lib_a-stdio.o) (_read_r)
/package/eda/altera/altera13.0sp1/nios2eds/bin/gnu/H-i686-pc-linux-gnu/bin/../lib/gcc/nios2-elf/4.1.2/../../../../nios2-elf/lib/libc.a(lib_a-reallocr.o)
                              /package/eda/altera/altera13.0sp1/nios2eds/bin/gnu/H-i686-pc-linux-gnu/bin/../lib/gcc/nios2-elf/4.1.2/../../../../nios2-elf/lib/libc.a(lib_a-fvwrite.o) (_realloc_r)
/package/eda/altera/altera13.0sp1/nios2eds/bin/gnu/H-i686-pc-linux-gnu/bin/../lib/gcc/nios2-elf/4.1.2/../../../../nios2-elf/lib/libc.a(lib_a-s_isinfd.o)
                              /package/eda/altera/altera13.0sp1/nios2eds/bin/gnu/H-i686-pc-linux-gnu/bin/../lib/gcc/nios2-elf/4.1.2/../../../../nios2-elf/lib/libc.a(lib_a-vfprintf.o) (__isinfd)
/package/eda/altera/altera13.0sp1/nios2eds/bin/gnu/H-i686-pc-linux-gnu/bin/../lib/gcc/nios2-elf/4.1.2/../../../../nios2-elf/lib/libc.a(lib_a-s_isnand.o)
                              /package/eda/altera/altera13.0sp1/nios2eds/bin/gnu/H-i686-pc-linux-gnu/bin/../lib/gcc/nios2-elf/4.1.2/../../../../nios2-elf/lib/libc.a(lib_a-vfprintf.o) (__isnand)
/package/eda/altera/altera13.0sp1/nios2eds/bin/gnu/H-i686-pc-linux-gnu/bin/../lib/gcc/nios2-elf/4.1.2/../../../../nios2-elf/lib/libc.a(lib_a-sccl.o)
                              /package/eda/altera/altera13.0sp1/nios2eds/bin/gnu/H-i686-pc-linux-gnu/bin/../lib/gcc/nios2-elf/4.1.2/../../../../nios2-elf/lib/libc.a(lib_a-vfscanf.o) (__sccl)
/package/eda/altera/altera13.0sp1/nios2eds/bin/gnu/H-i686-pc-linux-gnu/bin/../lib/gcc/nios2-elf/4.1.2/../../../../nios2-elf/lib/libc.a(lib_a-sf_nan.o)
                              /package/eda/altera/altera13.0sp1/nios2eds/bin/gnu/H-i686-pc-linux-gnu/bin/../lib/gcc/nios2-elf/4.1.2/../../../../nios2-elf/lib/libc.a(lib_a-vfscanf.o) (nanf)
/package/eda/altera/altera13.0sp1/nios2eds/bin/gnu/H-i686-pc-linux-gnu/bin/../lib/gcc/nios2-elf/4.1.2/../../../../nios2-elf/lib/libc.a(lib_a-strcmp.o)
                              /package/eda/altera/altera13.0sp1/nios2eds/bin/gnu/H-i686-pc-linux-gnu/bin/../lib/gcc/nios2-elf/4.1.2/../../../../nios2-elf/lib/libc.a(lib_a-locale.o) (strcmp)
/package/eda/altera/altera13.0sp1/nios2eds/bin/gnu/H-i686-pc-linux-gnu/bin/../lib/gcc/nios2-elf/4.1.2/../../../../nios2-elf/lib/libc.a(lib_a-strtod.o)
                              /package/eda/altera/altera13.0sp1/nios2eds/bin/gnu/H-i686-pc-linux-gnu/bin/../lib/gcc/nios2-elf/4.1.2/../../../../nios2-elf/lib/libc.a(lib_a-vfscanf.o) (_strtod_r)
/package/eda/altera/altera13.0sp1/nios2eds/bin/gnu/H-i686-pc-linux-gnu/bin/../lib/gcc/nios2-elf/4.1.2/../../../../nios2-elf/lib/libc.a(lib_a-strtol.o)
                              /package/eda/altera/altera13.0sp1/nios2eds/bin/gnu/H-i686-pc-linux-gnu/bin/../lib/gcc/nios2-elf/4.1.2/../../../../nios2-elf/lib/libc.a(lib_a-vfscanf.o) (_strtol_r)
/package/eda/altera/altera13.0sp1/nios2eds/bin/gnu/H-i686-pc-linux-gnu/bin/../lib/gcc/nios2-elf/4.1.2/../../../../nios2-elf/lib/libc.a(lib_a-strtoll_r.o)
                              /package/eda/altera/altera13.0sp1/nios2eds/bin/gnu/H-i686-pc-linux-gnu/bin/../lib/gcc/nios2-elf/4.1.2/../../../../nios2-elf/lib/libc.a(lib_a-vfscanf.o) (_strtoll_r)
/package/eda/altera/altera13.0sp1/nios2eds/bin/gnu/H-i686-pc-linux-gnu/bin/../lib/gcc/nios2-elf/4.1.2/../../../../nios2-elf/lib/libc.a(lib_a-strtoul.o)
                              /package/eda/altera/altera13.0sp1/nios2eds/bin/gnu/H-i686-pc-linux-gnu/bin/../lib/gcc/nios2-elf/4.1.2/../../../../nios2-elf/lib/libc.a(lib_a-vfscanf.o) (_strtoul_r)
/package/eda/altera/altera13.0sp1/nios2eds/bin/gnu/H-i686-pc-linux-gnu/bin/../lib/gcc/nios2-elf/4.1.2/../../../../nios2-elf/lib/libc.a(lib_a-strtoull_r.o)
                              /package/eda/altera/altera13.0sp1/nios2eds/bin/gnu/H-i686-pc-linux-gnu/bin/../lib/gcc/nios2-elf/4.1.2/../../../../nios2-elf/lib/libc.a(lib_a-vfscanf.o) (_strtoull_r)
/package/eda/altera/altera13.0sp1/nios2eds/bin/gnu/H-i686-pc-linux-gnu/bin/../lib/gcc/nios2-elf/4.1.2/../../../../nios2-elf/lib/libc.a(lib_a-ungetc.o)
                              /package/eda/altera/altera13.0sp1/nios2eds/bin/gnu/H-i686-pc-linux-gnu/bin/../lib/gcc/nios2-elf/4.1.2/../../../../nios2-elf/lib/libc.a(lib_a-vfscanf.o) (_ungetc_r)
/package/eda/altera/altera13.0sp1/nios2eds/bin/gnu/H-i686-pc-linux-gnu/bin/../lib/gcc/nios2-elf/4.1.2/../../../../nios2-elf/lib/libc.a(lib_a-callocr.o)
                              /package/eda/altera/altera13.0sp1/nios2eds/bin/gnu/H-i686-pc-linux-gnu/bin/../lib/gcc/nios2-elf/4.1.2/../../../../nios2-elf/lib/libc.a(lib_a-mprec.o) (_calloc_r)
/package/eda/altera/altera13.0sp1/nios2eds/bin/gnu/H-i686-pc-linux-gnu/bin/../lib/gcc/nios2-elf/4.1.2/../../../../nios2-elf/lib/libc.a(lib_a-gdtoa-gethex.o)
                              /package/eda/altera/altera13.0sp1/nios2eds/bin/gnu/H-i686-pc-linux-gnu/bin/../lib/gcc/nios2-elf/4.1.2/../../../../nios2-elf/lib/libc.a(lib_a-strtod.o) (__gethex)
/package/eda/altera/altera13.0sp1/nios2eds/bin/gnu/H-i686-pc-linux-gnu/bin/../lib/gcc/nios2-elf/4.1.2/../../../../nios2-elf/lib/libc.a(lib_a-gdtoa-hexnan.o)
                              /package/eda/altera/altera13.0sp1/nios2eds/bin/gnu/H-i686-pc-linux-gnu/bin/../lib/gcc/nios2-elf/4.1.2/../../../../nios2-elf/lib/libc.a(lib_a-strtod.o) (__hexnan)
/package/eda/altera/altera13.0sp1/nios2eds/bin/gnu/H-i686-pc-linux-gnu/bin/../lib/gcc/nios2-elf/4.1.2/libgcc.a(_fixunsdfsi.o)
                              /package/eda/altera/altera13.0sp1/nios2eds/bin/gnu/H-i686-pc-linux-gnu/bin/../lib/gcc/nios2-elf/4.1.2/../../../../nios2-elf/lib/libc.a(lib_a-strtod.o) (__fixunsdfsi)
/package/eda/altera/altera13.0sp1/nios2eds/bin/gnu/H-i686-pc-linux-gnu/bin/../lib/gcc/nios2-elf/4.1.2/libgcc.a(_udivdi3.o)
                              /package/eda/altera/altera13.0sp1/nios2eds/bin/gnu/H-i686-pc-linux-gnu/bin/../lib/gcc/nios2-elf/4.1.2/../../../../nios2-elf/lib/libc.a(lib_a-vfprintf.o) (__udivdi3)
/package/eda/altera/altera13.0sp1/nios2eds/bin/gnu/H-i686-pc-linux-gnu/bin/../lib/gcc/nios2-elf/4.1.2/libgcc.a(_umoddi3.o)
                              /package/eda/altera/altera13.0sp1/nios2eds/bin/gnu/H-i686-pc-linux-gnu/bin/../lib/gcc/nios2-elf/4.1.2/../../../../nios2-elf/lib/libc.a(lib_a-vfprintf.o) (__umoddi3)
/package/eda/altera/altera13.0sp1/nios2eds/bin/gnu/H-i686-pc-linux-gnu/bin/../lib/gcc/nios2-elf/4.1.2/libgcc.a(_ne_sf.o)
                              /package/eda/altera/altera13.0sp1/nios2eds/bin/gnu/H-i686-pc-linux-gnu/bin/../lib/gcc/nios2-elf/4.1.2/../../../../nios2-elf/lib/libc.a(lib_a-strtod.o) (__nesf2)
/package/eda/altera/altera13.0sp1/nios2eds/bin/gnu/H-i686-pc-linux-gnu/bin/../lib/gcc/nios2-elf/4.1.2/libgcc.a(_gt_sf.o)
                              /package/eda/altera/altera13.0sp1/nios2eds/bin/gnu/H-i686-pc-linux-gnu/bin/../lib/gcc/nios2-elf/4.1.2/../../../../nios2-elf/lib/libc.a(lib_a-strtod.o) (__gtsf2)
/package/eda/altera/altera13.0sp1/nios2eds/bin/gnu/H-i686-pc-linux-gnu/bin/../lib/gcc/nios2-elf/4.1.2/libgcc.a(_lt_sf.o)
                              /package/eda/altera/altera13.0sp1/nios2eds/bin/gnu/H-i686-pc-linux-gnu/bin/../lib/gcc/nios2-elf/4.1.2/../../../../nios2-elf/lib/libc.a(lib_a-strtod.o) (__ltsf2)
/package/eda/altera/altera13.0sp1/nios2eds/bin/gnu/H-i686-pc-linux-gnu/bin/../lib/gcc/nios2-elf/4.1.2/libgcc.a(_addsub_df.o)
                              /package/eda/altera/altera13.0sp1/nios2eds/bin/gnu/H-i686-pc-linux-gnu/bin/../lib/gcc/nios2-elf/4.1.2/../../../../nios2-elf/lib/libc.a(lib_a-dtoa.o) (__subdf3)
/package/eda/altera/altera13.0sp1/nios2eds/bin/gnu/H-i686-pc-linux-gnu/bin/../lib/gcc/nios2-elf/4.1.2/libgcc.a(_eq_df.o)
                              /package/eda/altera/altera13.0sp1/nios2eds/bin/gnu/H-i686-pc-linux-gnu/bin/../lib/gcc/nios2-elf/4.1.2/../../../../nios2-elf/lib/libc.a(lib_a-vfprintf.o) (__eqdf2)
/package/eda/altera/altera13.0sp1/nios2eds/bin/gnu/H-i686-pc-linux-gnu/bin/../lib/gcc/nios2-elf/4.1.2/libgcc.a(_ne_df.o)
                              /package/eda/altera/altera13.0sp1/nios2eds/bin/gnu/H-i686-pc-linux-gnu/bin/../lib/gcc/nios2-elf/4.1.2/../../../../nios2-elf/lib/libc.a(lib_a-vfprintf.o) (__nedf2)
/package/eda/altera/altera13.0sp1/nios2eds/bin/gnu/H-i686-pc-linux-gnu/bin/../lib/gcc/nios2-elf/4.1.2/libgcc.a(_gt_df.o)
                              /package/eda/altera/altera13.0sp1/nios2eds/bin/gnu/H-i686-pc-linux-gnu/bin/../lib/gcc/nios2-elf/4.1.2/../../../../nios2-elf/lib/libc.a(lib_a-dtoa.o) (__gtdf2)
/package/eda/altera/altera13.0sp1/nios2eds/bin/gnu/H-i686-pc-linux-gnu/bin/../lib/gcc/nios2-elf/4.1.2/libgcc.a(_ge_df.o)
                              /package/eda/altera/altera13.0sp1/nios2eds/bin/gnu/H-i686-pc-linux-gnu/bin/../lib/gcc/nios2-elf/4.1.2/../../../../nios2-elf/lib/libc.a(lib_a-dtoa.o) (__gedf2)
/package/eda/altera/altera13.0sp1/nios2eds/bin/gnu/H-i686-pc-linux-gnu/bin/../lib/gcc/nios2-elf/4.1.2/libgcc.a(_lt_df.o)
                              /package/eda/altera/altera13.0sp1/nios2eds/bin/gnu/H-i686-pc-linux-gnu/bin/../lib/gcc/nios2-elf/4.1.2/../../../../nios2-elf/lib/libc.a(lib_a-vfprintf.o) (__ltdf2)
/package/eda/altera/altera13.0sp1/nios2eds/bin/gnu/H-i686-pc-linux-gnu/bin/../lib/gcc/nios2-elf/4.1.2/libgcc.a(_le_df.o)
                              /package/eda/altera/altera13.0sp1/nios2eds/bin/gnu/H-i686-pc-linux-gnu/bin/../lib/gcc/nios2-elf/4.1.2/../../../../nios2-elf/lib/libc.a(lib_a-strtod.o) (__ledf2)
/package/eda/altera/altera13.0sp1/nios2eds/bin/gnu/H-i686-pc-linux-gnu/bin/../lib/gcc/nios2-elf/4.1.2/libgcc.a(_si_to_df.o)
                              /package/eda/altera/altera13.0sp1/nios2eds/bin/gnu/H-i686-pc-linux-gnu/bin/../lib/gcc/nios2-elf/4.1.2/../../../../nios2-elf/lib/libc.a(lib_a-dtoa.o) (__floatsidf)
/package/eda/altera/altera13.0sp1/nios2eds/bin/gnu/H-i686-pc-linux-gnu/bin/../lib/gcc/nios2-elf/4.1.2/libgcc.a(_df_to_si.o)
                              /package/eda/altera/altera13.0sp1/nios2eds/bin/gnu/H-i686-pc-linux-gnu/bin/../lib/gcc/nios2-elf/4.1.2/../../../../nios2-elf/lib/libc.a(lib_a-dtoa.o) (__fixdfsi)
/package/eda/altera/altera13.0sp1/nios2eds/bin/gnu/H-i686-pc-linux-gnu/bin/../lib/gcc/nios2-elf/4.1.2/libgcc.a(_fpcmp_parts_sf.o)
                              /package/eda/altera/altera13.0sp1/nios2eds/bin/gnu/H-i686-pc-linux-gnu/bin/../lib/gcc/nios2-elf/4.1.2/libgcc.a(_ne_sf.o) (__fpcmp_parts_f)
/package/eda/altera/altera13.0sp1/nios2eds/bin/gnu/H-i686-pc-linux-gnu/bin/../lib/gcc/nios2-elf/4.1.2/libgcc.a(_fpcmp_parts_df.o)
                              /package/eda/altera/altera13.0sp1/nios2eds/bin/gnu/H-i686-pc-linux-gnu/bin/../lib/gcc/nios2-elf/4.1.2/libgcc.a(_eq_df.o) (__fpcmp_parts_d)
../demo_board_NiosIIf_bsp//libhal_bsp.a(alt_close.o)
                              /package/eda/altera/altera13.0sp1/nios2eds/bin/gnu/H-i686-pc-linux-gnu/bin/../lib/gcc/nios2-elf/4.1.2/../../../../nios2-elf/lib/libc.a(lib_a-closer.o) (close)
../demo_board_NiosIIf_bsp//libhal_bsp.a(alt_dcache_flush.o)
                              obj/default/wrppm.o (alt_dcache_flush)
../demo_board_NiosIIf_bsp//libhal_bsp.a(alt_dev.o)
                              ../demo_board_NiosIIf_bsp//libhal_bsp.a(alt_close.o) (alt_fd_list)
../demo_board_NiosIIf_bsp//libhal_bsp.a(alt_env_lock.o)
                              /package/eda/altera/altera13.0sp1/nios2eds/bin/gnu/H-i686-pc-linux-gnu/bin/../lib/gcc/nios2-elf/4.1.2/../../../../nios2-elf/lib/libc.a(lib_a-getenv_r.o) (__env_lock)
../demo_board_NiosIIf_bsp//libhal_bsp.a(alt_errno.o)
                              ../demo_board_NiosIIf_bsp//libhal_bsp.a(alt_close.o) (alt_errno)
../demo_board_NiosIIf_bsp//libhal_bsp.a(alt_exit.o)
                              /package/eda/altera/altera13.0sp1/nios2eds/bin/gnu/H-i686-pc-linux-gnu/bin/../lib/gcc/nios2-elf/4.1.2/../../../../nios2-elf/lib/libc.a(lib_a-exit.o) (_exit)
../demo_board_NiosIIf_bsp//libhal_bsp.a(alt_fstat.o)
                              /package/eda/altera/altera13.0sp1/nios2eds/bin/gnu/H-i686-pc-linux-gnu/bin/../lib/gcc/nios2-elf/4.1.2/../../../../nios2-elf/lib/libc.a(lib_a-fstatr.o) (fstat)
../demo_board_NiosIIf_bsp//libhal_bsp.a(alt_isatty.o)
                              /package/eda/altera/altera13.0sp1/nios2eds/bin/gnu/H-i686-pc-linux-gnu/bin/../lib/gcc/nios2-elf/4.1.2/../../../../nios2-elf/lib/libc.a(lib_a-isattyr.o) (isatty)
../demo_board_NiosIIf_bsp//libhal_bsp.a(alt_load.o)
                              ../demo_board_NiosIIf_bsp//obj/HAL/src/crt0.o (alt_load)
../demo_board_NiosIIf_bsp//libhal_bsp.a(alt_lseek.o)
                              /package/eda/altera/altera13.0sp1/nios2eds/bin/gnu/H-i686-pc-linux-gnu/bin/../lib/gcc/nios2-elf/4.1.2/../../../../nios2-elf/lib/libc.a(lib_a-lseekr.o) (lseek)
../demo_board_NiosIIf_bsp//libhal_bsp.a(alt_main.o)
                              ../demo_board_NiosIIf_bsp//obj/HAL/src/crt0.o (alt_main)
../demo_board_NiosIIf_bsp//libhal_bsp.a(alt_malloc_lock.o)
                              /package/eda/altera/altera13.0sp1/nios2eds/bin/gnu/H-i686-pc-linux-gnu/bin/../lib/gcc/nios2-elf/4.1.2/../../../../nios2-elf/lib/libc.a(lib_a-freer.o) (__malloc_lock)
../demo_board_NiosIIf_bsp//libhal_bsp.a(alt_open.o)
                              /package/eda/altera/altera13.0sp1/nios2eds/bin/gnu/H-i686-pc-linux-gnu/bin/../lib/gcc/nios2-elf/4.1.2/../../../../nios2-elf/lib/libc.a(lib_a-openr.o) (open)
../demo_board_NiosIIf_bsp//libhal_bsp.a(alt_read.o)
                              /package/eda/altera/altera13.0sp1/nios2eds/bin/gnu/H-i686-pc-linux-gnu/bin/../lib/gcc/nios2-elf/4.1.2/../../../../nios2-elf/lib/libc.a(lib_a-readr.o) (read)
../demo_board_NiosIIf_bsp//libhal_bsp.a(alt_release_fd.o)
                              ../demo_board_NiosIIf_bsp//libhal_bsp.a(alt_close.o) (alt_release_fd)
../demo_board_NiosIIf_bsp//libhal_bsp.a(alt_sbrk.o)
                              /package/eda/altera/altera13.0sp1/nios2eds/bin/gnu/H-i686-pc-linux-gnu/bin/../lib/gcc/nios2-elf/4.1.2/../../../../nios2-elf/lib/libc.a(lib_a-sbrkr.o) (sbrk)
../demo_board_NiosIIf_bsp//libhal_bsp.a(alt_write.o)
                              /package/eda/altera/altera13.0sp1/nios2eds/bin/gnu/H-i686-pc-linux-gnu/bin/../lib/gcc/nios2-elf/4.1.2/../../../../nios2-elf/lib/libc.a(lib_a-writer.o) (write)
../demo_board_NiosIIf_bsp//libhal_bsp.a(alt_sys_init.o)
                              ../demo_board_NiosIIf_bsp//libhal_bsp.a(alt_main.o) (alt_irq_init)
../demo_board_NiosIIf_bsp//libhal_bsp.a(altera_avalon_cfi_flash.o)
                              ../demo_board_NiosIIf_bsp//libhal_bsp.a(alt_sys_init.o) (alt_flash_cfi_get_info)
../demo_board_NiosIIf_bsp//libhal_bsp.a(altera_avalon_cfi_flash_table.o)
                              ../demo_board_NiosIIf_bsp//libhal_bsp.a(altera_avalon_cfi_flash.o) (alt_set_flash_width_func)
../demo_board_NiosIIf_bsp//libhal_bsp.a(altera_avalon_jtag_uart_fd.o)
                              ../demo_board_NiosIIf_bsp//libhal_bsp.a(alt_sys_init.o) (altera_avalon_jtag_uart_ioctl_fd)
../demo_board_NiosIIf_bsp//libhal_bsp.a(altera_avalon_jtag_uart_init.o)
                              ../demo_board_NiosIIf_bsp//libhal_bsp.a(altera_avalon_jtag_uart_fd.o) (altera_avalon_jtag_uart_close)
../demo_board_NiosIIf_bsp//libhal_bsp.a(altera_avalon_jtag_uart_ioctl.o)
                              ../demo_board_NiosIIf_bsp//libhal_bsp.a(altera_avalon_jtag_uart_fd.o) (altera_avalon_jtag_uart_ioctl)
../demo_board_NiosIIf_bsp//libhal_bsp.a(altera_avalon_jtag_uart_read.o)
                              ../demo_board_NiosIIf_bsp//libhal_bsp.a(altera_avalon_jtag_uart_fd.o) (altera_avalon_jtag_uart_read)
../demo_board_NiosIIf_bsp//libhal_bsp.a(altera_avalon_jtag_uart_write.o)
                              ../demo_board_NiosIIf_bsp//libhal_bsp.a(altera_avalon_jtag_uart_fd.o) (altera_avalon_jtag_uart_write)
../demo_board_NiosIIf_bsp//libhal_bsp.a(altera_avalon_performance_counter.o)
                              obj/default/djpeg.o (alt_get_performance_counter_base)
../demo_board_NiosIIf_bsp//libhal_bsp.a(altera_avalon_timer_sc.o)
                              ../demo_board_NiosIIf_bsp//libhal_bsp.a(alt_sys_init.o) (alt_avalon_timer_sc_init)
../demo_board_NiosIIf_bsp//libhal_bsp.a(altera_ro_zipfs.o)
                              ../demo_board_NiosIIf_bsp//libhal_bsp.a(alt_sys_init.o) (alt_ro_zipfs_fstat)
../demo_board_NiosIIf_bsp//libhal_bsp.a(altera_up_avalon_video_pixel_buffer_dma.o)
                              obj/default/djpeg.o (alt_up_pixel_buffer_dma_clear_screen)
../demo_board_NiosIIf_bsp//libhal_bsp.a(perf_print_formatted_report.o)
                              obj/default/djpeg.o (perf_print_formatted_report)
../demo_board_NiosIIf_bsp//libhal_bsp.a(alt_alarm_start.o)
                              ../demo_board_NiosIIf_bsp//libhal_bsp.a(altera_avalon_jtag_uart_init.o) (alt_alarm_start)
../demo_board_NiosIIf_bsp//libhal_bsp.a(alt_dcache_flush_all.o)
                              ../demo_board_NiosIIf_bsp//libhal_bsp.a(alt_load.o) (alt_dcache_flush_all)
../demo_board_NiosIIf_bsp//libhal_bsp.a(alt_dev_llist_insert.o)
                              ../demo_board_NiosIIf_bsp//libhal_bsp.a(alt_sys_init.o) (alt_dev_llist_insert)
../demo_board_NiosIIf_bsp//libhal_bsp.a(alt_do_ctors.o)
                              ../demo_board_NiosIIf_bsp//libhal_bsp.a(alt_main.o) (_do_ctors)
../demo_board_NiosIIf_bsp//libhal_bsp.a(alt_do_dtors.o)
                              ../demo_board_NiosIIf_bsp//libhal_bsp.a(alt_main.o) (_do_dtors)
../demo_board_NiosIIf_bsp//libhal_bsp.a(alt_find_dev.o)
                              ../demo_board_NiosIIf_bsp//libhal_bsp.a(alt_open.o) (alt_find_dev)
../demo_board_NiosIIf_bsp//libhal_bsp.a(alt_find_file.o)
                              ../demo_board_NiosIIf_bsp//libhal_bsp.a(alt_open.o) (alt_find_file)
../demo_board_NiosIIf_bsp//libhal_bsp.a(alt_flash_dev.o)
                              ../demo_board_NiosIIf_bsp//libhal_bsp.a(altera_avalon_cfi_flash.o) (alt_flash_dev_list)
../demo_board_NiosIIf_bsp//libhal_bsp.a(alt_fs_reg.o)
                              ../demo_board_NiosIIf_bsp//libhal_bsp.a(alt_sys_init.o) (alt_fs_reg)
../demo_board_NiosIIf_bsp//libhal_bsp.a(alt_get_fd.o)
                              ../demo_board_NiosIIf_bsp//libhal_bsp.a(alt_open.o) (alt_get_fd)
../demo_board_NiosIIf_bsp//libhal_bsp.a(alt_icache_flush_all.o)
                              ../demo_board_NiosIIf_bsp//libhal_bsp.a(alt_load.o) (alt_icache_flush_all)
../demo_board_NiosIIf_bsp//libhal_bsp.a(alt_iic.o)
                              ../demo_board_NiosIIf_bsp//libhal_bsp.a(altera_avalon_jtag_uart_init.o) (alt_ic_isr_register)
../demo_board_NiosIIf_bsp//libhal_bsp.a(alt_iic_isr_register.o)
                              ../demo_board_NiosIIf_bsp//libhal_bsp.a(alt_iic.o) (alt_iic_isr_register)
../demo_board_NiosIIf_bsp//libhal_bsp.a(alt_io_redirect.o)
                              ../demo_board_NiosIIf_bsp//libhal_bsp.a(alt_main.o) (alt_io_redirect)
../demo_board_NiosIIf_bsp//libhal_bsp.a(alt_irq_entry.o)
                              ../demo_board_NiosIIf_bsp//libhal_bsp.a(alt_iic_isr_register.o) (alt_irq_entry)
../demo_board_NiosIIf_bsp//libhal_bsp.a(alt_irq_handler.o)
                              ../demo_board_NiosIIf_bsp//libhal_bsp.a(alt_iic_isr_register.o) (alt_irq_handler)
../demo_board_NiosIIf_bsp//libhal_bsp.a(alt_irq_vars.o)
                              ../demo_board_NiosIIf_bsp//libhal_bsp.a(alt_iic.o) (alt_irq_active)
../demo_board_NiosIIf_bsp//libhal_bsp.a(alt_tick.o)
                              ../demo_board_NiosIIf_bsp//libhal_bsp.a(altera_avalon_timer_sc.o) (alt_tick)
../demo_board_NiosIIf_bsp//libhal_bsp.a(altera_nios2_qsys_irq.o)
                              ../demo_board_NiosIIf_bsp//libhal_bsp.a(alt_sys_init.o) (altera_nios2_qsys_irq_init)
../demo_board_NiosIIf_bsp//libhal_bsp.a(altera_avalon_cfi_flash_amd.o)
                              ../demo_board_NiosIIf_bsp//libhal_bsp.a(altera_avalon_cfi_flash_table.o) (alt_erase_block_amd)
../demo_board_NiosIIf_bsp//libhal_bsp.a(altera_avalon_cfi_flash_intel.o)
                              ../demo_board_NiosIIf_bsp//libhal_bsp.a(altera_avalon_cfi_flash_table.o) (alt_erase_block_intel)
../demo_board_NiosIIf_bsp//libhal_bsp.a(alt_exception_entry.o)
                              ../demo_board_NiosIIf_bsp//libhal_bsp.a(alt_irq_entry.o) (alt_exception)
../demo_board_NiosIIf_bsp//libhal_bsp.a(alt_icache_flush.o)
                              ../demo_board_NiosIIf_bsp//libhal_bsp.a(alt_icache_flush_all.o) (alt_icache_flush)
../demo_board_NiosIIf_bsp//libhal_bsp.a(alt_usleep.o)
                              ../demo_board_NiosIIf_bsp//libhal_bsp.a(altera_avalon_cfi_flash_amd.o) (usleep)
../demo_board_NiosIIf_bsp//libhal_bsp.a(alt_busy_sleep.o)
                              ../demo_board_NiosIIf_bsp//libhal_bsp.a(alt_usleep.o) (alt_busy_sleep)
/package/eda/altera/altera13.0sp1/nios2eds/bin/gnu/H-i686-pc-linux-gnu/bin/../lib/gcc/nios2-elf/4.1.2/../../../../nios2-elf/lib/libc.a(lib_a-atexit.o)
                              ../demo_board_NiosIIf_bsp//libhal_bsp.a(alt_main.o) (atexit)
/package/eda/altera/altera13.0sp1/nios2eds/bin/gnu/H-i686-pc-linux-gnu/bin/../lib/gcc/nios2-elf/4.1.2/../../../../nios2-elf/lib/libc.a(lib_a-memcmp.o)
                              ../demo_board_NiosIIf_bsp//libhal_bsp.a(altera_avalon_cfi_flash.o) (memcmp)
/package/eda/altera/altera13.0sp1/nios2eds/bin/gnu/H-i686-pc-linux-gnu/bin/../lib/gcc/nios2-elf/4.1.2/../../../../nios2-elf/lib/libc.a(lib_a-__atexit.o)
                              /package/eda/altera/altera13.0sp1/nios2eds/bin/gnu/H-i686-pc-linux-gnu/bin/../lib/gcc/nios2-elf/4.1.2/../../../../nios2-elf/lib/libc.a(lib_a-atexit.o) (__register_exitproc)
/package/eda/altera/altera13.0sp1/nios2eds/bin/gnu/H-i686-pc-linux-gnu/bin/../lib/gcc/nios2-elf/4.1.2/libgcc.a(_floatundidf.o)
                              ../demo_board_NiosIIf_bsp//libhal_bsp.a(perf_print_formatted_report.o) (__floatundidf)

Allocating common symbols
Common symbol       size              file

alt_irq             0x100             ../demo_board_NiosIIf_bsp//libhal_bsp.a(alt_irq_handler.o)
errno               0x4               /package/eda/altera/altera13.0sp1/nios2eds/bin/gnu/H-i686-pc-linux-gnu/bin/../lib/gcc/nios2-elf/4.1.2/../../../../nios2-elf/lib/libc.a(lib_a-int_errno.o)
__hexdig            0x100             /package/eda/altera/altera13.0sp1/nios2eds/bin/gnu/H-i686-pc-linux-gnu/bin/../lib/gcc/nios2-elf/4.1.2/../../../../nios2-elf/lib/libc.a(lib_a-gdtoa-gethex.o)
_atexit0            0x190             /package/eda/altera/altera13.0sp1/nios2eds/bin/gnu/H-i686-pc-linux-gnu/bin/../lib/gcc/nios2-elf/4.1.2/../../../../nios2-elf/lib/libc.a(lib_a-atexit.o)

Memory Configuration

Name             Origin             Length             Attributes
reset            0x08000000         0x00000020
new_sdram_controller_0 0x08000020         0x07ffffe0
generic_tristate_controller_0 0x10000000         0x00800000
*default*        0x00000000         0xffffffff

Linker script and memory map

LOAD ../demo_board_NiosIIf_bsp//obj/HAL/src/crt0.o
LOAD obj/default/cdjpeg.o
LOAD obj/default/djpeg.o
LOAD obj/default/jcapimin.o
LOAD obj/default/jcapistd.o
LOAD obj/default/jccoefct.o
LOAD obj/default/jccolor.o
LOAD obj/default/jcdctmgr.o
LOAD obj/default/jchuff.o
LOAD obj/default/jcinit.o
LOAD obj/default/jcmainct.o
LOAD obj/default/jcmarker.o
LOAD obj/default/jcmaster.o
LOAD obj/default/jcomapi.o
LOAD obj/default/jcparam.o
LOAD obj/default/jcphuff.o
LOAD obj/default/jcprepct.o
LOAD obj/default/jcsample.o
LOAD obj/default/jctrans.o
LOAD obj/default/jdapimin.o
LOAD obj/default/jdapistd.o
LOAD obj/default/jdatadst.o
LOAD obj/default/jdatasrc.o
LOAD obj/default/jdcoefct.o
LOAD obj/default/jdcolor.o
LOAD obj/default/jddctmgr.o
LOAD obj/default/jdhuff.o
LOAD obj/default/jdinput.o
LOAD obj/default/jdmainct.o
LOAD obj/default/jdmarker.o
LOAD obj/default/jdmaster.o
LOAD obj/default/jdmerge.o
LOAD obj/default/jdphuff.o
LOAD obj/default/jdpostct.o
LOAD obj/default/jdsample.o
LOAD obj/default/jdtrans.o
LOAD obj/default/jerror.o
LOAD obj/default/jfdctflt.o
LOAD obj/default/jfdctfst.o
LOAD obj/default/jfdctint.o
LOAD obj/default/jidctflt.o
LOAD obj/default/jidctfst.o
LOAD obj/default/jidctint.o
LOAD obj/default/jidctred.o
LOAD obj/default/jmemmgr.o
LOAD obj/default/jmemnobs.o
LOAD obj/default/jquant1.o
LOAD obj/default/jquant2.o
LOAD obj/default/jutils.o
LOAD obj/default/rdcolmap.o
LOAD obj/default/wrbmp.o
LOAD obj/default/wrgif.o
LOAD obj/default/wrppm.o
LOAD obj/default/wrrle.o
LOAD obj/default/wrtarga.o
LOAD /package/eda/altera/altera13.0sp1/nios2eds/bin/gnu/H-i686-pc-linux-gnu/bin/../lib/gcc/nios2-elf/4.1.2/../../../../nios2-elf/lib/libstdc++.a
LOAD /package/eda/altera/altera13.0sp1/nios2eds/bin/gnu/H-i686-pc-linux-gnu/bin/../lib/gcc/nios2-elf/4.1.2/../../../../nios2-elf/lib/libm.a
LOAD /package/eda/altera/altera13.0sp1/nios2eds/bin/gnu/H-i686-pc-linux-gnu/bin/../lib/gcc/nios2-elf/4.1.2/libgcc.a
START GROUP
LOAD /package/eda/altera/altera13.0sp1/nios2eds/bin/gnu/H-i686-pc-linux-gnu/bin/../lib/gcc/nios2-elf/4.1.2/../../../../nios2-elf/lib/libc.a
LOAD /package/eda/altera/altera13.0sp1/nios2eds/bin/gnu/H-i686-pc-linux-gnu/bin/../lib/gcc/nios2-elf/4.1.2/libgcc.a
LOAD ../demo_board_NiosIIf_bsp//libhal_bsp.a
END GROUP
LOAD /package/eda/altera/altera13.0sp1/nios2eds/bin/gnu/H-i686-pc-linux-gnu/bin/../lib/gcc/nios2-elf/4.1.2/libgcc.a
                0x08000000                __alt_mem_new_sdram_controller_0 = 0x8000000
                0x10000000                __alt_mem_generic_tristate_controller_0 = 0x10000000

.entry          0x08000000       0x20
 *(.entry)
 .entry         0x08000000       0x20 ../demo_board_NiosIIf_bsp//obj/HAL/src/crt0.o
                0x08000000                __reset

.exceptions     0x08000020      0x164
                0x08000020                PROVIDE (__ram_exceptions_start, ABSOLUTE (.))
                0x08000020                . = ALIGN (0x20)
 *(.irq)
 *(.exceptions.entry.label)
 .exceptions.entry.label
                0x08000020        0x0 ../demo_board_NiosIIf_bsp//libhal_bsp.a(alt_irq_entry.o)
                0x08000020                alt_irq_entry
 .exceptions.entry.label
                0x08000020        0x0 ../demo_board_NiosIIf_bsp//libhal_bsp.a(alt_exception_entry.o)
                0x08000020                alt_exception
 *(.exceptions.entry.user)
 *(.exceptions.entry)
 .exceptions.entry
                0x08000020       0x54 ../demo_board_NiosIIf_bsp//libhal_bsp.a(alt_exception_entry.o)
 *(.exceptions.irqtest.user)
 *(.exceptions.irqtest)
 .exceptions.irqtest
                0x08000074       0x10 ../demo_board_NiosIIf_bsp//libhal_bsp.a(alt_irq_entry.o)
 *(.exceptions.irqhandler.user)
 *(.exceptions.irqhandler)
 .exceptions.irqhandler
                0x08000084        0x4 ../demo_board_NiosIIf_bsp//libhal_bsp.a(alt_irq_entry.o)
 *(.exceptions.irqreturn.user)
 *(.exceptions.irqreturn)
 .exceptions.irqreturn
                0x08000088        0x4 ../demo_board_NiosIIf_bsp//libhal_bsp.a(alt_irq_entry.o)
 *(.exceptions.notirq.label)
 .exceptions.notirq.label
                0x0800008c        0x0 ../demo_board_NiosIIf_bsp//libhal_bsp.a(alt_irq_entry.o)
 *(.exceptions.notirq.user)
 *(.exceptions.notirq)
 .exceptions.notirq
                0x0800008c        0x8 ../demo_board_NiosIIf_bsp//libhal_bsp.a(alt_exception_entry.o)
 *(.exceptions.soft.user)
 *(.exceptions.soft)
 *(.exceptions.unknown.user)
 *(.exceptions.unknown)
 .exceptions.unknown
                0x08000094        0x4 ../demo_board_NiosIIf_bsp//libhal_bsp.a(alt_exception_entry.o)
 *(.exceptions.exit.label)
 .exceptions.exit.label
                0x08000098        0x0 ../demo_board_NiosIIf_bsp//libhal_bsp.a(alt_irq_entry.o)
 .exceptions.exit.label
                0x08000098        0x0 ../demo_board_NiosIIf_bsp//libhal_bsp.a(alt_exception_entry.o)
 *(.exceptions.exit.user)
 *(.exceptions.exit)
 .exceptions.exit
                0x08000098       0x54 ../demo_board_NiosIIf_bsp//libhal_bsp.a(alt_exception_entry.o)
 *(.exceptions)
 .exceptions    0x080000ec       0x98 ../demo_board_NiosIIf_bsp//libhal_bsp.a(alt_irq_handler.o)
                0x080000ec                alt_irq_handler
                0x08000184                PROVIDE (__ram_exceptions_end, ABSOLUTE (.))
                0x08000020                PROVIDE (__flash_exceptions_start, LOADADDR (.exceptions))

.text           0x08000184    0x3e420
                0x08000184                PROVIDE (stext, ABSOLUTE (.))
 *(.interp)
 *(.hash)
 *(.dynsym)
 *(.dynstr)
 *(.gnu.version)
 *(.gnu.version_d)
 *(.gnu.version_r)
 *(.rel.init)
 *(.rela.init)
 *(.rel.text .rel.text.* .rel.gnu.linkonce.t.*)
 *(.rela.text .rela.text.* .rela.gnu.linkonce.t.*)
 *(.rel.fini)
 *(.rela.fini)
 *(.rel.rodata .rel.rodata.* .rel.gnu.linkonce.r.*)
 *(.rela.rodata .rela.rodata.* .rela.gnu.linkonce.r.*)
 *(.rel.data .rel.data.* .rel.gnu.linkonce.d.*)
 *(.rela.data .rela.data.* .rela.gnu.linkonce.d.*)
 *(.rel.tdata .rel.tdata.* .rel.gnu.linkonce.td.*)
 *(.rela.tdata .rela.tdata.* .rela.gnu.linkonce.td.*)
 *(.rel.tbss .rel.tbss.* .rel.gnu.linkonce.tb.*)
 *(.rela.tbss .rela.tbss.* .rela.gnu.linkonce.tb.*)
 *(.rel.ctors)
 *(.rela.ctors)
 *(.rel.dtors)
 *(.rela.dtors)
 *(.rel.got)
 *(.rela.got)
 *(.rel.sdata .rel.sdata.* .rel.gnu.linkonce.s.*)
 *(.rela.sdata .rela.sdata.* .rela.gnu.linkonce.s.*)
 *(.rel.sbss .rel.sbss.* .rel.gnu.linkonce.sb.*)
 *(.rela.sbss .rela.sbss.* .rela.gnu.linkonce.sb.*)
 *(.rel.sdata2 .rel.sdata2.* .rel.gnu.linkonce.s2.*)
 *(.rela.sdata2 .rela.sdata2.* .rela.gnu.linkonce.s2.*)
 *(.rel.sbss2 .rel.sbss2.* .rel.gnu.linkonce.sb2.*)
 *(.rela.sbss2 .rela.sbss2.* .rela.gnu.linkonce.sb2.*)
 *(.rel.bss .rel.bss.* .rel.gnu.linkonce.b.*)
 *(.rela.bss .rela.bss.* .rela.gnu.linkonce.b.*)
 *(.rel.plt)
 *(.rela.plt)
 *(.rel.dyn)
 *(.init)
 *(.plt)
 *(.text .stub .text.* .gnu.linkonce.t.*)
 .text          0x08000184       0x4c ../demo_board_NiosIIf_bsp//obj/HAL/src/crt0.o
                0x08000184                _start
 .text          0x080001d0       0xa4 obj/default/cdjpeg.o
                0x080001d0                keymatch
                0x0800024c                read_stdin
                0x08000260                write_stdout
 .text          0x08000274     0x1088 obj/default/djpeg.o
                0x08000bac                capture_cmd_args
                0x08000c64                main
 .text          0x080012fc      0x43c obj/default/jcapimin.o
                0x080012fc                jpeg_suppress_tables
                0x08001390                jpeg_write_marker
                0x08001424                jpeg_write_tables
                0x080014bc                jpeg_finish_compress
                0x08001624                jpeg_abort_compress
                0x08001628                jpeg_destroy_compress
                0x0800162c                jpeg_CreateCompress
 .text          0x08001738      0x350 obj/default/jcapistd.o
                0x08001738                jpeg_write_scanlines
                0x08001844                jpeg_write_raw_data
                0x080019cc                jpeg_start_compress
 .text          0x08001a88      0xc80 obj/default/jccoefct.o
                0x08001ca8                jinit_c_coef_controller
 .text          0x08002708      0x840 obj/default/jccolor.o
                0x08002c48                jinit_color_converter
 .text          0x08002f48     0x1178 obj/default/jcdctmgr.o
                0x08003fc4                jinit_forward_dct
 .text          0x080040c0     0x1944 obj/default/jchuff.o
                0x080042c0                jinit_huff_encoder
                0x08004344                jpeg_make_c_derived_tbl
                0x080044c4                jpeg_gen_optimal_table
 .text          0x08005a04       0xf0 obj/default/jcinit.o
                0x08005a04                jinit_compress_master
 .text          0x08005af4      0x264 obj/default/jcmainct.o
                0x08005c68                jinit_c_main_controller
 .text          0x08005d58     0x2640 obj/default/jcmarker.o
                0x08005d58                jinit_marker_writer
 .text          0x08008398     0x1068 obj/default/jcmaster.o
                0x080086d0                jinit_c_master_control
 .text          0x08009400       0xe8 obj/default/jcomapi.o
                0x08009400                jpeg_abort
                0x08009458                jpeg_destroy
                0x08009490                jpeg_alloc_quant_table
                0x080094bc                jpeg_alloc_huff_table
 .text          0x080094e8     0x16a4 obj/default/jcparam.o
                0x080094e8                jpeg_quality_scaling
                0x08009568                jpeg_set_colorspace
                0x080098e8                jpeg_default_colorspace
                0x0800997c                jpeg_add_quant_table
                0x08009b48                jpeg_simple_progression
                0x08009fb8                jpeg_set_linear_quality
                0x0800a31c                jpeg_set_quality
                0x0800a6ec                jpeg_set_defaults
 .text          0x0800ab8c     0x445c obj/default/jcphuff.o
                0x0800ab8c                jinit_phuff_encoder
 .text          0x0800efe8      0x878 obj/default/jcprepct.o
                0x0800f048                jinit_c_prep_controller
 .text          0x0800f860      0xe78 obj/default/jcsample.o
                0x0800f944                jinit_downsampler
 .text          0x080106d8      0x868 obj/default/jctrans.o
                0x08010994                jpeg_copy_critical_parameters
                0x08010ccc                jpeg_write_coefficients
 .text          0x08010f40      0x6e0 obj/default/jdapimin.o
                0x08010f40                jpeg_set_marker_processor
                0x08010f9c                jpeg_consume_input
                0x08011298                jpeg_input_complete
                0x080112f0                jpeg_has_multiple_scans
                0x08011348                jpeg_finish_decompress
                0x08011448                jpeg_read_header
                0x08011508                jpeg_abort_decompress
                0x0801150c                jpeg_destroy_decompress
                0x08011510                jpeg_CreateDecompress
 .text          0x08011620      0x5f8 obj/default/jdapistd.o
                0x08011720                jpeg_read_scanlines
                0x08011818                jpeg_read_raw_data
                0x0801197c                jpeg_start_output
                0x08011a20                jpeg_finish_output
                0x08011ae4                jpeg_start_decompress
 .text          0x08011c18      0x1fc obj/default/jdatadst.o
                0x08011c64                jpeg_stdio_dest
 .text          0x08011e14      0x2a0 obj/default/jdatasrc.o
                0x08011e28                jpeg_stdio_src
 .text          0x080120b4     0x1498 obj/default/jdcoefct.o
                0x080124ac                jinit_d_coef_controller
 .text          0x0801354c      0x698 obj/default/jdcolor.o
                0x08013888                jinit_color_deconverter
 .text          0x08013be4      0x5ec obj/default/jddctmgr.o
                0x0801410c                jinit_inverse_dct
 .text          0x080141d0     0x2d7c obj/default/jdhuff.o
                0x080141d0                jpeg_fill_bit_buffer
                0x08014364                jinit_huff_decoder
                0x080143d4                jpeg_make_d_derived_tbl
                0x080158bc                jpeg_huff_decode
 .text          0x08016f4c      0x6fc obj/default/jdinput.o
                0x08016fc0                jinit_input_controller
 .text          0x08017648      0xa80 obj/default/jdmainct.o
                0x08017e2c                jinit_d_main_controller
 .text          0x080180c8     0x2908 obj/default/jdmarker.o
                0x08019428                jpeg_resync_to_restart
                0x0801a900                jinit_marker_reader
 .text          0x0801a9d0      0x9fc obj/default/jdmaster.o
                0x0801abe8                jpeg_new_colormap
                0x0801ac94                jpeg_calc_output_dimensions
                0x0801afc8                jinit_master_decompress
 .text          0x0801b3cc      0x884 obj/default/jdmerge.o
                0x0801b958                jinit_merged_upsampler
 .text          0x0801bc50     0x1228 obj/default/jdphuff.o
                0x0801bc50                jinit_phuff_decoder
 .text          0x0801ce78      0x524 obj/default/jdpostct.o
                0x0801d294                jinit_d_post_controller
 .text          0x0801d39c      0xa8c obj/default/jdsample.o
                0x0801d6ac                jinit_upsampler
 .text          0x0801de28      0x1b4 obj/default/jdtrans.o
                0x0801de28                jpeg_read_coefficients
 .text          0x0801dfdc      0x268 obj/default/jerror.o
                0x0801e064                jpeg_std_error
 .text          0x0801e244     0x2b04 obj/default/jfdctflt.o
                0x0801e244                jpeg_fdct_float
 .text          0x08020d48      0x208 obj/default/jfdctfst.o
                0x08020d48                jpeg_fdct_ifast
 .text          0x08020f50      0x2c8 obj/default/jfdctint.o
                0x08020f50                jpeg_fdct_islow
 .text          0x08021218      0x81c obj/default/jidctflt.o
                0x08021218                jpeg_idct_float
 .text          0x08021a34      0x434 obj/default/jidctfst.o
                0x08021a34                jpeg_idct_ifast
 .text          0x08021e68      0x514 obj/default/jidctint.o
                0x08021e68                jpeg_idct_islow
 .text          0x0802237c      0xa14 obj/default/jidctred.o
                0x0802237c                jpeg_idct_4x4
                0x08022a60                jpeg_idct_2x2
                0x08022d54                jpeg_idct_1x1
 .text          0x08022d90     0x15b0 obj/default/jmemmgr.o
                0x08022d90                jinit_memory_mgr
 .text          0x08024340       0x48 obj/default/jmemnobs.o
                0x08024340                jpeg_mem_available
                0x08024348                jpeg_open_backing_store
                0x0802435c                jpeg_mem_init
                0x08024364                jpeg_mem_term
                0x08024368                jpeg_free_large
                0x08024370                jpeg_free_small
                0x08024378                jpeg_get_large
                0x08024380                jpeg_get_small
 .text          0x08024388     0x1210 obj/default/jquant1.o
                0x08024914                jinit_1pass_quantizer
 .text          0x08025598     0x1a04 obj/default/jquant2.o
                0x08026908                jinit_2pass_quantizer
 .text          0x08026f9c      0x15c obj/default/jutils.o
                0x08026f9c                jdiv_round_up
                0x08026ff0                jround_up
                0x0802705c                jzero_far
                0x08027068                jcopy_block_row
                0x0802707c                jcopy_sample_rows
 .text          0x080270f8      0x77c obj/default/rdcolmap.o
                0x08027224                read_color_map
 .text          0x08027874      0xa94 obj/default/wrbmp.o
                0x080279e8                jinit_write_bmp
 .text          0x08028308      0xd58 obj/default/wrgif.o
                0x08028308                jinit_write_gif
 .text          0x08029060      0x394 obj/default/wrppm.o
                0x08029060                jinit_write_ppm
 .text          0x080293f4        0x0 obj/default/wrrle.o
 .text          0x080293f4      0x540 obj/default/wrtarga.o
                0x080293f4                jinit_write_targa
 .text          0x08029934      0x2b8 /package/eda/altera/altera13.0sp1/nios2eds/bin/gnu/H-i686-pc-linux-gnu/bin/../lib/gcc/nios2-elf/4.1.2/libgcc.a(_addsub_sf.o)
                0x08029b18                __subsf3
                0x08029b88                __addsf3
 .text          0x08029bec      0x1e0 /package/eda/altera/altera13.0sp1/nios2eds/bin/gnu/H-i686-pc-linux-gnu/bin/../lib/gcc/nios2-elf/4.1.2/libgcc.a(_mul_sf.o)
                0x08029bec                __mulsf3
 .text          0x08029dcc       0x98 /package/eda/altera/altera13.0sp1/nios2eds/bin/gnu/H-i686-pc-linux-gnu/bin/../lib/gcc/nios2-elf/4.1.2/libgcc.a(_si_to_sf.o)
                0x08029dcc                __floatsisf
 .text          0x08029e64       0x94 /package/eda/altera/altera13.0sp1/nios2eds/bin/gnu/H-i686-pc-linux-gnu/bin/../lib/gcc/nios2-elf/4.1.2/libgcc.a(_sf_to_si.o)
                0x08029e64                __fixsfsi
 .text          0x08029ef8        0x0 /package/eda/altera/altera13.0sp1/nios2eds/bin/gnu/H-i686-pc-linux-gnu/bin/../lib/gcc/nios2-elf/4.1.2/libgcc.a(_thenan_sf.o)
 .text          0x08029ef8      0x3c4 /package/eda/altera/altera13.0sp1/nios2eds/bin/gnu/H-i686-pc-linux-gnu/bin/../lib/gcc/nios2-elf/4.1.2/libgcc.a(_mul_df.o)
                0x08029ef8                __muldf3
 .text          0x0802a2bc      0x258 /package/eda/altera/altera13.0sp1/nios2eds/bin/gnu/H-i686-pc-linux-gnu/bin/../lib/gcc/nios2-elf/4.1.2/libgcc.a(_div_df.o)
                0x0802a2bc                __divdf3
 .text          0x0802a514       0x74 /package/eda/altera/altera13.0sp1/nios2eds/bin/gnu/H-i686-pc-linux-gnu/bin/../lib/gcc/nios2-elf/4.1.2/libgcc.a(_df_to_sf.o)
                0x0802a514                __truncdfsf2
 .text          0x0802a588        0x0 /package/eda/altera/altera13.0sp1/nios2eds/bin/gnu/H-i686-pc-linux-gnu/bin/../lib/gcc/nios2-elf/4.1.2/libgcc.a(_thenan_df.o)
 .text          0x0802a588      0x194 /package/eda/altera/altera13.0sp1/nios2eds/bin/gnu/H-i686-pc-linux-gnu/bin/../lib/gcc/nios2-elf/4.1.2/libgcc.a(_usi_to_df.o)
                0x0802a588                __floatunsidf
 .text          0x0802a71c      0x14c /package/eda/altera/altera13.0sp1/nios2eds/bin/gnu/H-i686-pc-linux-gnu/bin/../lib/gcc/nios2-elf/4.1.2/libgcc.a(lib2-divmod.o)
                0x0802a798                __divsi3
                0x0802a7f8                __modsi3
                0x0802a858                __udivsi3
                0x0802a860                __umodsi3
 .text          0x0802a868        0x0 /package/eda/altera/altera13.0sp1/nios2eds/bin/gnu/H-i686-pc-linux-gnu/bin/../lib/gcc/nios2-elf/4.1.2/libgcc.a(lib2-divtable.o)
 .text          0x0802a868       0x98 /package/eda/altera/altera13.0sp1/nios2eds/bin/gnu/H-i686-pc-linux-gnu/bin/../lib/gcc/nios2-elf/4.1.2/libgcc.a(_muldi3.o)
                0x0802a868                __muldi3
 .text          0x0802a900       0x80 /package/eda/altera/altera13.0sp1/nios2eds/bin/gnu/H-i686-pc-linux-gnu/bin/../lib/gcc/nios2-elf/4.1.2/libgcc.a(_clzsi2.o)
                0x0802a900                __clzsi2
 .text          0x0802a980      0x160 /package/eda/altera/altera13.0sp1/nios2eds/bin/gnu/H-i686-pc-linux-gnu/bin/../lib/gcc/nios2-elf/4.1.2/libgcc.a(_pack_sf.o)
                0x0802a980                __pack_f
 .text          0x0802aae0       0xc8 /package/eda/altera/altera13.0sp1/nios2eds/bin/gnu/H-i686-pc-linux-gnu/bin/../lib/gcc/nios2-elf/4.1.2/libgcc.a(_unpack_sf.o)
                0x0802aae0                __unpack_f
 .text          0x0802aba8       0x2c /package/eda/altera/altera13.0sp1/nios2eds/bin/gnu/H-i686-pc-linux-gnu/bin/../lib/gcc/nios2-elf/4.1.2/libgcc.a(_make_sf.o)
                0x0802aba8                __make_fp
 .text          0x0802abd4      0x314 /package/eda/altera/altera13.0sp1/nios2eds/bin/gnu/H-i686-pc-linux-gnu/bin/../lib/gcc/nios2-elf/4.1.2/libgcc.a(_pack_df.o)
                0x0802abd4                __pack_d
 .text          0x0802aee8      0x138 /package/eda/altera/altera13.0sp1/nios2eds/bin/gnu/H-i686-pc-linux-gnu/bin/../lib/gcc/nios2-elf/4.1.2/libgcc.a(_unpack_df.o)
                0x0802aee8                __unpack_d
 .text          0x0802b020        0x0 /package/eda/altera/altera13.0sp1/nios2eds/bin/gnu/H-i686-pc-linux-gnu/bin/../lib/gcc/nios2-elf/4.1.2/libgcc.a(_clz.o)
 .text          0x0802b020        0x0 /package/eda/altera/altera13.0sp1/nios2eds/bin/gnu/H-i686-pc-linux-gnu/bin/../lib/gcc/nios2-elf/4.1.2/../../../../nios2-elf/lib/libc.a(lib_a-ctype_.o)
 .text          0x0802b020       0x38 /package/eda/altera/altera13.0sp1/nios2eds/bin/gnu/H-i686-pc-linux-gnu/bin/../lib/gcc/nios2-elf/4.1.2/../../../../nios2-elf/lib/libc.a(lib_a-exit.o)
                0x0802b020                exit
 .text          0x0802b058      0x124 /package/eda/altera/altera13.0sp1/nios2eds/bin/gnu/H-i686-pc-linux-gnu/bin/../lib/gcc/nios2-elf/4.1.2/../../../../nios2-elf/lib/libc.a(lib_a-fclose.o)
                0x0802b058                _fclose_r
                0x0802b168                fclose
 .text          0x0802b17c      0x230 /package/eda/altera/altera13.0sp1/nios2eds/bin/gnu/H-i686-pc-linux-gnu/bin/../lib/gcc/nios2-elf/4.1.2/../../../../nios2-elf/lib/libc.a(lib_a-fflush.o)
                0x0802b17c                _fflush_r
                0x0802b378                fflush
 .text          0x0802b3ac      0x2c0 /package/eda/altera/altera13.0sp1/nios2eds/bin/gnu/H-i686-pc-linux-gnu/bin/../lib/gcc/nios2-elf/4.1.2/../../../../nios2-elf/lib/libc.a(lib_a-findfp.o)
                0x0802b404                __sfp_lock_acquire
                0x0802b408                __sfp_lock_release
                0x0802b40c                __sinit_lock_acquire
                0x0802b410                __sinit_lock_release
                0x0802b414                __sinit
                0x0802b4c8                __fp_unlock_all
                0x0802b4e0                __fp_lock_all
                0x0802b4f8                _cleanup_r
                0x0802b504                _cleanup
                0x0802b514                __sfmoreglue
                0x0802b57c                __sfp
 .text          0x0802b66c      0x110 /package/eda/altera/altera13.0sp1/nios2eds/bin/gnu/H-i686-pc-linux-gnu/bin/../lib/gcc/nios2-elf/4.1.2/../../../../nios2-elf/lib/libc.a(lib_a-fopen.o)
                0x0802b66c                _fopen_r
                0x0802b760                fopen
 .text          0x0802b77c       0x60 /package/eda/altera/altera13.0sp1/nios2eds/bin/gnu/H-i686-pc-linux-gnu/bin/../lib/gcc/nios2-elf/4.1.2/../../../../nios2-elf/lib/libc.a(lib_a-fprintf.o)
                0x0802b77c                fprintf
                0x0802b7a8                _fprintf_r
 .text          0x0802b7dc       0xbc /package/eda/altera/altera13.0sp1/nios2eds/bin/gnu/H-i686-pc-linux-gnu/bin/../lib/gcc/nios2-elf/4.1.2/../../../../nios2-elf/lib/libc.a(lib_a-fputc.o)
                0x0802b7dc                fputc
                0x0802b840                _fputc_r
 .text          0x0802b898      0x23c /package/eda/altera/altera13.0sp1/nios2eds/bin/gnu/H-i686-pc-linux-gnu/bin/../lib/gcc/nios2-elf/4.1.2/../../../../nios2-elf/lib/libc.a(lib_a-fread.o)
                0x0802b898                _fread_r
                0x0802ba94                fread
 .text          0x0802bad4      0x440 /package/eda/altera/altera13.0sp1/nios2eds/bin/gnu/H-i686-pc-linux-gnu/bin/../lib/gcc/nios2-elf/4.1.2/../../../../nios2-elf/lib/libc.a(lib_a-freer.o)
                0x0802bad4                _malloc_trim_r
                0x0802bc00                _free_r
 .text          0x0802bf14      0x460 /package/eda/altera/altera13.0sp1/nios2eds/bin/gnu/H-i686-pc-linux-gnu/bin/../lib/gcc/nios2-elf/4.1.2/../../../../nios2-elf/lib/libc.a(lib_a-fseek.o)
                0x0802bf14                _fseek_r
                0x0802c350                fseek
 .text          0x0802c374       0x74 /package/eda/altera/altera13.0sp1/nios2eds/bin/gnu/H-i686-pc-linux-gnu/bin/../lib/gcc/nios2-elf/4.1.2/../../../../nios2-elf/lib/libc.a(lib_a-fstatr.o)
                0x0802c374                _fstat_r
 .text          0x0802c3e8      0x180 /package/eda/altera/altera13.0sp1/nios2eds/bin/gnu/H-i686-pc-linux-gnu/bin/../lib/gcc/nios2-elf/4.1.2/../../../../nios2-elf/lib/libc.a(lib_a-fwalk.o)
                0x0802c3e8                _fwalk_reent
                0x0802c4b0                _fwalk
 .text          0x0802c568       0xdc /package/eda/altera/altera13.0sp1/nios2eds/bin/gnu/H-i686-pc-linux-gnu/bin/../lib/gcc/nios2-elf/4.1.2/../../../../nios2-elf/lib/libc.a(lib_a-fwrite.o)
                0x0802c568                _fwrite_r
                0x0802c604                fwrite
 .text          0x0802c644      0x128 /package/eda/altera/altera13.0sp1/nios2eds/bin/gnu/H-i686-pc-linux-gnu/bin/../lib/gcc/nios2-elf/4.1.2/../../../../nios2-elf/lib/libc.a(lib_a-getc.o)
                0x0802c644                getc
                0x0802c6dc                _getc_r
 .text          0x0802c76c       0x48 /package/eda/altera/altera13.0sp1/nios2eds/bin/gnu/H-i686-pc-linux-gnu/bin/../lib/gcc/nios2-elf/4.1.2/../../../../nios2-elf/lib/libc.a(lib_a-getenv.o)
                0x0802c76c                getenv
                0x0802c798                _findenv
 .text          0x0802c7b4      0x128 /package/eda/altera/altera13.0sp1/nios2eds/bin/gnu/H-i686-pc-linux-gnu/bin/../lib/gcc/nios2-elf/4.1.2/../../../../nios2-elf/lib/libc.a(lib_a-getenv_r.o)
                0x0802c7b4                _findenv_r
                0x0802c8c0                _getenv_r
 .text          0x0802c8dc        0x0 /package/eda/altera/altera13.0sp1/nios2eds/bin/gnu/H-i686-pc-linux-gnu/bin/../lib/gcc/nios2-elf/4.1.2/../../../../nios2-elf/lib/libc.a(lib_a-impure.o)
 .text          0x0802c8dc        0x0 /package/eda/altera/altera13.0sp1/nios2eds/bin/gnu/H-i686-pc-linux-gnu/bin/../lib/gcc/nios2-elf/4.1.2/../../../../nios2-elf/lib/libc.a(lib_a-int_errno.o)
 .text          0x0802c8dc      0x194 /package/eda/altera/altera13.0sp1/nios2eds/bin/gnu/H-i686-pc-linux-gnu/bin/../lib/gcc/nios2-elf/4.1.2/../../../../nios2-elf/lib/libc.a(lib_a-makebuf.o)
                0x0802c8dc                __smakebuf_r
 .text          0x0802ca70       0x28 /package/eda/altera/altera13.0sp1/nios2eds/bin/gnu/H-i686-pc-linux-gnu/bin/../lib/gcc/nios2-elf/4.1.2/../../../../nios2-elf/lib/libc.a(lib_a-malloc.o)
                0x0802ca70                free
                0x0802ca84                malloc
 .text          0x0802ca98      0x740 /package/eda/altera/altera13.0sp1/nios2eds/bin/gnu/H-i686-pc-linux-gnu/bin/../lib/gcc/nios2-elf/4.1.2/../../../../nios2-elf/lib/libc.a(lib_a-mallocr.o)
                0x0802ca98                _malloc_r
 .text          0x0802d1d8       0xa0 /package/eda/altera/altera13.0sp1/nios2eds/bin/gnu/H-i686-pc-linux-gnu/bin/../lib/gcc/nios2-elf/4.1.2/../../../../nios2-elf/lib/libc.a(lib_a-memcpy.o)
                0x0802d1d8                memcpy
 .text          0x0802d278       0x98 /package/eda/altera/altera13.0sp1/nios2eds/bin/gnu/H-i686-pc-linux-gnu/bin/../lib/gcc/nios2-elf/4.1.2/../../../../nios2-elf/lib/libc.a(lib_a-memset.o)
                0x0802d278                memset
 .text          0x0802d310       0x78 /package/eda/altera/altera13.0sp1/nios2eds/bin/gnu/H-i686-pc-linux-gnu/bin/../lib/gcc/nios2-elf/4.1.2/../../../../nios2-elf/lib/libc.a(lib_a-openr.o)
                0x0802d310                _open_r
 .text          0x0802d388       0x78 /package/eda/altera/altera13.0sp1/nios2eds/bin/gnu/H-i686-pc-linux-gnu/bin/../lib/gcc/nios2-elf/4.1.2/../../../../nios2-elf/lib/libc.a(lib_a-printf.o)
                0x0802d388                printf
                0x0802d3cc                _printf_r
 .text          0x0802d400      0x1ec /package/eda/altera/altera13.0sp1/nios2eds/bin/gnu/H-i686-pc-linux-gnu/bin/../lib/gcc/nios2-elf/4.1.2/../../../../nios2-elf/lib/libc.a(lib_a-putc.o)
                0x0802d400                putc
                0x0802d504                _putc_r
 .text          0x0802d5ec       0xb4 /package/eda/altera/altera13.0sp1/nios2eds/bin/gnu/H-i686-pc-linux-gnu/bin/../lib/gcc/nios2-elf/4.1.2/../../../../nios2-elf/lib/libc.a(lib_a-puts.o)
                0x0802d5ec                _puts_r
                0x0802d68c                puts
 .text          0x0802d6a0      0x1e0 /package/eda/altera/altera13.0sp1/nios2eds/bin/gnu/H-i686-pc-linux-gnu/bin/../lib/gcc/nios2-elf/4.1.2/../../../../nios2-elf/lib/libc.a(lib_a-refill.o)
                0x0802d6a0                __srefill_r
 .text          0x0802d880       0x60 /package/eda/altera/altera13.0sp1/nios2eds/bin/gnu/H-i686-pc-linux-gnu/bin/../lib/gcc/nios2-elf/4.1.2/../../../../nios2-elf/lib/libc.a(lib_a-rget.o)
                0x0802d880                __srget_r
                0x0802d8cc                __srget
 .text          0x0802d8e0       0x70 /package/eda/altera/altera13.0sp1/nios2eds/bin/gnu/H-i686-pc-linux-gnu/bin/../lib/gcc/nios2-elf/4.1.2/../../../../nios2-elf/lib/libc.a(lib_a-sbrkr.o)
                0x0802d8e0                _sbrk_r
 .text          0x0802d950       0xd4 /package/eda/altera/altera13.0sp1/nios2eds/bin/gnu/H-i686-pc-linux-gnu/bin/../lib/gcc/nios2-elf/4.1.2/../../../../nios2-elf/lib/libc.a(lib_a-sprintf.o)
                0x0802d950                sprintf
                0x0802d9c4                _sprintf_r
 .text          0x0802da24      0x114 /package/eda/altera/altera13.0sp1/nios2eds/bin/gnu/H-i686-pc-linux-gnu/bin/../lib/gcc/nios2-elf/4.1.2/../../../../nios2-elf/lib/libc.a(lib_a-sscanf.o)
                0x0802da2c                _sscanf_r
                0x0802dab4                sscanf
 .text          0x0802db38      0x14c /package/eda/altera/altera13.0sp1/nios2eds/bin/gnu/H-i686-pc-linux-gnu/bin/../lib/gcc/nios2-elf/4.1.2/../../../../nios2-elf/lib/libc.a(lib_a-stdio.o)
                0x0802db38                __sclose
                0x0802db40                __sseek
                0x0802dba8                __swrite
                0x0802dc24                __sread
 .text          0x0802dc84       0x14 /package/eda/altera/altera13.0sp1/nios2eds/bin/gnu/H-i686-pc-linux-gnu/bin/../lib/gcc/nios2-elf/4.1.2/../../../../nios2-elf/lib/libc.a(lib_a-strdup.o)
                0x0802dc84                strdup
 .text          0x0802dc98       0x68 /package/eda/altera/altera13.0sp1/nios2eds/bin/gnu/H-i686-pc-linux-gnu/bin/../lib/gcc/nios2-elf/4.1.2/../../../../nios2-elf/lib/libc.a(lib_a-strdup_r.o)
                0x0802dc98                _strdup_r
 .text          0x0802dd00       0x74 /package/eda/altera/altera13.0sp1/nios2eds/bin/gnu/H-i686-pc-linux-gnu/bin/../lib/gcc/nios2-elf/4.1.2/../../../../nios2-elf/lib/libc.a(lib_a-strlen.o)
                0x0802dd00                strlen
 .text          0x0802dd74       0xf0 /package/eda/altera/altera13.0sp1/nios2eds/bin/gnu/H-i686-pc-linux-gnu/bin/../lib/gcc/nios2-elf/4.1.2/../../../../nios2-elf/lib/libc.a(lib_a-strncmp.o)
                0x0802dd74                strncmp
 .text          0x0802de64     0x1f28 /package/eda/altera/altera13.0sp1/nios2eds/bin/gnu/H-i686-pc-linux-gnu/bin/../lib/gcc/nios2-elf/4.1.2/../../../../nios2-elf/lib/libc.a(lib_a-vfprintf.o)
                0x0802debc                ___vfprintf_internal_r
                0x0802fd68                __vfprintf_internal
 .text          0x0802fd8c     0x1780 /package/eda/altera/altera13.0sp1/nios2eds/bin/gnu/H-i686-pc-linux-gnu/bin/../lib/gcc/nios2-elf/4.1.2/../../../../nios2-elf/lib/libc.a(lib_a-vfscanf.o)
                0x0802fd8c                __svfscanf_r
                0x0803140c                __svfscanf
                0x08031430                _vfscanf_r
                0x08031498                vfscanf
 .text          0x0803150c      0x14c /package/eda/altera/altera13.0sp1/nios2eds/bin/gnu/H-i686-pc-linux-gnu/bin/../lib/gcc/nios2-elf/4.1.2/../../../../nios2-elf/lib/libc.a(lib_a-wbuf.o)
                0x0803150c                __swbuf_r
                0x0803163c                __swbuf
 .text          0x08031658       0x78 /package/eda/altera/altera13.0sp1/nios2eds/bin/gnu/H-i686-pc-linux-gnu/bin/../lib/gcc/nios2-elf/4.1.2/../../../../nios2-elf/lib/libc.a(lib_a-writer.o)
                0x08031658                _write_r
 .text          0x080316d0      0x13c /package/eda/altera/altera13.0sp1/nios2eds/bin/gnu/H-i686-pc-linux-gnu/bin/../lib/gcc/nios2-elf/4.1.2/../../../../nios2-elf/lib/libc.a(lib_a-wsetup.o)
                0x080316d0                __swsetup_r
 .text          0x0803180c      0x1b4 /package/eda/altera/altera13.0sp1/nios2eds/bin/gnu/H-i686-pc-linux-gnu/bin/../lib/gcc/nios2-elf/4.1.2/../../../../nios2-elf/lib/libc.a(lib_a-__call_atexit.o)
                0x08031810                __call_exitprocs
 .text          0x080319c0       0x70 /package/eda/altera/altera13.0sp1/nios2eds/bin/gnu/H-i686-pc-linux-gnu/bin/../lib/gcc/nios2-elf/4.1.2/../../../../nios2-elf/lib/libc.a(lib_a-closer.o)
                0x080319c0                _close_r
 .text          0x08031a30     0x17cc /package/eda/altera/altera13.0sp1/nios2eds/bin/gnu/H-i686-pc-linux-gnu/bin/../lib/gcc/nios2-elf/4.1.2/../../../../nios2-elf/lib/libc.a(lib_a-dtoa.o)
                0x08031c48                _dtoa_r
 .text          0x080331fc        0x0 /package/eda/altera/altera13.0sp1/nios2eds/bin/gnu/H-i686-pc-linux-gnu/bin/../lib/gcc/nios2-elf/4.1.2/../../../../nios2-elf/lib/libc.a(lib_a-environ.o)
 .text          0x080331fc       0xa0 /package/eda/altera/altera13.0sp1/nios2eds/bin/gnu/H-i686-pc-linux-gnu/bin/../lib/gcc/nios2-elf/4.1.2/../../../../nios2-elf/lib/libc.a(lib_a-flags.o)
                0x080331fc                __sflags
 .text          0x0803329c      0x49c /package/eda/altera/altera13.0sp1/nios2eds/bin/gnu/H-i686-pc-linux-gnu/bin/../lib/gcc/nios2-elf/4.1.2/../../../../nios2-elf/lib/libc.a(lib_a-fvwrite.o)
                0x0803329c                __sfvwrite_r
 .text          0x08033738       0x70 /package/eda/altera/altera13.0sp1/nios2eds/bin/gnu/H-i686-pc-linux-gnu/bin/../lib/gcc/nios2-elf/4.1.2/../../../../nios2-elf/lib/libc.a(lib_a-isattyr.o)
                0x08033738                _isatty_r
 .text          0x080337a8       0x2c /package/eda/altera/altera13.0sp1/nios2eds/bin/gnu/H-i686-pc-linux-gnu/bin/../lib/gcc/nios2-elf/4.1.2/../../../../nios2-elf/lib/libc.a(lib_a-iswspace.o)
                0x080337a8                iswspace
 .text          0x080337d4       0xc4 /package/eda/altera/altera13.0sp1/nios2eds/bin/gnu/H-i686-pc-linux-gnu/bin/../lib/gcc/nios2-elf/4.1.2/../../../../nios2-elf/lib/libc.a(lib_a-locale.o)
                0x080337d4                __locale_charset
                0x080337dc                _localeconv_r
                0x080337e8                localeconv
                0x080337f8                _setlocale_r
                0x0803387c                setlocale
 .text          0x08033898       0x78 /package/eda/altera/altera13.0sp1/nios2eds/bin/gnu/H-i686-pc-linux-gnu/bin/../lib/gcc/nios2-elf/4.1.2/../../../../nios2-elf/lib/libc.a(lib_a-lseekr.o)
                0x08033898                _lseek_r
 .text          0x08033910       0xc0 /package/eda/altera/altera13.0sp1/nios2eds/bin/gnu/H-i686-pc-linux-gnu/bin/../lib/gcc/nios2-elf/4.1.2/../../../../nios2-elf/lib/libc.a(lib_a-mbrtowc.o)
                0x08033910                _mbrtowc_r
                0x08033990                mbrtowc
 .text          0x080339d0       0x40 /package/eda/altera/altera13.0sp1/nios2eds/bin/gnu/H-i686-pc-linux-gnu/bin/../lib/gcc/nios2-elf/4.1.2/../../../../nios2-elf/lib/libc.a(lib_a-mbtowc_r.o)
                0x080339d0                _mbtowc_r
 .text          0x08033a10       0xe4 /package/eda/altera/altera13.0sp1/nios2eds/bin/gnu/H-i686-pc-linux-gnu/bin/../lib/gcc/nios2-elf/4.1.2/../../../../nios2-elf/lib/libc.a(lib_a-memchr.o)
                0x08033a10                memchr
 .text          0x08033af4       0xe0 /package/eda/altera/altera13.0sp1/nios2eds/bin/gnu/H-i686-pc-linux-gnu/bin/../lib/gcc/nios2-elf/4.1.2/../../../../nios2-elf/lib/libc.a(lib_a-memmove.o)
                0x08033af4                memmove
 .text          0x08033bd4      0xff4 /package/eda/altera/altera13.0sp1/nios2eds/bin/gnu/H-i686-pc-linux-gnu/bin/../lib/gcc/nios2-elf/4.1.2/../../../../nios2-elf/lib/libc.a(lib_a-mprec.o)
                0x08033bd4                _Bfree
                0x08033bfc                __hi0bits
                0x08033c6c                __lo0bits
                0x08033d30                __mcmp
                0x08033d90                __ulp
                0x08033e10                __b2d
                0x08033f30                __ratio
                0x08033fe0                _mprec_log10
                0x08034074                __copybits
                0x080340cc                __any_on
                0x08034154                _Balloc
                0x08034210                __d2b
                0x0803438c                __mdiff
                0x08034518                __lshift
                0x08034664                __multiply
                0x0803484c                __i2b
                0x08034888                __multadd
                0x08034988                __pow5mult
                0x08034aa8                __s2b
 .text          0x08034bc8       0x78 /package/eda/altera/altera13.0sp1/nios2eds/bin/gnu/H-i686-pc-linux-gnu/bin/../lib/gcc/nios2-elf/4.1.2/../../../../nios2-elf/lib/libc.a(lib_a-readr.o)
                0x08034bc8                _read_r
 .text          0x08034c40      0x5f4 /package/eda/altera/altera13.0sp1/nios2eds/bin/gnu/H-i686-pc-linux-gnu/bin/../lib/gcc/nios2-elf/4.1.2/../../../../nios2-elf/lib/libc.a(lib_a-reallocr.o)
                0x08034c40                _realloc_r
 .text          0x08035234       0x40 /package/eda/altera/altera13.0sp1/nios2eds/bin/gnu/H-i686-pc-linux-gnu/bin/../lib/gcc/nios2-elf/4.1.2/../../../../nios2-elf/lib/libc.a(lib_a-s_isinfd.o)
                0x08035234                __isinfd
 .text          0x08035274       0x30 /package/eda/altera/altera13.0sp1/nios2eds/bin/gnu/H-i686-pc-linux-gnu/bin/../lib/gcc/nios2-elf/4.1.2/../../../../nios2-elf/lib/libc.a(lib_a-s_isnand.o)
                0x08035274                __isnand
 .text          0x080352a4       0xc0 /package/eda/altera/altera13.0sp1/nios2eds/bin/gnu/H-i686-pc-linux-gnu/bin/../lib/gcc/nios2-elf/4.1.2/../../../../nios2-elf/lib/libc.a(lib_a-sccl.o)
                0x080352a4                __sccl
 .text          0x08035364        0x8 /package/eda/altera/altera13.0sp1/nios2eds/bin/gnu/H-i686-pc-linux-gnu/bin/../lib/gcc/nios2-elf/4.1.2/../../../../nios2-elf/lib/libc.a(lib_a-sf_nan.o)
                0x08035364                nanf
 .text          0x0803536c       0xbc /package/eda/altera/altera13.0sp1/nios2eds/bin/gnu/H-i686-pc-linux-gnu/bin/../lib/gcc/nios2-elf/4.1.2/../../../../nios2-elf/lib/libc.a(lib_a-strcmp.o)
                0x0803536c                strcmp
 .text          0x08035428     0x166c /package/eda/altera/altera13.0sp1/nios2eds/bin/gnu/H-i686-pc-linux-gnu/bin/../lib/gcc/nios2-elf/4.1.2/../../../../nios2-elf/lib/libc.a(lib_a-strtod.o)
                0x08035470                _strtod_r
                0x08036954                strtof
                0x08036a78                strtod
 .text          0x08036a94      0x268 /package/eda/altera/altera13.0sp1/nios2eds/bin/gnu/H-i686-pc-linux-gnu/bin/../lib/gcc/nios2-elf/4.1.2/../../../../nios2-elf/lib/libc.a(lib_a-strtol.o)
                0x08036a94                _strtol_r
                0x08036cd8                strtol
 .text          0x08036cfc      0x318 /package/eda/altera/altera13.0sp1/nios2eds/bin/gnu/H-i686-pc-linux-gnu/bin/../lib/gcc/nios2-elf/4.1.2/../../../../nios2-elf/lib/libc.a(lib_a-strtoll_r.o)
                0x08036cfc                _strtoll_r
 .text          0x08037014      0x254 /package/eda/altera/altera13.0sp1/nios2eds/bin/gnu/H-i686-pc-linux-gnu/bin/../lib/gcc/nios2-elf/4.1.2/../../../../nios2-elf/lib/libc.a(lib_a-strtoul.o)
                0x08037014                _strtoul_r
                0x08037244                strtoul
 .text          0x08037268      0x2f0 /package/eda/altera/altera13.0sp1/nios2eds/bin/gnu/H-i686-pc-linux-gnu/bin/../lib/gcc/nios2-elf/4.1.2/../../../../nios2-elf/lib/libc.a(lib_a-strtoull_r.o)
                0x08037268                _strtoull_r
 .text          0x08037558      0x294 /package/eda/altera/altera13.0sp1/nios2eds/bin/gnu/H-i686-pc-linux-gnu/bin/../lib/gcc/nios2-elf/4.1.2/../../../../nios2-elf/lib/libc.a(lib_a-ungetc.o)
                0x08037558                __submore
                0x08037634                _ungetc_r
                0x080377d0                ungetc
 .text          0x080377ec       0xb4 /package/eda/altera/altera13.0sp1/nios2eds/bin/gnu/H-i686-pc-linux-gnu/bin/../lib/gcc/nios2-elf/4.1.2/../../../../nios2-elf/lib/libc.a(lib_a-callocr.o)
                0x080377ec                _calloc_r
 .text          0x080378a0      0x8f4 /package/eda/altera/altera13.0sp1/nios2eds/bin/gnu/H-i686-pc-linux-gnu/bin/../lib/gcc/nios2-elf/4.1.2/../../../../nios2-elf/lib/libc.a(lib_a-gdtoa-gethex.o)
                0x080378c4                __hexdig_init
                0x080379dc                __gethex
 .text          0x08038194      0x294 /package/eda/altera/altera13.0sp1/nios2eds/bin/gnu/H-i686-pc-linux-gnu/bin/../lib/gcc/nios2-elf/4.1.2/../../../../nios2-elf/lib/libc.a(lib_a-gdtoa-hexnan.o)
                0x080381e0                __hexnan
 .text          0x08038428       0xa4 /package/eda/altera/altera13.0sp1/nios2eds/bin/gnu/H-i686-pc-linux-gnu/bin/../lib/gcc/nios2-elf/4.1.2/libgcc.a(_fixunsdfsi.o)
                0x08038428                __fixunsdfsi
 .text          0x080384cc      0x5dc /package/eda/altera/altera13.0sp1/nios2eds/bin/gnu/H-i686-pc-linux-gnu/bin/../lib/gcc/nios2-elf/4.1.2/libgcc.a(_udivdi3.o)
                0x080384cc                __udivdi3
 .text          0x08038aa8      0x5b0 /package/eda/altera/altera13.0sp1/nios2eds/bin/gnu/H-i686-pc-linux-gnu/bin/../lib/gcc/nios2-elf/4.1.2/libgcc.a(_umoddi3.o)
                0x08038aa8                __umoddi3
 .text          0x08039058       0x78 /package/eda/altera/altera13.0sp1/nios2eds/bin/gnu/H-i686-pc-linux-gnu/bin/../lib/gcc/nios2-elf/4.1.2/libgcc.a(_ne_sf.o)
                0x08039058                __nesf2
 .text          0x080390d0       0x78 /package/eda/altera/altera13.0sp1/nios2eds/bin/gnu/H-i686-pc-linux-gnu/bin/../lib/gcc/nios2-elf/4.1.2/libgcc.a(_gt_sf.o)
                0x080390d0                __gtsf2
 .text          0x08039148       0x78 /package/eda/altera/altera13.0sp1/nios2eds/bin/gnu/H-i686-pc-linux-gnu/bin/../lib/gcc/nios2-elf/4.1.2/libgcc.a(_lt_sf.o)
                0x08039148                __ltsf2
 .text          0x080391c0      0x504 /package/eda/altera/altera13.0sp1/nios2eds/bin/gnu/H-i686-pc-linux-gnu/bin/../lib/gcc/nios2-elf/4.1.2/libgcc.a(_addsub_df.o)
                0x080395d0                __subdf3
                0x08039650                __adddf3
 .text          0x080396c4       0x88 /package/eda/altera/altera13.0sp1/nios2eds/bin/gnu/H-i686-pc-linux-gnu/bin/../lib/gcc/nios2-elf/4.1.2/libgcc.a(_eq_df.o)
                0x080396c4                __eqdf2
 .text          0x0803974c       0x88 /package/eda/altera/altera13.0sp1/nios2eds/bin/gnu/H-i686-pc-linux-gnu/bin/../lib/gcc/nios2-elf/4.1.2/libgcc.a(_ne_df.o)
                0x0803974c                __nedf2
 .text          0x080397d4       0x88 /package/eda/altera/altera13.0sp1/nios2eds/bin/gnu/H-i686-pc-linux-gnu/bin/../lib/gcc/nios2-elf/4.1.2/libgcc.a(_gt_df.o)
                0x080397d4                __gtdf2
 .text          0x0803985c       0x88 /package/eda/altera/altera13.0sp1/nios2eds/bin/gnu/H-i686-pc-linux-gnu/bin/../lib/gcc/nios2-elf/4.1.2/libgcc.a(_ge_df.o)
                0x0803985c                __gedf2
 .text          0x080398e4       0x88 /package/eda/altera/altera13.0sp1/nios2eds/bin/gnu/H-i686-pc-linux-gnu/bin/../lib/gcc/nios2-elf/4.1.2/libgcc.a(_lt_df.o)
                0x080398e4                __ltdf2
 .text          0x0803996c       0x88 /package/eda/altera/altera13.0sp1/nios2eds/bin/gnu/H-i686-pc-linux-gnu/bin/../lib/gcc/nios2-elf/4.1.2/libgcc.a(_le_df.o)
                0x0803996c                __ledf2
 .text          0x080399f4       0xf8 /package/eda/altera/altera13.0sp1/nios2eds/bin/gnu/H-i686-pc-linux-gnu/bin/../lib/gcc/nios2-elf/4.1.2/libgcc.a(_si_to_df.o)
                0x080399f4                __floatsidf
 .text          0x08039aec       0xd8 /package/eda/altera/altera13.0sp1/nios2eds/bin/gnu/H-i686-pc-linux-gnu/bin/../lib/gcc/nios2-elf/4.1.2/libgcc.a(_df_to_si.o)
                0x08039aec                __fixdfsi
 .text          0x08039bc4       0xa8 /package/eda/altera/altera13.0sp1/nios2eds/bin/gnu/H-i686-pc-linux-gnu/bin/../lib/gcc/nios2-elf/4.1.2/libgcc.a(_fpcmp_parts_sf.o)
                0x08039bc4                __fpcmp_parts_f
 .text          0x08039c6c       0xc8 /package/eda/altera/altera13.0sp1/nios2eds/bin/gnu/H-i686-pc-linux-gnu/bin/../lib/gcc/nios2-elf/4.1.2/libgcc.a(_fpcmp_parts_df.o)
                0x08039c6c                __fpcmp_parts_d
 .text          0x08039d34       0xf0 ../demo_board_NiosIIf_bsp//libhal_bsp.a(alt_close.o)
                0x08039d34                close
 .text          0x08039e24       0x28 ../demo_board_NiosIIf_bsp//libhal_bsp.a(alt_dcache_flush.o)
                0x08039e24                alt_dcache_flush
 .text          0x08039e4c        0x8 ../demo_board_NiosIIf_bsp//libhal_bsp.a(alt_dev.o)
 .text          0x08039e54        0x8 ../demo_board_NiosIIf_bsp//libhal_bsp.a(alt_env_lock.o)
                0x08039e54                __env_lock
                0x08039e58                __env_unlock
 .text          0x08039e5c        0x0 ../demo_board_NiosIIf_bsp//libhal_bsp.a(alt_errno.o)
 .text          0x08039e5c       0x14 ../demo_board_NiosIIf_bsp//libhal_bsp.a(alt_exit.o)
                0x08039e5c                _exit
 .text          0x08039e70       0x90 ../demo_board_NiosIIf_bsp//libhal_bsp.a(alt_fstat.o)
                0x08039e70                fstat
 .text          0x08039f00       0x84 ../demo_board_NiosIIf_bsp//libhal_bsp.a(alt_isatty.o)
                0x08039f00                isatty
 .text          0x08039f84       0xb4 ../demo_board_NiosIIf_bsp//libhal_bsp.a(alt_load.o)
                0x08039f84                alt_load
 .text          0x0803a038       0x9c ../demo_board_NiosIIf_bsp//libhal_bsp.a(alt_lseek.o)
                0x0803a038                lseek
 .text          0x0803a0d4       0x60 ../demo_board_NiosIIf_bsp//libhal_bsp.a(alt_main.o)
                0x0803a0d4                alt_main
 .text          0x0803a134        0x8 ../demo_board_NiosIIf_bsp//libhal_bsp.a(alt_malloc_lock.o)
                0x0803a134                __malloc_lock
                0x0803a138                __malloc_unlock
 .text          0x0803a13c      0x180 ../demo_board_NiosIIf_bsp//libhal_bsp.a(alt_open.o)
                0x0803a13c                open
 .text          0x0803a2bc      0x11c ../demo_board_NiosIIf_bsp//libhal_bsp.a(alt_read.o)
                0x0803a2bc                read
 .text          0x0803a3d8       0x24 ../demo_board_NiosIIf_bsp//libhal_bsp.a(alt_release_fd.o)
                0x0803a3d8                alt_release_fd
 .text          0x0803a3fc       0x54 ../demo_board_NiosIIf_bsp//libhal_bsp.a(alt_sbrk.o)
                0x0803a3fc                sbrk
 .text          0x0803a450      0x118 ../demo_board_NiosIIf_bsp//libhal_bsp.a(alt_write.o)
                0x0803a450                write
 .text          0x0803a568      0x178 ../demo_board_NiosIIf_bsp//libhal_bsp.a(alt_sys_init.o)
                0x0803a568                alt_irq_init
                0x0803a588                alt_sys_init
 .text          0x0803a6e0      0x564 ../demo_board_NiosIIf_bsp//libhal_bsp.a(altera_avalon_cfi_flash.o)
                0x0803a6e0                alt_flash_cfi_get_info
                0x0803a718                alt_flash_program_block
                0x0803a988                alt_write_value_to_flash
                0x0803aa20                alt_flash_cfi_read
                0x0803aa4c                alt_flash_cfi_write
                0x0803abdc                alt_flash_cfi_init
 .text          0x0803ac44      0xc24 ../demo_board_NiosIIf_bsp//libhal_bsp.a(altera_avalon_cfi_flash_table.o)
                0x0803ac44                alt_set_flash_width_func
                0x0803ad74                alt_set_flash_algorithm_func
                0x0803ade4                alt_read_query_entry_8bit
                0x0803adf8                alt_read_query_entry_16bit
                0x0803ae10                alt_read_query_entry_32bit
                0x0803ae2c                alt_write_native_32bit
                0x0803ae34                alt_write_flash_command_32bit_device_32bit_mode
                0x0803ae4c                alt_write_native_16bit
                0x0803ae58                alt_write_flash_command_32bit_device_16bit_mode
                0x0803ae70                alt_write_flash_command_16bit_device_16bit_mode
                0x0803ae84                alt_write_native_8bit
                0x0803ae90                alt_write_flash_command_32bit_device_8bit_mode
                0x0803aea8                alt_write_flash_command_16bit_device_8bit_mode
                0x0803aed0                alt_write_flash_command_8bit_device_8bit_mode
                0x0803aee0                alt_read_cfi_width
                0x0803b3ac                alt_check_primary_table
                0x0803b484                alt_read_cfi_table
 .text          0x0803b868       0x3c ../demo_board_NiosIIf_bsp//libhal_bsp.a(altera_avalon_jtag_uart_fd.o)
                0x0803b868                altera_avalon_jtag_uart_ioctl_fd
                0x0803b874                altera_avalon_jtag_uart_close_fd
                0x0803b884                altera_avalon_jtag_uart_write_fd
                0x0803b894                altera_avalon_jtag_uart_read_fd
 .text          0x0803b8a4      0x228 ../demo_board_NiosIIf_bsp//libhal_bsp.a(altera_avalon_jtag_uart_init.o)
                0x0803b8a4                altera_avalon_jtag_uart_close
                0x0803b944                altera_avalon_jtag_uart_init
 .text          0x0803bacc       0x88 ../demo_board_NiosIIf_bsp//libhal_bsp.a(altera_avalon_jtag_uart_ioctl.o)
                0x0803bacc                altera_avalon_jtag_uart_ioctl
 .text          0x0803bb54      0x16c ../demo_board_NiosIIf_bsp//libhal_bsp.a(altera_avalon_jtag_uart_read.o)
                0x0803bb54                altera_avalon_jtag_uart_read
 .text          0x0803bcc0      0x184 ../demo_board_NiosIIf_bsp//libhal_bsp.a(altera_avalon_jtag_uart_write.o)
                0x0803bcc0                altera_avalon_jtag_uart_write
 .text          0x0803be44       0x80 ../demo_board_NiosIIf_bsp//libhal_bsp.a(altera_avalon_performance_counter.o)
                0x0803be44                alt_get_performance_counter_base
                0x0803be50                alt_get_cpu_freq
                0x0803be5c                perf_get_num_starts
                0x0803be6c                perf_get_section_time
                0x0803be9c                perf_get_total_time
 .text          0x0803bec4       0x8c ../demo_board_NiosIIf_bsp//libhal_bsp.a(altera_avalon_timer_sc.o)
                0x0803bec4                alt_avalon_timer_sc_init
 .text          0x0803bf50      0x97c ../demo_board_NiosIIf_bsp//libhal_bsp.a(altera_ro_zipfs.o)
                0x0803bf50                check_directory_header
                0x0803c09c                alt_ro_zipfs_fstat
                0x0803c1d8                alt_ro_zipfs_check_valid
                0x0803c3c4                alt_ro_zipfs_open
                0x0803c5a4                alt_ro_zipfs_seek
                0x0803c74c                alt_ro_zipfs_read
 .text          0x0803c8cc      0xa7c ../demo_board_NiosIIf_bsp//libhal_bsp.a(altera_up_avalon_video_pixel_buffer_dma.o)
                0x0803c8cc                helper_plot_pixel
                0x0803c924                alt_up_pixel_buffer_dma_draw_vline
                0x0803ca9c                alt_up_pixel_buffer_dma_draw_hline
                0x0803cc04                alt_up_pixel_buffer_dma_draw_rectangle
                0x0803ccd0                alt_up_pixel_buffer_dma_draw_box
                0x0803cedc                alt_up_pixel_buffer_dma_clear_screen
                0x0803cf84                alt_up_pixel_buffer_dma_swap_buffers
                0x0803cfa8                alt_up_pixel_buffer_dma_draw
                0x0803d068                alt_up_pixel_buffer_dma_check_swap_buffers_status
                0x0803d078                alt_up_pixel_buffer_dma_change_back_buffer_address
                0x0803d0a0                alt_up_pixel_buffer_dma_open_dev
                0x0803d0ac                alt_up_pixel_buffer_dma_draw_line
 .text          0x0803d348      0x1ec ../demo_board_NiosIIf_bsp//libhal_bsp.a(perf_print_formatted_report.o)
                0x0803d348                perf_print_formatted_report
 .text          0x0803d534       0x94 ../demo_board_NiosIIf_bsp//libhal_bsp.a(alt_alarm_start.o)
                0x0803d534                alt_alarm_start
 .text          0x0803d5c8       0x18 ../demo_board_NiosIIf_bsp//libhal_bsp.a(alt_dcache_flush_all.o)
                0x0803d5c8                alt_dcache_flush_all
 .text          0x0803d5e0       0x7c ../demo_board_NiosIIf_bsp//libhal_bsp.a(alt_dev_llist_insert.o)
                0x0803d5e0                alt_dev_llist_insert
 .text          0x0803d65c       0x4c ../demo_board_NiosIIf_bsp//libhal_bsp.a(alt_do_ctors.o)
                0x0803d65c                _do_ctors
 .text          0x0803d6a8       0x4c ../demo_board_NiosIIf_bsp//libhal_bsp.a(alt_do_dtors.o)
                0x0803d6a8                _do_dtors
 .text          0x0803d6f4       0x94 ../demo_board_NiosIIf_bsp//libhal_bsp.a(alt_find_dev.o)
                0x0803d6f4                alt_find_dev
 .text          0x0803d788       0xb0 ../demo_board_NiosIIf_bsp//libhal_bsp.a(alt_find_file.o)
                0x0803d788                alt_find_file
 .text          0x0803d838       0x60 ../demo_board_NiosIIf_bsp//libhal_bsp.a(alt_flash_dev.o)
                0x0803d838                alt_flash_close_dev
                0x0803d84c                alt_flash_open_dev
 .text          0x0803d898       0x38 ../demo_board_NiosIIf_bsp//libhal_bsp.a(alt_fs_reg.o)
                0x0803d898                alt_fs_reg
 .text          0x0803d8d0       0x60 ../demo_board_NiosIIf_bsp//libhal_bsp.a(alt_get_fd.o)
                0x0803d8d0                alt_get_fd
 .text          0x0803d930        0xc ../demo_board_NiosIIf_bsp//libhal_bsp.a(alt_icache_flush_all.o)
                0x0803d930                alt_icache_flush_all
 .text          0x0803d93c       0x9c ../demo_board_NiosIIf_bsp//libhal_bsp.a(alt_iic.o)
                0x0803d93c                alt_ic_irq_enabled
                0x0803d954                alt_ic_irq_enable
                0x0803d994                alt_ic_irq_disable
                0x0803d9d4                alt_ic_isr_register
 .text          0x0803d9d8       0x88 ../demo_board_NiosIIf_bsp//libhal_bsp.a(alt_iic_isr_register.o)
                0x0803d9d8                alt_iic_isr_register
 .text          0x0803da60      0x104 ../demo_board_NiosIIf_bsp//libhal_bsp.a(alt_io_redirect.o)
                0x0803da60                alt_io_redirect
 .text          0x0803db64        0x0 ../demo_board_NiosIIf_bsp//libhal_bsp.a(alt_irq_entry.o)
 .text          0x0803db64        0x0 ../demo_board_NiosIIf_bsp//libhal_bsp.a(alt_irq_handler.o)
 .text          0x0803db64        0x0 ../demo_board_NiosIIf_bsp//libhal_bsp.a(alt_irq_vars.o)
 .text          0x0803db64      0x11c ../demo_board_NiosIIf_bsp//libhal_bsp.a(alt_tick.o)
                0x0803db64                alt_alarm_stop
                0x0803db98                alt_tick
 .text          0x0803dc80        0x8 ../demo_board_NiosIIf_bsp//libhal_bsp.a(altera_nios2_qsys_irq.o)
                0x0803dc80                altera_nios2_qsys_irq_init
 .text          0x0803dc88      0x2e4 ../demo_board_NiosIIf_bsp//libhal_bsp.a(altera_avalon_cfi_flash_amd.o)
                0x0803dc88                alt_erase_block_amd
                0x0803de04                alt_program_amd
 .text          0x0803df6c      0x320 ../demo_board_NiosIIf_bsp//libhal_bsp.a(altera_avalon_cfi_flash_intel.o)
                0x0803e064                alt_erase_block_intel
                0x0803e168                alt_program_intel
 .text          0x0803e28c        0x0 ../demo_board_NiosIIf_bsp//libhal_bsp.a(alt_exception_entry.o)
 .text          0x0803e28c       0x38 ../demo_board_NiosIIf_bsp//libhal_bsp.a(alt_icache_flush.o)
                0x0803e28c                alt_icache_flush
 .text          0x0803e2c4        0x4 ../demo_board_NiosIIf_bsp//libhal_bsp.a(alt_usleep.o)
                0x0803e2c4                usleep
 .text          0x0803e2c8       0x94 ../demo_board_NiosIIf_bsp//libhal_bsp.a(alt_busy_sleep.o)
                0x0803e2c8                alt_busy_sleep
 .text          0x0803e35c       0x14 /package/eda/altera/altera13.0sp1/nios2eds/bin/gnu/H-i686-pc-linux-gnu/bin/../lib/gcc/nios2-elf/4.1.2/../../../../nios2-elf/lib/libc.a(lib_a-atexit.o)
                0x0803e35c                atexit
 .text          0x0803e370       0x74 /package/eda/altera/altera13.0sp1/nios2eds/bin/gnu/H-i686-pc-linux-gnu/bin/../lib/gcc/nios2-elf/4.1.2/../../../../nios2-elf/lib/libc.a(lib_a-memcmp.o)
                0x0803e370                memcmp
 .text          0x0803e3e4      0x134 /package/eda/altera/altera13.0sp1/nios2eds/bin/gnu/H-i686-pc-linux-gnu/bin/../lib/gcc/nios2-elf/4.1.2/../../../../nios2-elf/lib/libc.a(lib_a-__atexit.o)
                0x0803e3e4                __register_exitproc
 .text          0x0803e518       0x88 /package/eda/altera/altera13.0sp1/nios2eds/bin/gnu/H-i686-pc-linux-gnu/bin/../lib/gcc/nios2-elf/4.1.2/libgcc.a(_floatundidf.o)
                0x0803e518                __floatundidf
 *(.gnu.warning.*)
 *(.fini)
                0x0803e5a0                PROVIDE (__etext, ABSOLUTE (.))
                0x0803e5a0                PROVIDE (_etext, ABSOLUTE (.))
                0x0803e5a0                PROVIDE (etext, ABSOLUTE (.))
 *(.eh_frame_hdr)
                0x0803e5a0                . = ALIGN (0x4)
                0x0803e5a0                PROVIDE (__preinit_array_start, ABSOLUTE (.))
 *(.preinit_array)
                0x0803e5a0                PROVIDE (__preinit_array_end, ABSOLUTE (.))
                0x0803e5a0                PROVIDE (__init_array_start, ABSOLUTE (.))
 *(.init_array)
                0x0803e5a0                PROVIDE (__init_array_end, ABSOLUTE (.))
                0x0803e5a0                PROVIDE (__fini_array_start, ABSOLUTE (.))
 *(.fini_array)
                0x0803e5a0                PROVIDE (__fini_array_end, ABSOLUTE (.))
 *(.eh_frame)
 *(.gcc_except_table)
 *(.dynamic)
                0x0803e5a0                PROVIDE (__CTOR_LIST__, ABSOLUTE (.))
 *(.ctors)
 *(SORT(.ctors.*))
 .ctors.65535   0x0803e5a0        0x4 /package/eda/altera/altera13.0sp1/nios2eds/bin/gnu/H-i686-pc-linux-gnu/bin/../lib/gcc/nios2-elf/4.1.2/../../../../nios2-elf/lib/libc.a(lib_a-__call_atexit.o)
                0x0803e5a4                PROVIDE (__CTOR_END__, ABSOLUTE (.))
                0x0803e5a4                PROVIDE (__DTOR_LIST__, ABSOLUTE (.))
 *(.dtors)
 *(SORT(.dtors.*))
                0x0803e5a4                PROVIDE (__DTOR_END__, ABSOLUTE (.))
 *(.jcr)
                0x0803e5a4                . = ALIGN (0x4)

.rodata         0x0803e5a4     0x30a8
                0x0803e5a4                PROVIDE (__ram_rodata_start, ABSOLUTE (.))
                0x0803e5a4                . = ALIGN (0x4)
 *(.rodata .rodata.* .gnu.linkonce.r.*)
 .rodata.str1.4
                0x0803e5a4      0xcb7 obj/default/djpeg.o
                                0xcd0 (size before relaxing)
 *fill*         0x0803f25b        0x1 00
 .rodata        0x0803f25c       0xb0 obj/default/djpeg.o
 .rodata        0x0803f30c       0xc0 obj/default/jcdctmgr.o
 .rodata        0x0803f3cc      0x3a0 obj/default/jcparam.o
 .rodata        0x0803f76c       0xc0 obj/default/jddctmgr.o
 .rodata        0x0803f82c       0x80 obj/default/jdhuff.o
 .rodata        0x0803f8ac       0x80 obj/default/jdphuff.o
 .rodata.str1.4
                0x0803f92c     0x115b obj/default/jerror.o
                               0x1190 (size before relaxing)
 *fill*         0x08040a87        0x1 00
 .rodata        0x08040a88      0x1e4 obj/default/jerror.o
                0x08040a88                jpeg_std_message_table
 .rodata.str1.4
                0x08040c6c        0x8 obj/default/jmemmgr.o
                                 0x10 (size before relaxing)
 .rodata        0x08040c74      0x10c obj/default/jquant1.o
 .rodata        0x08040d80      0x140 obj/default/jutils.o
                0x08040d80                jpeg_natural_order
 .rodata.str1.4
                0x08040ec0       0x1f obj/default/wrppm.o
                                 0x20 (size before relaxing)
 *fill*         0x08040edf        0x1 00
 .rodata        0x08040ee0       0x10 /package/eda/altera/altera13.0sp1/nios2eds/bin/gnu/H-i686-pc-linux-gnu/bin/../lib/gcc/nios2-elf/4.1.2/libgcc.a(_thenan_sf.o)
                0x08040ee0                __thenan_sf
 .rodata        0x08040ef0       0x14 /package/eda/altera/altera13.0sp1/nios2eds/bin/gnu/H-i686-pc-linux-gnu/bin/../lib/gcc/nios2-elf/4.1.2/libgcc.a(_thenan_df.o)
                0x08040ef0                __thenan_df
 .rodata        0x08040f04      0x100 /package/eda/altera/altera13.0sp1/nios2eds/bin/gnu/H-i686-pc-linux-gnu/bin/../lib/gcc/nios2-elf/4.1.2/libgcc.a(_clz.o)
                0x08040f04                __clz_tab
 .rodata        0x08041004      0x281 /package/eda/altera/altera13.0sp1/nios2eds/bin/gnu/H-i686-pc-linux-gnu/bin/../lib/gcc/nios2-elf/4.1.2/../../../../nios2-elf/lib/libc.a(lib_a-ctype_.o)
                0x08041004                _ctype_
 *fill*         0x08041285        0x3 00
 .rodata.str1.4
                0x08041288        0x2 /package/eda/altera/altera13.0sp1/nios2eds/bin/gnu/H-i686-pc-linux-gnu/bin/../lib/gcc/nios2-elf/4.1.2/../../../../nios2-elf/lib/libc.a(lib_a-impure.o)
                                  0x4 (size before relaxing)
 .rodata.str1.4
                0x00000000        0x2 /package/eda/altera/altera13.0sp1/nios2eds/bin/gnu/H-i686-pc-linux-gnu/bin/../lib/gcc/nios2-elf/4.1.2/../../../../nios2-elf/lib/libc.a(lib_a-puts.o)
                                  0x4 (size before relaxing)
 *fill*         0x0804128a        0x2 00
 .rodata.str1.4
                0x0804128c       0x5a /package/eda/altera/altera13.0sp1/nios2eds/bin/gnu/H-i686-pc-linux-gnu/bin/../lib/gcc/nios2-elf/4.1.2/../../../../nios2-elf/lib/libc.a(lib_a-vfprintf.o)
                                 0x60 (size before relaxing)
 .rodata        0x080412e6       0x20 /package/eda/altera/altera13.0sp1/nios2eds/bin/gnu/H-i686-pc-linux-gnu/bin/../lib/gcc/nios2-elf/4.1.2/../../../../nios2-elf/lib/libc.a(lib_a-vfprintf.o)
 *fill*         0x08041306        0x2 00
 .rodata.str1.4
                0x08041308        0x5 /package/eda/altera/altera13.0sp1/nios2eds/bin/gnu/H-i686-pc-linux-gnu/bin/../lib/gcc/nios2-elf/4.1.2/../../../../nios2-elf/lib/libc.a(lib_a-vfscanf.o)
                                  0x8 (size before relaxing)
 *fill*         0x0804130d        0x1 00
 .rodata        0x0804130e       0x22 /package/eda/altera/altera13.0sp1/nios2eds/bin/gnu/H-i686-pc-linux-gnu/bin/../lib/gcc/nios2-elf/4.1.2/../../../../nios2-elf/lib/libc.a(lib_a-vfscanf.o)
 .rodata.str1.4
                0x08041330       0x10 /package/eda/altera/altera13.0sp1/nios2eds/bin/gnu/H-i686-pc-linux-gnu/bin/../lib/gcc/nios2-elf/4.1.2/../../../../nios2-elf/lib/libc.a(lib_a-dtoa.o)
                                 0x14 (size before relaxing)
 .rodata.str1.4
                0x08041340        0xf /package/eda/altera/altera13.0sp1/nios2eds/bin/gnu/H-i686-pc-linux-gnu/bin/../lib/gcc/nios2-elf/4.1.2/../../../../nios2-elf/lib/libc.a(lib_a-locale.o)
                                 0x18 (size before relaxing)
 *fill*         0x0804134f        0x1 00
 .rodata        0x08041350       0x30 /package/eda/altera/altera13.0sp1/nios2eds/bin/gnu/H-i686-pc-linux-gnu/bin/../lib/gcc/nios2-elf/4.1.2/../../../../nios2-elf/lib/libc.a(lib_a-locale.o)
 .rodata.str1.4
                0x00000000        0x4 /package/eda/altera/altera13.0sp1/nios2eds/bin/gnu/H-i686-pc-linux-gnu/bin/../lib/gcc/nios2-elf/4.1.2/../../../../nios2-elf/lib/libc.a(lib_a-mbrtowc.o)
 .rodata        0x08041380      0x124 /package/eda/altera/altera13.0sp1/nios2eds/bin/gnu/H-i686-pc-linux-gnu/bin/../lib/gcc/nios2-elf/4.1.2/../../../../nios2-elf/lib/libc.a(lib_a-mprec.o)
                0x08041380                __mprec_tens
                0x08041448                __mprec_bigtens
                0x08041470                __mprec_tinytens
 .rodata.str1.4
                0x080414a4        0xf /package/eda/altera/altera13.0sp1/nios2eds/bin/gnu/H-i686-pc-linux-gnu/bin/../lib/gcc/nios2-elf/4.1.2/../../../../nios2-elf/lib/libc.a(lib_a-strtod.o)
                                 0x10 (size before relaxing)
 *fill*         0x080414b3        0x1 00
 .rodata        0x080414b4       0x28 /package/eda/altera/altera13.0sp1/nios2eds/bin/gnu/H-i686-pc-linux-gnu/bin/../lib/gcc/nios2-elf/4.1.2/../../../../nios2-elf/lib/libc.a(lib_a-strtod.o)
 .rodata.str1.4
                0x080414dc       0x1b /package/eda/altera/altera13.0sp1/nios2eds/bin/gnu/H-i686-pc-linux-gnu/bin/../lib/gcc/nios2-elf/4.1.2/../../../../nios2-elf/lib/libc.a(lib_a-gdtoa-gethex.o)
                                 0x1c (size before relaxing)
 *fill*         0x080414f7        0x1 00
 .rodata.str1.4
                0x080414f8        0xa ../demo_board_NiosIIf_bsp//libhal_bsp.a(alt_dev.o)
                                  0xc (size before relaxing)
 *fill*         0x08041502        0x2 00
 .rodata.str1.4
                0x08041504       0x11 ../demo_board_NiosIIf_bsp//libhal_bsp.a(alt_main.o)
                                 0x14 (size before relaxing)
 *fill*         0x08041515        0x3 00
 .rodata.str1.4
                0x08041518       0x31 ../demo_board_NiosIIf_bsp//libhal_bsp.a(alt_sys_init.o)
                                 0x68 (size before relaxing)
 *fill*         0x08041549        0x3 00
 .rodata.str1.4
                0x0804154c      0x100 ../demo_board_NiosIIf_bsp//libhal_bsp.a(perf_print_formatted_report.o)
 *(.rodata1)
                0x0804164c                . = ALIGN (0x4)
                0x0804164c                PROVIDE (__ram_rodata_end, ABSOLUTE (.))
                0x0803e5a4                PROVIDE (__flash_rodata_start, LOADADDR (.rodata))

.rwdata         0x0804164c     0x1d00 load address 0x0804334c
                0x0804164c                PROVIDE (__ram_rwdata_start, ABSOLUTE (.))
                0x0804164c                . = ALIGN (0x4)
 *(.got.plt)
 *(.got)
 *(.data1)
 *(.data .data.* .gnu.linkonce.d.*)
 .data          0x0804164c        0x0 ../demo_board_NiosIIf_bsp//obj/HAL/src/crt0.o
 .data          0x0804164c        0x0 obj/default/cdjpeg.o
 .data          0x0804164c        0x0 obj/default/djpeg.o
 .data          0x0804164c        0x0 obj/default/jcapimin.o
 .data          0x0804164c        0x0 obj/default/jcapistd.o
 .data          0x0804164c        0x0 obj/default/jccoefct.o
 .data          0x0804164c        0x0 obj/default/jccolor.o
 .data          0x0804164c        0x0 obj/default/jcdctmgr.o
 .data          0x0804164c        0x0 obj/default/jchuff.o
 .data          0x0804164c        0x0 obj/default/jcinit.o
 .data          0x0804164c        0x0 obj/default/jcmainct.o
 .data          0x0804164c        0x0 obj/default/jcmarker.o
 .data          0x0804164c        0x0 obj/default/jcmaster.o
 .data          0x0804164c        0x0 obj/default/jcomapi.o
 .data          0x0804164c        0x0 obj/default/jcparam.o
 .data          0x0804164c        0x0 obj/default/jcphuff.o
 .data          0x0804164c        0x0 obj/default/jcprepct.o
 .data          0x0804164c        0x0 obj/default/jcsample.o
 .data          0x0804164c        0x0 obj/default/jctrans.o
 .data          0x0804164c        0x0 obj/default/jdapimin.o
 .data          0x0804164c        0x0 obj/default/jdapistd.o
 .data          0x0804164c        0x0 obj/default/jdatadst.o
 .data          0x0804164c        0x0 obj/default/jdatasrc.o
 .data          0x0804164c        0x0 obj/default/jdcoefct.o
 .data          0x0804164c        0x0 obj/default/jdcolor.o
 .data          0x0804164c        0x0 obj/default/jddctmgr.o
 .data          0x0804164c        0x0 obj/default/jdhuff.o
 .data          0x0804164c        0x0 obj/default/jdinput.o
 .data          0x0804164c        0x0 obj/default/jdmainct.o
 .data          0x0804164c        0x0 obj/default/jdmarker.o
 .data          0x0804164c        0x0 obj/default/jdmaster.o
 .data          0x0804164c        0x0 obj/default/jdmerge.o
 .data          0x0804164c        0x0 obj/default/jdphuff.o
 .data          0x0804164c        0x0 obj/default/jdpostct.o
 .data          0x0804164c        0x0 obj/default/jdsample.o
 .data          0x0804164c        0x0 obj/default/jdtrans.o
 .data          0x0804164c        0x0 obj/default/jerror.o
 .data          0x0804164c        0x0 obj/default/jfdctflt.o
 .data          0x0804164c        0x0 obj/default/jfdctfst.o
 .data          0x0804164c        0x0 obj/default/jfdctint.o
 .data          0x0804164c        0x0 obj/default/jidctflt.o
 .data          0x0804164c        0x0 obj/default/jidctfst.o
 .data          0x0804164c        0x0 obj/default/jidctint.o
 .data          0x0804164c        0x0 obj/default/jidctred.o
 .data          0x0804164c        0x0 obj/default/jmemmgr.o
 .data          0x0804164c        0x0 obj/default/jmemnobs.o
 .data          0x0804164c        0x0 obj/default/jquant1.o
 .data          0x0804164c        0x0 obj/default/jquant2.o
 .data          0x0804164c        0x0 obj/default/jutils.o
 .data          0x0804164c        0x0 obj/default/rdcolmap.o
 .data          0x0804164c        0x0 obj/default/wrbmp.o
 .data          0x0804164c        0x0 obj/default/wrgif.o
 .data          0x0804164c        0x0 obj/default/wrppm.o
 .data          0x0804164c        0x0 obj/default/wrrle.o
 .data          0x0804164c        0x0 obj/default/wrtarga.o
 .data          0x0804164c        0x0 /package/eda/altera/altera13.0sp1/nios2eds/bin/gnu/H-i686-pc-linux-gnu/bin/../lib/gcc/nios2-elf/4.1.2/libgcc.a(_addsub_sf.o)
 .data          0x0804164c        0x0 /package/eda/altera/altera13.0sp1/nios2eds/bin/gnu/H-i686-pc-linux-gnu/bin/../lib/gcc/nios2-elf/4.1.2/libgcc.a(_mul_sf.o)
 .data          0x0804164c        0x0 /package/eda/altera/altera13.0sp1/nios2eds/bin/gnu/H-i686-pc-linux-gnu/bin/../lib/gcc/nios2-elf/4.1.2/libgcc.a(_si_to_sf.o)
 .data          0x0804164c        0x0 /package/eda/altera/altera13.0sp1/nios2eds/bin/gnu/H-i686-pc-linux-gnu/bin/../lib/gcc/nios2-elf/4.1.2/libgcc.a(_sf_to_si.o)
 .data          0x0804164c        0x0 /package/eda/altera/altera13.0sp1/nios2eds/bin/gnu/H-i686-pc-linux-gnu/bin/../lib/gcc/nios2-elf/4.1.2/libgcc.a(_thenan_sf.o)
 .data          0x0804164c        0x0 /package/eda/altera/altera13.0sp1/nios2eds/bin/gnu/H-i686-pc-linux-gnu/bin/../lib/gcc/nios2-elf/4.1.2/libgcc.a(_mul_df.o)
 .data          0x0804164c        0x0 /package/eda/altera/altera13.0sp1/nios2eds/bin/gnu/H-i686-pc-linux-gnu/bin/../lib/gcc/nios2-elf/4.1.2/libgcc.a(_div_df.o)
 .data          0x0804164c        0x0 /package/eda/altera/altera13.0sp1/nios2eds/bin/gnu/H-i686-pc-linux-gnu/bin/../lib/gcc/nios2-elf/4.1.2/libgcc.a(_df_to_sf.o)
 .data          0x0804164c        0x0 /package/eda/altera/altera13.0sp1/nios2eds/bin/gnu/H-i686-pc-linux-gnu/bin/../lib/gcc/nios2-elf/4.1.2/libgcc.a(_thenan_df.o)
 .data          0x0804164c        0x0 /package/eda/altera/altera13.0sp1/nios2eds/bin/gnu/H-i686-pc-linux-gnu/bin/../lib/gcc/nios2-elf/4.1.2/libgcc.a(_usi_to_df.o)
 .data          0x0804164c        0x0 /package/eda/altera/altera13.0sp1/nios2eds/bin/gnu/H-i686-pc-linux-gnu/bin/../lib/gcc/nios2-elf/4.1.2/libgcc.a(lib2-divmod.o)
 .data          0x0804164c      0x100 /package/eda/altera/altera13.0sp1/nios2eds/bin/gnu/H-i686-pc-linux-gnu/bin/../lib/gcc/nios2-elf/4.1.2/libgcc.a(lib2-divtable.o)
                0x0804164c                __divsi3_table
 .data          0x0804174c        0x0 /package/eda/altera/altera13.0sp1/nios2eds/bin/gnu/H-i686-pc-linux-gnu/bin/../lib/gcc/nios2-elf/4.1.2/libgcc.a(_muldi3.o)
 .data          0x0804174c        0x0 /package/eda/altera/altera13.0sp1/nios2eds/bin/gnu/H-i686-pc-linux-gnu/bin/../lib/gcc/nios2-elf/4.1.2/libgcc.a(_clzsi2.o)
 .data          0x0804174c        0x0 /package/eda/altera/altera13.0sp1/nios2eds/bin/gnu/H-i686-pc-linux-gnu/bin/../lib/gcc/nios2-elf/4.1.2/libgcc.a(_pack_sf.o)
 .data          0x0804174c        0x0 /package/eda/altera/altera13.0sp1/nios2eds/bin/gnu/H-i686-pc-linux-gnu/bin/../lib/gcc/nios2-elf/4.1.2/libgcc.a(_unpack_sf.o)
 .data          0x0804174c        0x0 /package/eda/altera/altera13.0sp1/nios2eds/bin/gnu/H-i686-pc-linux-gnu/bin/../lib/gcc/nios2-elf/4.1.2/libgcc.a(_make_sf.o)
 .data          0x0804174c        0x0 /package/eda/altera/altera13.0sp1/nios2eds/bin/gnu/H-i686-pc-linux-gnu/bin/../lib/gcc/nios2-elf/4.1.2/libgcc.a(_pack_df.o)
 .data          0x0804174c        0x0 /package/eda/altera/altera13.0sp1/nios2eds/bin/gnu/H-i686-pc-linux-gnu/bin/../lib/gcc/nios2-elf/4.1.2/libgcc.a(_unpack_df.o)
 .data          0x0804174c        0x0 /package/eda/altera/altera13.0sp1/nios2eds/bin/gnu/H-i686-pc-linux-gnu/bin/../lib/gcc/nios2-elf/4.1.2/libgcc.a(_clz.o)
 .data          0x0804174c        0x0 /package/eda/altera/altera13.0sp1/nios2eds/bin/gnu/H-i686-pc-linux-gnu/bin/../lib/gcc/nios2-elf/4.1.2/../../../../nios2-elf/lib/libc.a(lib_a-ctype_.o)
 .data          0x0804174c        0x0 /package/eda/altera/altera13.0sp1/nios2eds/bin/gnu/H-i686-pc-linux-gnu/bin/../lib/gcc/nios2-elf/4.1.2/../../../../nios2-elf/lib/libc.a(lib_a-exit.o)
 .data          0x0804174c        0x0 /package/eda/altera/altera13.0sp1/nios2eds/bin/gnu/H-i686-pc-linux-gnu/bin/../lib/gcc/nios2-elf/4.1.2/../../../../nios2-elf/lib/libc.a(lib_a-fclose.o)
 .data          0x0804174c        0x0 /package/eda/altera/altera13.0sp1/nios2eds/bin/gnu/H-i686-pc-linux-gnu/bin/../lib/gcc/nios2-elf/4.1.2/../../../../nios2-elf/lib/libc.a(lib_a-fflush.o)
 .data          0x0804174c        0x0 /package/eda/altera/altera13.0sp1/nios2eds/bin/gnu/H-i686-pc-linux-gnu/bin/../lib/gcc/nios2-elf/4.1.2/../../../../nios2-elf/lib/libc.a(lib_a-findfp.o)
 .data          0x0804174c        0x0 /package/eda/altera/altera13.0sp1/nios2eds/bin/gnu/H-i686-pc-linux-gnu/bin/../lib/gcc/nios2-elf/4.1.2/../../../../nios2-elf/lib/libc.a(lib_a-fopen.o)
 .data          0x0804174c        0x0 /package/eda/altera/altera13.0sp1/nios2eds/bin/gnu/H-i686-pc-linux-gnu/bin/../lib/gcc/nios2-elf/4.1.2/../../../../nios2-elf/lib/libc.a(lib_a-fprintf.o)
 .data          0x0804174c        0x0 /package/eda/altera/altera13.0sp1/nios2eds/bin/gnu/H-i686-pc-linux-gnu/bin/../lib/gcc/nios2-elf/4.1.2/../../../../nios2-elf/lib/libc.a(lib_a-fputc.o)
 .data          0x0804174c        0x0 /package/eda/altera/altera13.0sp1/nios2eds/bin/gnu/H-i686-pc-linux-gnu/bin/../lib/gcc/nios2-elf/4.1.2/../../../../nios2-elf/lib/libc.a(lib_a-fread.o)
 .data          0x0804174c        0x0 /package/eda/altera/altera13.0sp1/nios2eds/bin/gnu/H-i686-pc-linux-gnu/bin/../lib/gcc/nios2-elf/4.1.2/../../../../nios2-elf/lib/libc.a(lib_a-freer.o)
 .data          0x0804174c        0x0 /package/eda/altera/altera13.0sp1/nios2eds/bin/gnu/H-i686-pc-linux-gnu/bin/../lib/gcc/nios2-elf/4.1.2/../../../../nios2-elf/lib/libc.a(lib_a-fseek.o)
 .data          0x0804174c        0x0 /package/eda/altera/altera13.0sp1/nios2eds/bin/gnu/H-i686-pc-linux-gnu/bin/../lib/gcc/nios2-elf/4.1.2/../../../../nios2-elf/lib/libc.a(lib_a-fstatr.o)
 .data          0x0804174c        0x0 /package/eda/altera/altera13.0sp1/nios2eds/bin/gnu/H-i686-pc-linux-gnu/bin/../lib/gcc/nios2-elf/4.1.2/../../../../nios2-elf/lib/libc.a(lib_a-fwalk.o)
 .data          0x0804174c        0x0 /package/eda/altera/altera13.0sp1/nios2eds/bin/gnu/H-i686-pc-linux-gnu/bin/../lib/gcc/nios2-elf/4.1.2/../../../../nios2-elf/lib/libc.a(lib_a-fwrite.o)
 .data          0x0804174c        0x0 /package/eda/altera/altera13.0sp1/nios2eds/bin/gnu/H-i686-pc-linux-gnu/bin/../lib/gcc/nios2-elf/4.1.2/../../../../nios2-elf/lib/libc.a(lib_a-getc.o)
 .data          0x0804174c        0x0 /package/eda/altera/altera13.0sp1/nios2eds/bin/gnu/H-i686-pc-linux-gnu/bin/../lib/gcc/nios2-elf/4.1.2/../../../../nios2-elf/lib/libc.a(lib_a-getenv.o)
 .data          0x0804174c        0x0 /package/eda/altera/altera13.0sp1/nios2eds/bin/gnu/H-i686-pc-linux-gnu/bin/../lib/gcc/nios2-elf/4.1.2/../../../../nios2-elf/lib/libc.a(lib_a-getenv_r.o)
 .data          0x0804174c      0x400 /package/eda/altera/altera13.0sp1/nios2eds/bin/gnu/H-i686-pc-linux-gnu/bin/../lib/gcc/nios2-elf/4.1.2/../../../../nios2-elf/lib/libc.a(lib_a-impure.o)
 .data          0x08041b4c        0x0 /package/eda/altera/altera13.0sp1/nios2eds/bin/gnu/H-i686-pc-linux-gnu/bin/../lib/gcc/nios2-elf/4.1.2/../../../../nios2-elf/lib/libc.a(lib_a-int_errno.o)
 .data          0x08041b4c        0x0 /package/eda/altera/altera13.0sp1/nios2eds/bin/gnu/H-i686-pc-linux-gnu/bin/../lib/gcc/nios2-elf/4.1.2/../../../../nios2-elf/lib/libc.a(lib_a-makebuf.o)
 .data          0x08041b4c        0x0 /package/eda/altera/altera13.0sp1/nios2eds/bin/gnu/H-i686-pc-linux-gnu/bin/../lib/gcc/nios2-elf/4.1.2/../../../../nios2-elf/lib/libc.a(lib_a-malloc.o)
 .data          0x08041b4c      0x408 /package/eda/altera/altera13.0sp1/nios2eds/bin/gnu/H-i686-pc-linux-gnu/bin/../lib/gcc/nios2-elf/4.1.2/../../../../nios2-elf/lib/libc.a(lib_a-mallocr.o)
                0x08041b4c                __malloc_av_
 .data          0x08041f54        0x0 /package/eda/altera/altera13.0sp1/nios2eds/bin/gnu/H-i686-pc-linux-gnu/bin/../lib/gcc/nios2-elf/4.1.2/../../../../nios2-elf/lib/libc.a(lib_a-memcpy.o)
 .data          0x08041f54        0x0 /package/eda/altera/altera13.0sp1/nios2eds/bin/gnu/H-i686-pc-linux-gnu/bin/../lib/gcc/nios2-elf/4.1.2/../../../../nios2-elf/lib/libc.a(lib_a-memset.o)
 .data          0x08041f54        0x0 /package/eda/altera/altera13.0sp1/nios2eds/bin/gnu/H-i686-pc-linux-gnu/bin/../lib/gcc/nios2-elf/4.1.2/../../../../nios2-elf/lib/libc.a(lib_a-openr.o)
 .data          0x08041f54        0x0 /package/eda/altera/altera13.0sp1/nios2eds/bin/gnu/H-i686-pc-linux-gnu/bin/../lib/gcc/nios2-elf/4.1.2/../../../../nios2-elf/lib/libc.a(lib_a-printf.o)
 .data          0x08041f54        0x0 /package/eda/altera/altera13.0sp1/nios2eds/bin/gnu/H-i686-pc-linux-gnu/bin/../lib/gcc/nios2-elf/4.1.2/../../../../nios2-elf/lib/libc.a(lib_a-putc.o)
 .data          0x08041f54        0x0 /package/eda/altera/altera13.0sp1/nios2eds/bin/gnu/H-i686-pc-linux-gnu/bin/../lib/gcc/nios2-elf/4.1.2/../../../../nios2-elf/lib/libc.a(lib_a-puts.o)
 .data          0x08041f54        0x0 /package/eda/altera/altera13.0sp1/nios2eds/bin/gnu/H-i686-pc-linux-gnu/bin/../lib/gcc/nios2-elf/4.1.2/../../../../nios2-elf/lib/libc.a(lib_a-refill.o)
 .data          0x08041f54        0x0 /package/eda/altera/altera13.0sp1/nios2eds/bin/gnu/H-i686-pc-linux-gnu/bin/../lib/gcc/nios2-elf/4.1.2/../../../../nios2-elf/lib/libc.a(lib_a-rget.o)
 .data          0x08041f54        0x0 /package/eda/altera/altera13.0sp1/nios2eds/bin/gnu/H-i686-pc-linux-gnu/bin/../lib/gcc/nios2-elf/4.1.2/../../../../nios2-elf/lib/libc.a(lib_a-sbrkr.o)
 .data          0x08041f54        0x0 /package/eda/altera/altera13.0sp1/nios2eds/bin/gnu/H-i686-pc-linux-gnu/bin/../lib/gcc/nios2-elf/4.1.2/../../../../nios2-elf/lib/libc.a(lib_a-sprintf.o)
 .data          0x08041f54        0x0 /package/eda/altera/altera13.0sp1/nios2eds/bin/gnu/H-i686-pc-linux-gnu/bin/../lib/gcc/nios2-elf/4.1.2/../../../../nios2-elf/lib/libc.a(lib_a-sscanf.o)
 .data          0x08041f54        0x0 /package/eda/altera/altera13.0sp1/nios2eds/bin/gnu/H-i686-pc-linux-gnu/bin/../lib/gcc/nios2-elf/4.1.2/../../../../nios2-elf/lib/libc.a(lib_a-stdio.o)
 .data          0x08041f54        0x0 /package/eda/altera/altera13.0sp1/nios2eds/bin/gnu/H-i686-pc-linux-gnu/bin/../lib/gcc/nios2-elf/4.1.2/../../../../nios2-elf/lib/libc.a(lib_a-strdup.o)
 .data          0x08041f54        0x0 /package/eda/altera/altera13.0sp1/nios2eds/bin/gnu/H-i686-pc-linux-gnu/bin/../lib/gcc/nios2-elf/4.1.2/../../../../nios2-elf/lib/libc.a(lib_a-strdup_r.o)
 .data          0x08041f54        0x0 /package/eda/altera/altera13.0sp1/nios2eds/bin/gnu/H-i686-pc-linux-gnu/bin/../lib/gcc/nios2-elf/4.1.2/../../../../nios2-elf/lib/libc.a(lib_a-strlen.o)
 .data          0x08041f54        0x0 /package/eda/altera/altera13.0sp1/nios2eds/bin/gnu/H-i686-pc-linux-gnu/bin/../lib/gcc/nios2-elf/4.1.2/../../../../nios2-elf/lib/libc.a(lib_a-strncmp.o)
 .data          0x08041f54        0x0 /package/eda/altera/altera13.0sp1/nios2eds/bin/gnu/H-i686-pc-linux-gnu/bin/../lib/gcc/nios2-elf/4.1.2/../../../../nios2-elf/lib/libc.a(lib_a-vfprintf.o)
 .data          0x08041f54        0x0 /package/eda/altera/altera13.0sp1/nios2eds/bin/gnu/H-i686-pc-linux-gnu/bin/../lib/gcc/nios2-elf/4.1.2/../../../../nios2-elf/lib/libc.a(lib_a-vfscanf.o)
 .data          0x08041f54        0x0 /package/eda/altera/altera13.0sp1/nios2eds/bin/gnu/H-i686-pc-linux-gnu/bin/../lib/gcc/nios2-elf/4.1.2/../../../../nios2-elf/lib/libc.a(lib_a-wbuf.o)
 .data          0x08041f54        0x0 /package/eda/altera/altera13.0sp1/nios2eds/bin/gnu/H-i686-pc-linux-gnu/bin/../lib/gcc/nios2-elf/4.1.2/../../../../nios2-elf/lib/libc.a(lib_a-writer.o)
 .data          0x08041f54        0x0 /package/eda/altera/altera13.0sp1/nios2eds/bin/gnu/H-i686-pc-linux-gnu/bin/../lib/gcc/nios2-elf/4.1.2/../../../../nios2-elf/lib/libc.a(lib_a-wsetup.o)
 .data          0x08041f54        0x0 /package/eda/altera/altera13.0sp1/nios2eds/bin/gnu/H-i686-pc-linux-gnu/bin/../lib/gcc/nios2-elf/4.1.2/../../../../nios2-elf/lib/libc.a(lib_a-__call_atexit.o)
 .data          0x08041f54        0x0 /package/eda/altera/altera13.0sp1/nios2eds/bin/gnu/H-i686-pc-linux-gnu/bin/../lib/gcc/nios2-elf/4.1.2/../../../../nios2-elf/lib/libc.a(lib_a-closer.o)
 .data          0x08041f54        0x0 /package/eda/altera/altera13.0sp1/nios2eds/bin/gnu/H-i686-pc-linux-gnu/bin/../lib/gcc/nios2-elf/4.1.2/../../../../nios2-elf/lib/libc.a(lib_a-dtoa.o)
 .data          0x08041f54        0x0 /package/eda/altera/altera13.0sp1/nios2eds/bin/gnu/H-i686-pc-linux-gnu/bin/../lib/gcc/nios2-elf/4.1.2/../../../../nios2-elf/lib/libc.a(lib_a-environ.o)
 .data          0x08041f54        0x0 /package/eda/altera/altera13.0sp1/nios2eds/bin/gnu/H-i686-pc-linux-gnu/bin/../lib/gcc/nios2-elf/4.1.2/../../../../nios2-elf/lib/libc.a(lib_a-flags.o)
 .data          0x08041f54        0x0 /package/eda/altera/altera13.0sp1/nios2eds/bin/gnu/H-i686-pc-linux-gnu/bin/../lib/gcc/nios2-elf/4.1.2/../../../../nios2-elf/lib/libc.a(lib_a-fvwrite.o)
 .data          0x08041f54        0x0 /package/eda/altera/altera13.0sp1/nios2eds/bin/gnu/H-i686-pc-linux-gnu/bin/../lib/gcc/nios2-elf/4.1.2/../../../../nios2-elf/lib/libc.a(lib_a-isattyr.o)
 .data          0x08041f54        0x0 /package/eda/altera/altera13.0sp1/nios2eds/bin/gnu/H-i686-pc-linux-gnu/bin/../lib/gcc/nios2-elf/4.1.2/../../../../nios2-elf/lib/libc.a(lib_a-iswspace.o)
 .data          0x08041f54        0xc /package/eda/altera/altera13.0sp1/nios2eds/bin/gnu/H-i686-pc-linux-gnu/bin/../lib/gcc/nios2-elf/4.1.2/../../../../nios2-elf/lib/libc.a(lib_a-locale.o)
                0x08041f54                __lc_ctype
 .data          0x08041f60        0x0 /package/eda/altera/altera13.0sp1/nios2eds/bin/gnu/H-i686-pc-linux-gnu/bin/../lib/gcc/nios2-elf/4.1.2/../../../../nios2-elf/lib/libc.a(lib_a-lseekr.o)
 .data          0x08041f60        0x0 /package/eda/altera/altera13.0sp1/nios2eds/bin/gnu/H-i686-pc-linux-gnu/bin/../lib/gcc/nios2-elf/4.1.2/../../../../nios2-elf/lib/libc.a(lib_a-mbrtowc.o)
 .data          0x08041f60        0x0 /package/eda/altera/altera13.0sp1/nios2eds/bin/gnu/H-i686-pc-linux-gnu/bin/../lib/gcc/nios2-elf/4.1.2/../../../../nios2-elf/lib/libc.a(lib_a-mbtowc_r.o)
 .data          0x08041f60        0x0 /package/eda/altera/altera13.0sp1/nios2eds/bin/gnu/H-i686-pc-linux-gnu/bin/../lib/gcc/nios2-elf/4.1.2/../../../../nios2-elf/lib/libc.a(lib_a-memchr.o)
 .data          0x08041f60        0x0 /package/eda/altera/altera13.0sp1/nios2eds/bin/gnu/H-i686-pc-linux-gnu/bin/../lib/gcc/nios2-elf/4.1.2/../../../../nios2-elf/lib/libc.a(lib_a-memmove.o)
 .data          0x08041f60        0x0 /package/eda/altera/altera13.0sp1/nios2eds/bin/gnu/H-i686-pc-linux-gnu/bin/../lib/gcc/nios2-elf/4.1.2/../../../../nios2-elf/lib/libc.a(lib_a-mprec.o)
 .data          0x08041f60        0x0 /package/eda/altera/altera13.0sp1/nios2eds/bin/gnu/H-i686-pc-linux-gnu/bin/../lib/gcc/nios2-elf/4.1.2/../../../../nios2-elf/lib/libc.a(lib_a-readr.o)
 .data          0x08041f60        0x0 /package/eda/altera/altera13.0sp1/nios2eds/bin/gnu/H-i686-pc-linux-gnu/bin/../lib/gcc/nios2-elf/4.1.2/../../../../nios2-elf/lib/libc.a(lib_a-reallocr.o)
 .data          0x08041f60        0x0 /package/eda/altera/altera13.0sp1/nios2eds/bin/gnu/H-i686-pc-linux-gnu/bin/../lib/gcc/nios2-elf/4.1.2/../../../../nios2-elf/lib/libc.a(lib_a-s_isinfd.o)
 .data          0x08041f60        0x0 /package/eda/altera/altera13.0sp1/nios2eds/bin/gnu/H-i686-pc-linux-gnu/bin/../lib/gcc/nios2-elf/4.1.2/../../../../nios2-elf/lib/libc.a(lib_a-s_isnand.o)
 .data          0x08041f60        0x0 /package/eda/altera/altera13.0sp1/nios2eds/bin/gnu/H-i686-pc-linux-gnu/bin/../lib/gcc/nios2-elf/4.1.2/../../../../nios2-elf/lib/libc.a(lib_a-sccl.o)
 .data          0x08041f60        0x0 /package/eda/altera/altera13.0sp1/nios2eds/bin/gnu/H-i686-pc-linux-gnu/bin/../lib/gcc/nios2-elf/4.1.2/../../../../nios2-elf/lib/libc.a(lib_a-sf_nan.o)
 .data          0x08041f60        0x0 /package/eda/altera/altera13.0sp1/nios2eds/bin/gnu/H-i686-pc-linux-gnu/bin/../lib/gcc/nios2-elf/4.1.2/../../../../nios2-elf/lib/libc.a(lib_a-strcmp.o)
 .data          0x08041f60       0x28 /package/eda/altera/altera13.0sp1/nios2eds/bin/gnu/H-i686-pc-linux-gnu/bin/../lib/gcc/nios2-elf/4.1.2/../../../../nios2-elf/lib/libc.a(lib_a-strtod.o)
 .data          0x08041f88        0x0 /package/eda/altera/altera13.0sp1/nios2eds/bin/gnu/H-i686-pc-linux-gnu/bin/../lib/gcc/nios2-elf/4.1.2/../../../../nios2-elf/lib/libc.a(lib_a-strtol.o)
 .data          0x08041f88        0x0 /package/eda/altera/altera13.0sp1/nios2eds/bin/gnu/H-i686-pc-linux-gnu/bin/../lib/gcc/nios2-elf/4.1.2/../../../../nios2-elf/lib/libc.a(lib_a-strtoll_r.o)
 .data          0x08041f88        0x0 /package/eda/altera/altera13.0sp1/nios2eds/bin/gnu/H-i686-pc-linux-gnu/bin/../lib/gcc/nios2-elf/4.1.2/../../../../nios2-elf/lib/libc.a(lib_a-strtoul.o)
 .data          0x08041f88        0x0 /package/eda/altera/altera13.0sp1/nios2eds/bin/gnu/H-i686-pc-linux-gnu/bin/../lib/gcc/nios2-elf/4.1.2/../../../../nios2-elf/lib/libc.a(lib_a-strtoull_r.o)
 .data          0x08041f88        0x0 /package/eda/altera/altera13.0sp1/nios2eds/bin/gnu/H-i686-pc-linux-gnu/bin/../lib/gcc/nios2-elf/4.1.2/../../../../nios2-elf/lib/libc.a(lib_a-ungetc.o)
 .data          0x08041f88        0x0 /package/eda/altera/altera13.0sp1/nios2eds/bin/gnu/H-i686-pc-linux-gnu/bin/../lib/gcc/nios2-elf/4.1.2/../../../../nios2-elf/lib/libc.a(lib_a-callocr.o)
 .data          0x08041f88        0x0 /package/eda/altera/altera13.0sp1/nios2eds/bin/gnu/H-i686-pc-linux-gnu/bin/../lib/gcc/nios2-elf/4.1.2/../../../../nios2-elf/lib/libc.a(lib_a-gdtoa-gethex.o)
 .data          0x08041f88        0x0 /package/eda/altera/altera13.0sp1/nios2eds/bin/gnu/H-i686-pc-linux-gnu/bin/../lib/gcc/nios2-elf/4.1.2/../../../../nios2-elf/lib/libc.a(lib_a-gdtoa-hexnan.o)
 .data          0x08041f88        0x0 /package/eda/altera/altera13.0sp1/nios2eds/bin/gnu/H-i686-pc-linux-gnu/bin/../lib/gcc/nios2-elf/4.1.2/libgcc.a(_fixunsdfsi.o)
 .data          0x08041f88        0x0 /package/eda/altera/altera13.0sp1/nios2eds/bin/gnu/H-i686-pc-linux-gnu/bin/../lib/gcc/nios2-elf/4.1.2/libgcc.a(_udivdi3.o)
 .data          0x08041f88        0x0 /package/eda/altera/altera13.0sp1/nios2eds/bin/gnu/H-i686-pc-linux-gnu/bin/../lib/gcc/nios2-elf/4.1.2/libgcc.a(_umoddi3.o)
 .data          0x08041f88        0x0 /package/eda/altera/altera13.0sp1/nios2eds/bin/gnu/H-i686-pc-linux-gnu/bin/../lib/gcc/nios2-elf/4.1.2/libgcc.a(_ne_sf.o)
 .data          0x08041f88        0x0 /package/eda/altera/altera13.0sp1/nios2eds/bin/gnu/H-i686-pc-linux-gnu/bin/../lib/gcc/nios2-elf/4.1.2/libgcc.a(_gt_sf.o)
 .data          0x08041f88        0x0 /package/eda/altera/altera13.0sp1/nios2eds/bin/gnu/H-i686-pc-linux-gnu/bin/../lib/gcc/nios2-elf/4.1.2/libgcc.a(_lt_sf.o)
 .data          0x08041f88        0x0 /package/eda/altera/altera13.0sp1/nios2eds/bin/gnu/H-i686-pc-linux-gnu/bin/../lib/gcc/nios2-elf/4.1.2/libgcc.a(_addsub_df.o)
 .data          0x08041f88        0x0 /package/eda/altera/altera13.0sp1/nios2eds/bin/gnu/H-i686-pc-linux-gnu/bin/../lib/gcc/nios2-elf/4.1.2/libgcc.a(_eq_df.o)
 .data          0x08041f88        0x0 /package/eda/altera/altera13.0sp1/nios2eds/bin/gnu/H-i686-pc-linux-gnu/bin/../lib/gcc/nios2-elf/4.1.2/libgcc.a(_ne_df.o)
 .data          0x08041f88        0x0 /package/eda/altera/altera13.0sp1/nios2eds/bin/gnu/H-i686-pc-linux-gnu/bin/../lib/gcc/nios2-elf/4.1.2/libgcc.a(_gt_df.o)
 .data          0x08041f88        0x0 /package/eda/altera/altera13.0sp1/nios2eds/bin/gnu/H-i686-pc-linux-gnu/bin/../lib/gcc/nios2-elf/4.1.2/libgcc.a(_ge_df.o)
 .data          0x08041f88        0x0 /package/eda/altera/altera13.0sp1/nios2eds/bin/gnu/H-i686-pc-linux-gnu/bin/../lib/gcc/nios2-elf/4.1.2/libgcc.a(_lt_df.o)
 .data          0x08041f88        0x0 /package/eda/altera/altera13.0sp1/nios2eds/bin/gnu/H-i686-pc-linux-gnu/bin/../lib/gcc/nios2-elf/4.1.2/libgcc.a(_le_df.o)
 .data          0x08041f88        0x0 /package/eda/altera/altera13.0sp1/nios2eds/bin/gnu/H-i686-pc-linux-gnu/bin/../lib/gcc/nios2-elf/4.1.2/libgcc.a(_si_to_df.o)
 .data          0x08041f88        0x0 /package/eda/altera/altera13.0sp1/nios2eds/bin/gnu/H-i686-pc-linux-gnu/bin/../lib/gcc/nios2-elf/4.1.2/libgcc.a(_df_to_si.o)
 .data          0x08041f88        0x0 /package/eda/altera/altera13.0sp1/nios2eds/bin/gnu/H-i686-pc-linux-gnu/bin/../lib/gcc/nios2-elf/4.1.2/libgcc.a(_fpcmp_parts_sf.o)
 .data          0x08041f88        0x0 /package/eda/altera/altera13.0sp1/nios2eds/bin/gnu/H-i686-pc-linux-gnu/bin/../lib/gcc/nios2-elf/4.1.2/libgcc.a(_fpcmp_parts_df.o)
 .data          0x08041f88        0x0 ../demo_board_NiosIIf_bsp//libhal_bsp.a(alt_close.o)
 .data          0x08041f88        0x0 ../demo_board_NiosIIf_bsp//libhal_bsp.a(alt_dcache_flush.o)
 .data          0x08041f88      0x1a8 ../demo_board_NiosIIf_bsp//libhal_bsp.a(alt_dev.o)
                0x08041f88                alt_dev_null
                0x08041fb0                alt_fd_list
 .data          0x08042130        0x0 ../demo_board_NiosIIf_bsp//libhal_bsp.a(alt_env_lock.o)
 .data          0x08042130        0x0 ../demo_board_NiosIIf_bsp//libhal_bsp.a(alt_errno.o)
 .data          0x08042130        0x0 ../demo_board_NiosIIf_bsp//libhal_bsp.a(alt_exit.o)
 .data          0x08042130        0x0 ../demo_board_NiosIIf_bsp//libhal_bsp.a(alt_fstat.o)
 .data          0x08042130        0x0 ../demo_board_NiosIIf_bsp//libhal_bsp.a(alt_isatty.o)
 .data          0x08042130        0x0 ../demo_board_NiosIIf_bsp//libhal_bsp.a(alt_load.o)
 .data          0x08042130        0x0 ../demo_board_NiosIIf_bsp//libhal_bsp.a(alt_lseek.o)
 .data          0x08042130        0x0 ../demo_board_NiosIIf_bsp//libhal_bsp.a(alt_main.o)
 .data          0x08042130        0x0 ../demo_board_NiosIIf_bsp//libhal_bsp.a(alt_malloc_lock.o)
 .data          0x08042130        0x0 ../demo_board_NiosIIf_bsp//libhal_bsp.a(alt_open.o)
 .data          0x08042130        0x0 ../demo_board_NiosIIf_bsp//libhal_bsp.a(alt_read.o)
 .data          0x08042130        0x0 ../demo_board_NiosIIf_bsp//libhal_bsp.a(alt_release_fd.o)
 .data          0x08042130        0x0 ../demo_board_NiosIIf_bsp//libhal_bsp.a(alt_sbrk.o)
 .data          0x08042130        0x0 ../demo_board_NiosIIf_bsp//libhal_bsp.a(alt_write.o)
 .data          0x08042130     0x11bc ../demo_board_NiosIIf_bsp//libhal_bsp.a(alt_sys_init.o)
 .data          0x080432ec        0x0 ../demo_board_NiosIIf_bsp//libhal_bsp.a(altera_avalon_cfi_flash.o)
 .data          0x080432ec        0x0 ../demo_board_NiosIIf_bsp//libhal_bsp.a(altera_avalon_cfi_flash_table.o)
 .data          0x080432ec        0x0 ../demo_board_NiosIIf_bsp//libhal_bsp.a(altera_avalon_jtag_uart_fd.o)
 .data          0x080432ec        0x0 ../demo_board_NiosIIf_bsp//libhal_bsp.a(altera_avalon_jtag_uart_init.o)
 .data          0x080432ec        0x0 ../demo_board_NiosIIf_bsp//libhal_bsp.a(altera_avalon_jtag_uart_ioctl.o)
 .data          0x080432ec        0x0 ../demo_board_NiosIIf_bsp//libhal_bsp.a(altera_avalon_jtag_uart_read.o)
 .data          0x080432ec        0x0 ../demo_board_NiosIIf_bsp//libhal_bsp.a(altera_avalon_jtag_uart_write.o)
 .data          0x080432ec        0x0 ../demo_board_NiosIIf_bsp//libhal_bsp.a(altera_avalon_performance_counter.o)
 .data          0x080432ec        0x0 ../demo_board_NiosIIf_bsp//libhal_bsp.a(altera_avalon_timer_sc.o)
 .data          0x080432ec        0x0 ../demo_board_NiosIIf_bsp//libhal_bsp.a(altera_ro_zipfs.o)
 .data          0x080432ec        0x0 ../demo_board_NiosIIf_bsp//libhal_bsp.a(altera_up_avalon_video_pixel_buffer_dma.o)
 .data          0x080432ec        0x0 ../demo_board_NiosIIf_bsp//libhal_bsp.a(perf_print_formatted_report.o)
 .data          0x080432ec        0x0 ../demo_board_NiosIIf_bsp//libhal_bsp.a(alt_alarm_start.o)
 .data          0x080432ec        0x0 ../demo_board_NiosIIf_bsp//libhal_bsp.a(alt_dcache_flush_all.o)
 .data          0x080432ec        0x0 ../demo_board_NiosIIf_bsp//libhal_bsp.a(alt_dev_llist_insert.o)
 .data          0x080432ec        0x0 ../demo_board_NiosIIf_bsp//libhal_bsp.a(alt_do_ctors.o)
 .data          0x080432ec        0x0 ../demo_board_NiosIIf_bsp//libhal_bsp.a(alt_do_dtors.o)
 .data          0x080432ec        0x0 ../demo_board_NiosIIf_bsp//libhal_bsp.a(alt_find_dev.o)
 .data          0x080432ec        0x0 ../demo_board_NiosIIf_bsp//libhal_bsp.a(alt_find_file.o)
 .data          0x080432ec        0x0 ../demo_board_NiosIIf_bsp//libhal_bsp.a(alt_flash_dev.o)
 .data          0x080432ec        0x0 ../demo_board_NiosIIf_bsp//libhal_bsp.a(alt_fs_reg.o)
 .data          0x080432ec        0x0 ../demo_board_NiosIIf_bsp//libhal_bsp.a(alt_get_fd.o)
 .data          0x080432ec        0x0 ../demo_board_NiosIIf_bsp//libhal_bsp.a(alt_icache_flush_all.o)
 .data          0x080432ec        0x0 ../demo_board_NiosIIf_bsp//libhal_bsp.a(alt_iic.o)
 .data          0x080432ec        0x0 ../demo_board_NiosIIf_bsp//libhal_bsp.a(alt_iic_isr_register.o)
 .data          0x080432ec        0x0 ../demo_board_NiosIIf_bsp//libhal_bsp.a(alt_io_redirect.o)
 .data          0x080432ec        0x0 ../demo_board_NiosIIf_bsp//libhal_bsp.a(alt_irq_entry.o)
 .data          0x080432ec        0x0 ../demo_board_NiosIIf_bsp//libhal_bsp.a(alt_irq_handler.o)
 .data          0x080432ec        0x0 ../demo_board_NiosIIf_bsp//libhal_bsp.a(alt_irq_vars.o)
 .data          0x080432ec        0x0 ../demo_board_NiosIIf_bsp//libhal_bsp.a(alt_tick.o)
 .data          0x080432ec        0x0 ../demo_board_NiosIIf_bsp//libhal_bsp.a(altera_nios2_qsys_irq.o)
 .data          0x080432ec        0x0 ../demo_board_NiosIIf_bsp//libhal_bsp.a(altera_avalon_cfi_flash_amd.o)
 .data          0x080432ec        0x0 ../demo_board_NiosIIf_bsp//libhal_bsp.a(altera_avalon_cfi_flash_intel.o)
 .data          0x080432ec        0x0 ../demo_board_NiosIIf_bsp//libhal_bsp.a(alt_exception_entry.o)
 .data          0x080432ec        0x0 ../demo_board_NiosIIf_bsp//libhal_bsp.a(alt_icache_flush.o)
 .data          0x080432ec        0x0 ../demo_board_NiosIIf_bsp//libhal_bsp.a(alt_usleep.o)
 .data          0x080432ec        0x0 ../demo_board_NiosIIf_bsp//libhal_bsp.a(alt_busy_sleep.o)
 .data          0x080432ec        0x0 /package/eda/altera/altera13.0sp1/nios2eds/bin/gnu/H-i686-pc-linux-gnu/bin/../lib/gcc/nios2-elf/4.1.2/../../../../nios2-elf/lib/libc.a(lib_a-atexit.o)
 .data          0x080432ec        0x0 /package/eda/altera/altera13.0sp1/nios2eds/bin/gnu/H-i686-pc-linux-gnu/bin/../lib/gcc/nios2-elf/4.1.2/../../../../nios2-elf/lib/libc.a(lib_a-memcmp.o)
 .data          0x080432ec        0x0 /package/eda/altera/altera13.0sp1/nios2eds/bin/gnu/H-i686-pc-linux-gnu/bin/../lib/gcc/nios2-elf/4.1.2/../../../../nios2-elf/lib/libc.a(lib_a-__atexit.o)
 .data          0x080432ec        0x0 /package/eda/altera/altera13.0sp1/nios2eds/bin/gnu/H-i686-pc-linux-gnu/bin/../lib/gcc/nios2-elf/4.1.2/libgcc.a(_floatundidf.o)
                0x0804b2ec                _gp = ABSOLUTE ((. + 0x8000))
                0x0804b2ec                PROVIDE (gp, _gp)
 *(.rwdata .rwdata.*)
 *(.sdata .sdata.* .gnu.linkonce.s.*)
 .sdata         0x080432ec       0x10 obj/default/jmemmgr.o
 .sdata         0x080432fc        0x4 /package/eda/altera/altera13.0sp1/nios2eds/bin/gnu/H-i686-pc-linux-gnu/bin/../lib/gcc/nios2-elf/4.1.2/../../../../nios2-elf/lib/libc.a(lib_a-ctype_.o)
                0x080432fc                __ctype_ptr
 .sdata         0x08043300        0x8 /package/eda/altera/altera13.0sp1/nios2eds/bin/gnu/H-i686-pc-linux-gnu/bin/../lib/gcc/nios2-elf/4.1.2/../../../../nios2-elf/lib/libc.a(lib_a-impure.o)
                0x08043300                _impure_ptr
                0x08043304                _global_impure_ptr
 .sdata         0x08043308        0x8 /package/eda/altera/altera13.0sp1/nios2eds/bin/gnu/H-i686-pc-linux-gnu/bin/../lib/gcc/nios2-elf/4.1.2/../../../../nios2-elf/lib/libc.a(lib_a-mallocr.o)
                0x08043308                __malloc_trim_threshold
                0x0804330c                __malloc_sbrk_base
 .sdata         0x08043310        0x4 /package/eda/altera/altera13.0sp1/nios2eds/bin/gnu/H-i686-pc-linux-gnu/bin/../lib/gcc/nios2-elf/4.1.2/../../../../nios2-elf/lib/libc.a(lib_a-environ.o)
                0x08043310                environ
 .sdata         0x08043314        0x8 /package/eda/altera/altera13.0sp1/nios2eds/bin/gnu/H-i686-pc-linux-gnu/bin/../lib/gcc/nios2-elf/4.1.2/../../../../nios2-elf/lib/libc.a(lib_a-locale.o)
                0x08043314                __mb_cur_max
 .sdata         0x0804331c       0x14 ../demo_board_NiosIIf_bsp//libhal_bsp.a(alt_dev.o)
                0x0804331c                alt_fs_list
                0x08043324                alt_dev_list
                0x0804332c                alt_max_fd
 .sdata         0x08043330        0x4 ../demo_board_NiosIIf_bsp//libhal_bsp.a(alt_errno.o)
                0x08043330                alt_errno
 .sdata         0x08043334        0x4 ../demo_board_NiosIIf_bsp//libhal_bsp.a(alt_sbrk.o)
 .sdata         0x08043338        0x8 ../demo_board_NiosIIf_bsp//libhal_bsp.a(alt_flash_dev.o)
                0x08043338                alt_flash_dev_list
 .sdata         0x08043340        0x4 ../demo_board_NiosIIf_bsp//libhal_bsp.a(alt_irq_vars.o)
                0x08043340                alt_priority_mask
 .sdata         0x08043344        0x8 ../demo_board_NiosIIf_bsp//libhal_bsp.a(alt_tick.o)
                0x08043344                alt_alarm_list
 *(.sdata2 .sdata2.* .gnu.linkonce.s2.*)
                0x0804334c                . = ALIGN (0x4)
                0x0804334c                _edata = ABSOLUTE (.)
                0x0804334c                PROVIDE (edata, ABSOLUTE (.))
                0x0804334c                PROVIDE (__ram_rwdata_end, ABSOLUTE (.))
                0x0804334c                PROVIDE (__flash_rwdata_start, LOADADDR (.rwdata))

.bss            0x0804504c      0x400
                0x0804504c                __bss_start = ABSOLUTE (.)
                0x0804504c                PROVIDE (__sbss_start, ABSOLUTE (.))
                0x0804504c                PROVIDE (___sbss_start, ABSOLUTE (.))
 *(.dynsbss)
 *(.sbss .sbss.* .gnu.linkonce.sb.*)
 .sbss          0x0804504c       0x10 obj/default/djpeg.o
 .sbss          0x0804505c        0x4 /package/eda/altera/altera13.0sp1/nios2eds/bin/gnu/H-i686-pc-linux-gnu/bin/../lib/gcc/nios2-elf/4.1.2/../../../../nios2-elf/lib/libc.a(lib_a-int_errno.o)
                0x0804505c                errno
 .sbss          0x08045060        0xc /package/eda/altera/altera13.0sp1/nios2eds/bin/gnu/H-i686-pc-linux-gnu/bin/../lib/gcc/nios2-elf/4.1.2/../../../../nios2-elf/lib/libc.a(lib_a-mallocr.o)
                0x08045060                __malloc_top_pad
                0x08045064                __malloc_max_sbrked_mem
                0x08045068                __malloc_max_total_mem
 .sbss          0x0804506c        0x4 /package/eda/altera/altera13.0sp1/nios2eds/bin/gnu/H-i686-pc-linux-gnu/bin/../lib/gcc/nios2-elf/4.1.2/../../../../nios2-elf/lib/libc.a(lib_a-environ.o)
 .sbss          0x08045070        0xc /package/eda/altera/altera13.0sp1/nios2eds/bin/gnu/H-i686-pc-linux-gnu/bin/../lib/gcc/nios2-elf/4.1.2/../../../../nios2-elf/lib/libc.a(lib_a-locale.o)
                0x08045070                __nlocale_changed
                0x08045074                __mlocale_changed
                0x08045078                _PathLocale
 .sbss          0x0804507c        0xc ../demo_board_NiosIIf_bsp//libhal_bsp.a(alt_main.o)
                0x0804507c                alt_argc
                0x08045080                alt_argv
                0x08045084                alt_envp
 .sbss          0x08045088        0x4 ../demo_board_NiosIIf_bsp//libhal_bsp.a(alt_irq_vars.o)
                0x08045088                alt_irq_active
 .sbss          0x0804508c        0x8 ../demo_board_NiosIIf_bsp//libhal_bsp.a(alt_tick.o)
                0x0804508c                _alt_tick_rate
                0x08045090                _alt_nticks
 *(.sbss2 .sbss2.* .gnu.linkonce.sb2.*)
 *(.scommon)
                0x08045094                PROVIDE (__sbss_end, ABSOLUTE (.))
                0x08045094                PROVIDE (___sbss_end, ABSOLUTE (.))
 *(.dynbss)
 *(.bss .bss.* .gnu.linkonce.b.*)
 .bss           0x08045094        0x0 ../demo_board_NiosIIf_bsp//obj/HAL/src/crt0.o
 .bss           0x08045094        0x0 obj/default/cdjpeg.o
 .bss           0x08045094        0x0 obj/default/djpeg.o
 .bss           0x08045094        0x0 obj/default/jcapimin.o
 .bss           0x08045094        0x0 obj/default/jcapistd.o
 .bss           0x08045094        0x0 obj/default/jccoefct.o
 .bss           0x08045094        0x0 obj/default/jccolor.o
 .bss           0x08045094        0x0 obj/default/jcdctmgr.o
 .bss           0x08045094        0x0 obj/default/jchuff.o
 .bss           0x08045094        0x0 obj/default/jcinit.o
 .bss           0x08045094        0x0 obj/default/jcmainct.o
 .bss           0x08045094        0x0 obj/default/jcmarker.o
 .bss           0x08045094        0x0 obj/default/jcmaster.o
 .bss           0x08045094        0x0 obj/default/jcomapi.o
 .bss           0x08045094        0x0 obj/default/jcparam.o
 .bss           0x08045094        0x0 obj/default/jcphuff.o
 .bss           0x08045094        0x0 obj/default/jcprepct.o
 .bss           0x08045094        0x0 obj/default/jcsample.o
 .bss           0x08045094        0x0 obj/default/jctrans.o
 .bss           0x08045094        0x0 obj/default/jdapimin.o
 .bss           0x08045094        0x0 obj/default/jdapistd.o
 .bss           0x08045094        0x0 obj/default/jdatadst.o
 .bss           0x08045094        0x0 obj/default/jdatasrc.o
 .bss           0x08045094        0x0 obj/default/jdcoefct.o
 .bss           0x08045094        0x0 obj/default/jdcolor.o
 .bss           0x08045094        0x0 obj/default/jddctmgr.o
 .bss           0x08045094        0x0 obj/default/jdhuff.o
 .bss           0x08045094        0x0 obj/default/jdinput.o
 .bss           0x08045094        0x0 obj/default/jdmainct.o
 .bss           0x08045094        0x0 obj/default/jdmarker.o
 .bss           0x08045094        0x0 obj/default/jdmaster.o
 .bss           0x08045094        0x0 obj/default/jdmerge.o
 .bss           0x08045094        0x0 obj/default/jdphuff.o
 .bss           0x08045094        0x0 obj/default/jdpostct.o
 .bss           0x08045094        0x0 obj/default/jdsample.o
 .bss           0x08045094        0x0 obj/default/jdtrans.o
 .bss           0x08045094        0x0 obj/default/jerror.o
 .bss           0x08045094        0x0 obj/default/jfdctflt.o
 .bss           0x08045094        0x0 obj/default/jfdctfst.o
 .bss           0x08045094        0x0 obj/default/jfdctint.o
 .bss           0x08045094        0x0 obj/default/jidctflt.o
 .bss           0x08045094        0x0 obj/default/jidctfst.o
 .bss           0x08045094        0x0 obj/default/jidctint.o
 .bss           0x08045094        0x0 obj/default/jidctred.o
 .bss           0x08045094        0x0 obj/default/jmemmgr.o
 .bss           0x08045094        0x0 obj/default/jmemnobs.o
 .bss           0x08045094        0x0 obj/default/jquant1.o
 .bss           0x08045094        0x0 obj/default/jquant2.o
 .bss           0x08045094        0x0 obj/default/jutils.o
 .bss           0x08045094        0x0 obj/default/rdcolmap.o
 .bss           0x08045094        0x0 obj/default/wrbmp.o
 .bss           0x08045094        0x0 obj/default/wrgif.o
 .bss           0x08045094        0x0 obj/default/wrppm.o
 .bss           0x08045094        0x0 obj/default/wrrle.o
 .bss           0x08045094        0x0 obj/default/wrtarga.o
 .bss           0x08045094        0x0 /package/eda/altera/altera13.0sp1/nios2eds/bin/gnu/H-i686-pc-linux-gnu/bin/../lib/gcc/nios2-elf/4.1.2/libgcc.a(_addsub_sf.o)
 .bss           0x08045094        0x0 /package/eda/altera/altera13.0sp1/nios2eds/bin/gnu/H-i686-pc-linux-gnu/bin/../lib/gcc/nios2-elf/4.1.2/libgcc.a(_mul_sf.o)
 .bss           0x08045094        0x0 /package/eda/altera/altera13.0sp1/nios2eds/bin/gnu/H-i686-pc-linux-gnu/bin/../lib/gcc/nios2-elf/4.1.2/libgcc.a(_si_to_sf.o)
 .bss           0x08045094        0x0 /package/eda/altera/altera13.0sp1/nios2eds/bin/gnu/H-i686-pc-linux-gnu/bin/../lib/gcc/nios2-elf/4.1.2/libgcc.a(_sf_to_si.o)
 .bss           0x08045094        0x0 /package/eda/altera/altera13.0sp1/nios2eds/bin/gnu/H-i686-pc-linux-gnu/bin/../lib/gcc/nios2-elf/4.1.2/libgcc.a(_thenan_sf.o)
 .bss           0x08045094        0x0 /package/eda/altera/altera13.0sp1/nios2eds/bin/gnu/H-i686-pc-linux-gnu/bin/../lib/gcc/nios2-elf/4.1.2/libgcc.a(_mul_df.o)
 .bss           0x08045094        0x0 /package/eda/altera/altera13.0sp1/nios2eds/bin/gnu/H-i686-pc-linux-gnu/bin/../lib/gcc/nios2-elf/4.1.2/libgcc.a(_div_df.o)
 .bss           0x08045094        0x0 /package/eda/altera/altera13.0sp1/nios2eds/bin/gnu/H-i686-pc-linux-gnu/bin/../lib/gcc/nios2-elf/4.1.2/libgcc.a(_df_to_sf.o)
 .bss           0x08045094        0x0 /package/eda/altera/altera13.0sp1/nios2eds/bin/gnu/H-i686-pc-linux-gnu/bin/../lib/gcc/nios2-elf/4.1.2/libgcc.a(_thenan_df.o)
 .bss           0x08045094        0x0 /package/eda/altera/altera13.0sp1/nios2eds/bin/gnu/H-i686-pc-linux-gnu/bin/../lib/gcc/nios2-elf/4.1.2/libgcc.a(_usi_to_df.o)
 .bss           0x08045094        0x0 /package/eda/altera/altera13.0sp1/nios2eds/bin/gnu/H-i686-pc-linux-gnu/bin/../lib/gcc/nios2-elf/4.1.2/libgcc.a(lib2-divmod.o)
 .bss           0x08045094        0x0 /package/eda/altera/altera13.0sp1/nios2eds/bin/gnu/H-i686-pc-linux-gnu/bin/../lib/gcc/nios2-elf/4.1.2/libgcc.a(lib2-divtable.o)
 .bss           0x08045094        0x0 /package/eda/altera/altera13.0sp1/nios2eds/bin/gnu/H-i686-pc-linux-gnu/bin/../lib/gcc/nios2-elf/4.1.2/libgcc.a(_muldi3.o)
 .bss           0x08045094        0x0 /package/eda/altera/altera13.0sp1/nios2eds/bin/gnu/H-i686-pc-linux-gnu/bin/../lib/gcc/nios2-elf/4.1.2/libgcc.a(_clzsi2.o)
 .bss           0x08045094        0x0 /package/eda/altera/altera13.0sp1/nios2eds/bin/gnu/H-i686-pc-linux-gnu/bin/../lib/gcc/nios2-elf/4.1.2/libgcc.a(_pack_sf.o)
 .bss           0x08045094        0x0 /package/eda/altera/altera13.0sp1/nios2eds/bin/gnu/H-i686-pc-linux-gnu/bin/../lib/gcc/nios2-elf/4.1.2/libgcc.a(_unpack_sf.o)
 .bss           0x08045094        0x0 /package/eda/altera/altera13.0sp1/nios2eds/bin/gnu/H-i686-pc-linux-gnu/bin/../lib/gcc/nios2-elf/4.1.2/libgcc.a(_make_sf.o)
 .bss           0x08045094        0x0 /package/eda/altera/altera13.0sp1/nios2eds/bin/gnu/H-i686-pc-linux-gnu/bin/../lib/gcc/nios2-elf/4.1.2/libgcc.a(_pack_df.o)
 .bss           0x08045094        0x0 /package/eda/altera/altera13.0sp1/nios2eds/bin/gnu/H-i686-pc-linux-gnu/bin/../lib/gcc/nios2-elf/4.1.2/libgcc.a(_unpack_df.o)
 .bss           0x08045094        0x0 /package/eda/altera/altera13.0sp1/nios2eds/bin/gnu/H-i686-pc-linux-gnu/bin/../lib/gcc/nios2-elf/4.1.2/libgcc.a(_clz.o)
 .bss           0x08045094        0x0 /package/eda/altera/altera13.0sp1/nios2eds/bin/gnu/H-i686-pc-linux-gnu/bin/../lib/gcc/nios2-elf/4.1.2/../../../../nios2-elf/lib/libc.a(lib_a-ctype_.o)
 .bss           0x08045094        0x0 /package/eda/altera/altera13.0sp1/nios2eds/bin/gnu/H-i686-pc-linux-gnu/bin/../lib/gcc/nios2-elf/4.1.2/../../../../nios2-elf/lib/libc.a(lib_a-exit.o)
 .bss           0x08045094        0x0 /package/eda/altera/altera13.0sp1/nios2eds/bin/gnu/H-i686-pc-linux-gnu/bin/../lib/gcc/nios2-elf/4.1.2/../../../../nios2-elf/lib/libc.a(lib_a-fclose.o)
 .bss           0x08045094        0x0 /package/eda/altera/altera13.0sp1/nios2eds/bin/gnu/H-i686-pc-linux-gnu/bin/../lib/gcc/nios2-elf/4.1.2/../../../../nios2-elf/lib/libc.a(lib_a-fflush.o)
 .bss           0x08045094        0x0 /package/eda/altera/altera13.0sp1/nios2eds/bin/gnu/H-i686-pc-linux-gnu/bin/../lib/gcc/nios2-elf/4.1.2/../../../../nios2-elf/lib/libc.a(lib_a-findfp.o)
 .bss           0x08045094        0x0 /package/eda/altera/altera13.0sp1/nios2eds/bin/gnu/H-i686-pc-linux-gnu/bin/../lib/gcc/nios2-elf/4.1.2/../../../../nios2-elf/lib/libc.a(lib_a-fopen.o)
 .bss           0x08045094        0x0 /package/eda/altera/altera13.0sp1/nios2eds/bin/gnu/H-i686-pc-linux-gnu/bin/../lib/gcc/nios2-elf/4.1.2/../../../../nios2-elf/lib/libc.a(lib_a-fprintf.o)
 .bss           0x08045094        0x0 /package/eda/altera/altera13.0sp1/nios2eds/bin/gnu/H-i686-pc-linux-gnu/bin/../lib/gcc/nios2-elf/4.1.2/../../../../nios2-elf/lib/libc.a(lib_a-fputc.o)
 .bss           0x08045094        0x0 /package/eda/altera/altera13.0sp1/nios2eds/bin/gnu/H-i686-pc-linux-gnu/bin/../lib/gcc/nios2-elf/4.1.2/../../../../nios2-elf/lib/libc.a(lib_a-fread.o)
 .bss           0x08045094        0x0 /package/eda/altera/altera13.0sp1/nios2eds/bin/gnu/H-i686-pc-linux-gnu/bin/../lib/gcc/nios2-elf/4.1.2/../../../../nios2-elf/lib/libc.a(lib_a-freer.o)
 .bss           0x08045094        0x0 /package/eda/altera/altera13.0sp1/nios2eds/bin/gnu/H-i686-pc-linux-gnu/bin/../lib/gcc/nios2-elf/4.1.2/../../../../nios2-elf/lib/libc.a(lib_a-fseek.o)
 .bss           0x08045094        0x0 /package/eda/altera/altera13.0sp1/nios2eds/bin/gnu/H-i686-pc-linux-gnu/bin/../lib/gcc/nios2-elf/4.1.2/../../../../nios2-elf/lib/libc.a(lib_a-fstatr.o)
 .bss           0x08045094        0x0 /package/eda/altera/altera13.0sp1/nios2eds/bin/gnu/H-i686-pc-linux-gnu/bin/../lib/gcc/nios2-elf/4.1.2/../../../../nios2-elf/lib/libc.a(lib_a-fwalk.o)
 .bss           0x08045094        0x0 /package/eda/altera/altera13.0sp1/nios2eds/bin/gnu/H-i686-pc-linux-gnu/bin/../lib/gcc/nios2-elf/4.1.2/../../../../nios2-elf/lib/libc.a(lib_a-fwrite.o)
 .bss           0x08045094        0x0 /package/eda/altera/altera13.0sp1/nios2eds/bin/gnu/H-i686-pc-linux-gnu/bin/../lib/gcc/nios2-elf/4.1.2/../../../../nios2-elf/lib/libc.a(lib_a-getc.o)
 .bss           0x08045094        0x0 /package/eda/altera/altera13.0sp1/nios2eds/bin/gnu/H-i686-pc-linux-gnu/bin/../lib/gcc/nios2-elf/4.1.2/../../../../nios2-elf/lib/libc.a(lib_a-getenv.o)
 .bss           0x08045094        0x0 /package/eda/altera/altera13.0sp1/nios2eds/bin/gnu/H-i686-pc-linux-gnu/bin/../lib/gcc/nios2-elf/4.1.2/../../../../nios2-elf/lib/libc.a(lib_a-getenv_r.o)
 .bss           0x08045094        0x0 /package/eda/altera/altera13.0sp1/nios2eds/bin/gnu/H-i686-pc-linux-gnu/bin/../lib/gcc/nios2-elf/4.1.2/../../../../nios2-elf/lib/libc.a(lib_a-impure.o)
 .bss           0x08045094        0x0 /package/eda/altera/altera13.0sp1/nios2eds/bin/gnu/H-i686-pc-linux-gnu/bin/../lib/gcc/nios2-elf/4.1.2/../../../../nios2-elf/lib/libc.a(lib_a-int_errno.o)
 .bss           0x08045094        0x0 /package/eda/altera/altera13.0sp1/nios2eds/bin/gnu/H-i686-pc-linux-gnu/bin/../lib/gcc/nios2-elf/4.1.2/../../../../nios2-elf/lib/libc.a(lib_a-makebuf.o)
 .bss           0x08045094        0x0 /package/eda/altera/altera13.0sp1/nios2eds/bin/gnu/H-i686-pc-linux-gnu/bin/../lib/gcc/nios2-elf/4.1.2/../../../../nios2-elf/lib/libc.a(lib_a-malloc.o)
 .bss           0x08045094       0x28 /package/eda/altera/altera13.0sp1/nios2eds/bin/gnu/H-i686-pc-linux-gnu/bin/../lib/gcc/nios2-elf/4.1.2/../../../../nios2-elf/lib/libc.a(lib_a-mallocr.o)
                0x08045094                __malloc_current_mallinfo
 .bss           0x080450bc        0x0 /package/eda/altera/altera13.0sp1/nios2eds/bin/gnu/H-i686-pc-linux-gnu/bin/../lib/gcc/nios2-elf/4.1.2/../../../../nios2-elf/lib/libc.a(lib_a-memcpy.o)
 .bss           0x080450bc        0x0 /package/eda/altera/altera13.0sp1/nios2eds/bin/gnu/H-i686-pc-linux-gnu/bin/../lib/gcc/nios2-elf/4.1.2/../../../../nios2-elf/lib/libc.a(lib_a-memset.o)
 .bss           0x080450bc        0x0 /package/eda/altera/altera13.0sp1/nios2eds/bin/gnu/H-i686-pc-linux-gnu/bin/../lib/gcc/nios2-elf/4.1.2/../../../../nios2-elf/lib/libc.a(lib_a-openr.o)
 .bss           0x080450bc        0x0 /package/eda/altera/altera13.0sp1/nios2eds/bin/gnu/H-i686-pc-linux-gnu/bin/../lib/gcc/nios2-elf/4.1.2/../../../../nios2-elf/lib/libc.a(lib_a-printf.o)
 .bss           0x080450bc        0x0 /package/eda/altera/altera13.0sp1/nios2eds/bin/gnu/H-i686-pc-linux-gnu/bin/../lib/gcc/nios2-elf/4.1.2/../../../../nios2-elf/lib/libc.a(lib_a-putc.o)
 .bss           0x080450bc        0x0 /package/eda/altera/altera13.0sp1/nios2eds/bin/gnu/H-i686-pc-linux-gnu/bin/../lib/gcc/nios2-elf/4.1.2/../../../../nios2-elf/lib/libc.a(lib_a-puts.o)
 .bss           0x080450bc        0x0 /package/eda/altera/altera13.0sp1/nios2eds/bin/gnu/H-i686-pc-linux-gnu/bin/../lib/gcc/nios2-elf/4.1.2/../../../../nios2-elf/lib/libc.a(lib_a-refill.o)
 .bss           0x080450bc        0x0 /package/eda/altera/altera13.0sp1/nios2eds/bin/gnu/H-i686-pc-linux-gnu/bin/../lib/gcc/nios2-elf/4.1.2/../../../../nios2-elf/lib/libc.a(lib_a-rget.o)
 .bss           0x080450bc        0x0 /package/eda/altera/altera13.0sp1/nios2eds/bin/gnu/H-i686-pc-linux-gnu/bin/../lib/gcc/nios2-elf/4.1.2/../../../../nios2-elf/lib/libc.a(lib_a-sbrkr.o)
 .bss           0x080450bc        0x0 /package/eda/altera/altera13.0sp1/nios2eds/bin/gnu/H-i686-pc-linux-gnu/bin/../lib/gcc/nios2-elf/4.1.2/../../../../nios2-elf/lib/libc.a(lib_a-sprintf.o)
 .bss           0x080450bc        0x0 /package/eda/altera/altera13.0sp1/nios2eds/bin/gnu/H-i686-pc-linux-gnu/bin/../lib/gcc/nios2-elf/4.1.2/../../../../nios2-elf/lib/libc.a(lib_a-sscanf.o)
 .bss           0x080450bc        0x0 /package/eda/altera/altera13.0sp1/nios2eds/bin/gnu/H-i686-pc-linux-gnu/bin/../lib/gcc/nios2-elf/4.1.2/../../../../nios2-elf/lib/libc.a(lib_a-stdio.o)
 .bss           0x080450bc        0x0 /package/eda/altera/altera13.0sp1/nios2eds/bin/gnu/H-i686-pc-linux-gnu/bin/../lib/gcc/nios2-elf/4.1.2/../../../../nios2-elf/lib/libc.a(lib_a-strdup.o)
 .bss           0x080450bc        0x0 /package/eda/altera/altera13.0sp1/nios2eds/bin/gnu/H-i686-pc-linux-gnu/bin/../lib/gcc/nios2-elf/4.1.2/../../../../nios2-elf/lib/libc.a(lib_a-strdup_r.o)
 .bss           0x080450bc        0x0 /package/eda/altera/altera13.0sp1/nios2eds/bin/gnu/H-i686-pc-linux-gnu/bin/../lib/gcc/nios2-elf/4.1.2/../../../../nios2-elf/lib/libc.a(lib_a-strlen.o)
 .bss           0x080450bc        0x0 /package/eda/altera/altera13.0sp1/nios2eds/bin/gnu/H-i686-pc-linux-gnu/bin/../lib/gcc/nios2-elf/4.1.2/../../../../nios2-elf/lib/libc.a(lib_a-strncmp.o)
 .bss           0x080450bc        0x0 /package/eda/altera/altera13.0sp1/nios2eds/bin/gnu/H-i686-pc-linux-gnu/bin/../lib/gcc/nios2-elf/4.1.2/../../../../nios2-elf/lib/libc.a(lib_a-vfprintf.o)
 .bss           0x080450bc        0x0 /package/eda/altera/altera13.0sp1/nios2eds/bin/gnu/H-i686-pc-linux-gnu/bin/../lib/gcc/nios2-elf/4.1.2/../../../../nios2-elf/lib/libc.a(lib_a-vfscanf.o)
 .bss           0x080450bc        0x0 /package/eda/altera/altera13.0sp1/nios2eds/bin/gnu/H-i686-pc-linux-gnu/bin/../lib/gcc/nios2-elf/4.1.2/../../../../nios2-elf/lib/libc.a(lib_a-wbuf.o)
 .bss           0x080450bc        0x0 /package/eda/altera/altera13.0sp1/nios2eds/bin/gnu/H-i686-pc-linux-gnu/bin/../lib/gcc/nios2-elf/4.1.2/../../../../nios2-elf/lib/libc.a(lib_a-writer.o)
 .bss           0x080450bc        0x0 /package/eda/altera/altera13.0sp1/nios2eds/bin/gnu/H-i686-pc-linux-gnu/bin/../lib/gcc/nios2-elf/4.1.2/../../../../nios2-elf/lib/libc.a(lib_a-wsetup.o)
 .bss           0x080450bc        0x0 /package/eda/altera/altera13.0sp1/nios2eds/bin/gnu/H-i686-pc-linux-gnu/bin/../lib/gcc/nios2-elf/4.1.2/../../../../nios2-elf/lib/libc.a(lib_a-__call_atexit.o)
 .bss           0x080450bc        0x0 /package/eda/altera/altera13.0sp1/nios2eds/bin/gnu/H-i686-pc-linux-gnu/bin/../lib/gcc/nios2-elf/4.1.2/../../../../nios2-elf/lib/libc.a(lib_a-closer.o)
 .bss           0x080450bc        0x0 /package/eda/altera/altera13.0sp1/nios2eds/bin/gnu/H-i686-pc-linux-gnu/bin/../lib/gcc/nios2-elf/4.1.2/../../../../nios2-elf/lib/libc.a(lib_a-dtoa.o)
 .bss           0x080450bc        0x0 /package/eda/altera/altera13.0sp1/nios2eds/bin/gnu/H-i686-pc-linux-gnu/bin/../lib/gcc/nios2-elf/4.1.2/../../../../nios2-elf/lib/libc.a(lib_a-environ.o)
 .bss           0x080450bc        0x0 /package/eda/altera/altera13.0sp1/nios2eds/bin/gnu/H-i686-pc-linux-gnu/bin/../lib/gcc/nios2-elf/4.1.2/../../../../nios2-elf/lib/libc.a(lib_a-flags.o)
 .bss           0x080450bc        0x0 /package/eda/altera/altera13.0sp1/nios2eds/bin/gnu/H-i686-pc-linux-gnu/bin/../lib/gcc/nios2-elf/4.1.2/../../../../nios2-elf/lib/libc.a(lib_a-fvwrite.o)
 .bss           0x080450bc        0x0 /package/eda/altera/altera13.0sp1/nios2eds/bin/gnu/H-i686-pc-linux-gnu/bin/../lib/gcc/nios2-elf/4.1.2/../../../../nios2-elf/lib/libc.a(lib_a-isattyr.o)
 .bss           0x080450bc        0x0 /package/eda/altera/altera13.0sp1/nios2eds/bin/gnu/H-i686-pc-linux-gnu/bin/../lib/gcc/nios2-elf/4.1.2/../../../../nios2-elf/lib/libc.a(lib_a-iswspace.o)
 .bss           0x080450bc        0x0 /package/eda/altera/altera13.0sp1/nios2eds/bin/gnu/H-i686-pc-linux-gnu/bin/../lib/gcc/nios2-elf/4.1.2/../../../../nios2-elf/lib/libc.a(lib_a-locale.o)
 .bss           0x080450bc        0x0 /package/eda/altera/altera13.0sp1/nios2eds/bin/gnu/H-i686-pc-linux-gnu/bin/../lib/gcc/nios2-elf/4.1.2/../../../../nios2-elf/lib/libc.a(lib_a-lseekr.o)
 .bss           0x080450bc        0x0 /package/eda/altera/altera13.0sp1/nios2eds/bin/gnu/H-i686-pc-linux-gnu/bin/../lib/gcc/nios2-elf/4.1.2/../../../../nios2-elf/lib/libc.a(lib_a-mbrtowc.o)
 .bss           0x080450bc        0x0 /package/eda/altera/altera13.0sp1/nios2eds/bin/gnu/H-i686-pc-linux-gnu/bin/../lib/gcc/nios2-elf/4.1.2/../../../../nios2-elf/lib/libc.a(lib_a-mbtowc_r.o)
 .bss           0x080450bc        0x0 /package/eda/altera/altera13.0sp1/nios2eds/bin/gnu/H-i686-pc-linux-gnu/bin/../lib/gcc/nios2-elf/4.1.2/../../../../nios2-elf/lib/libc.a(lib_a-memchr.o)
 .bss           0x080450bc        0x0 /package/eda/altera/altera13.0sp1/nios2eds/bin/gnu/H-i686-pc-linux-gnu/bin/../lib/gcc/nios2-elf/4.1.2/../../../../nios2-elf/lib/libc.a(lib_a-memmove.o)
 .bss           0x080450bc        0x0 /package/eda/altera/altera13.0sp1/nios2eds/bin/gnu/H-i686-pc-linux-gnu/bin/../lib/gcc/nios2-elf/4.1.2/../../../../nios2-elf/lib/libc.a(lib_a-mprec.o)
 .bss           0x080450bc        0x0 /package/eda/altera/altera13.0sp1/nios2eds/bin/gnu/H-i686-pc-linux-gnu/bin/../lib/gcc/nios2-elf/4.1.2/../../../../nios2-elf/lib/libc.a(lib_a-readr.o)
 .bss           0x080450bc        0x0 /package/eda/altera/altera13.0sp1/nios2eds/bin/gnu/H-i686-pc-linux-gnu/bin/../lib/gcc/nios2-elf/4.1.2/../../../../nios2-elf/lib/libc.a(lib_a-reallocr.o)
 .bss           0x080450bc        0x0 /package/eda/altera/altera13.0sp1/nios2eds/bin/gnu/H-i686-pc-linux-gnu/bin/../lib/gcc/nios2-elf/4.1.2/../../../../nios2-elf/lib/libc.a(lib_a-s_isinfd.o)
 .bss           0x080450bc        0x0 /package/eda/altera/altera13.0sp1/nios2eds/bin/gnu/H-i686-pc-linux-gnu/bin/../lib/gcc/nios2-elf/4.1.2/../../../../nios2-elf/lib/libc.a(lib_a-s_isnand.o)
 .bss           0x080450bc        0x0 /package/eda/altera/altera13.0sp1/nios2eds/bin/gnu/H-i686-pc-linux-gnu/bin/../lib/gcc/nios2-elf/4.1.2/../../../../nios2-elf/lib/libc.a(lib_a-sccl.o)
 .bss           0x080450bc        0x0 /package/eda/altera/altera13.0sp1/nios2eds/bin/gnu/H-i686-pc-linux-gnu/bin/../lib/gcc/nios2-elf/4.1.2/../../../../nios2-elf/lib/libc.a(lib_a-sf_nan.o)
 .bss           0x080450bc        0x0 /package/eda/altera/altera13.0sp1/nios2eds/bin/gnu/H-i686-pc-linux-gnu/bin/../lib/gcc/nios2-elf/4.1.2/../../../../nios2-elf/lib/libc.a(lib_a-strcmp.o)
 .bss           0x080450bc        0x0 /package/eda/altera/altera13.0sp1/nios2eds/bin/gnu/H-i686-pc-linux-gnu/bin/../lib/gcc/nios2-elf/4.1.2/../../../../nios2-elf/lib/libc.a(lib_a-strtod.o)
 .bss           0x080450bc        0x0 /package/eda/altera/altera13.0sp1/nios2eds/bin/gnu/H-i686-pc-linux-gnu/bin/../lib/gcc/nios2-elf/4.1.2/../../../../nios2-elf/lib/libc.a(lib_a-strtol.o)
 .bss           0x080450bc        0x0 /package/eda/altera/altera13.0sp1/nios2eds/bin/gnu/H-i686-pc-linux-gnu/bin/../lib/gcc/nios2-elf/4.1.2/../../../../nios2-elf/lib/libc.a(lib_a-strtoll_r.o)
 .bss           0x080450bc        0x0 /package/eda/altera/altera13.0sp1/nios2eds/bin/gnu/H-i686-pc-linux-gnu/bin/../lib/gcc/nios2-elf/4.1.2/../../../../nios2-elf/lib/libc.a(lib_a-strtoul.o)
 .bss           0x080450bc        0x0 /package/eda/altera/altera13.0sp1/nios2eds/bin/gnu/H-i686-pc-linux-gnu/bin/../lib/gcc/nios2-elf/4.1.2/../../../../nios2-elf/lib/libc.a(lib_a-strtoull_r.o)
 .bss           0x080450bc        0x0 /package/eda/altera/altera13.0sp1/nios2eds/bin/gnu/H-i686-pc-linux-gnu/bin/../lib/gcc/nios2-elf/4.1.2/../../../../nios2-elf/lib/libc.a(lib_a-ungetc.o)
 .bss           0x080450bc        0x0 /package/eda/altera/altera13.0sp1/nios2eds/bin/gnu/H-i686-pc-linux-gnu/bin/../lib/gcc/nios2-elf/4.1.2/../../../../nios2-elf/lib/libc.a(lib_a-callocr.o)
 .bss           0x080450bc        0x0 /package/eda/altera/altera13.0sp1/nios2eds/bin/gnu/H-i686-pc-linux-gnu/bin/../lib/gcc/nios2-elf/4.1.2/../../../../nios2-elf/lib/libc.a(lib_a-gdtoa-gethex.o)
 .bss           0x080450bc        0x0 /package/eda/altera/altera13.0sp1/nios2eds/bin/gnu/H-i686-pc-linux-gnu/bin/../lib/gcc/nios2-elf/4.1.2/../../../../nios2-elf/lib/libc.a(lib_a-gdtoa-hexnan.o)
 .bss           0x080450bc        0x0 /package/eda/altera/altera13.0sp1/nios2eds/bin/gnu/H-i686-pc-linux-gnu/bin/../lib/gcc/nios2-elf/4.1.2/libgcc.a(_fixunsdfsi.o)
 .bss           0x080450bc        0x0 /package/eda/altera/altera13.0sp1/nios2eds/bin/gnu/H-i686-pc-linux-gnu/bin/../lib/gcc/nios2-elf/4.1.2/libgcc.a(_udivdi3.o)
 .bss           0x080450bc        0x0 /package/eda/altera/altera13.0sp1/nios2eds/bin/gnu/H-i686-pc-linux-gnu/bin/../lib/gcc/nios2-elf/4.1.2/libgcc.a(_umoddi3.o)
 .bss           0x080450bc        0x0 /package/eda/altera/altera13.0sp1/nios2eds/bin/gnu/H-i686-pc-linux-gnu/bin/../lib/gcc/nios2-elf/4.1.2/libgcc.a(_ne_sf.o)
 .bss           0x080450bc        0x0 /package/eda/altera/altera13.0sp1/nios2eds/bin/gnu/H-i686-pc-linux-gnu/bin/../lib/gcc/nios2-elf/4.1.2/libgcc.a(_gt_sf.o)
 .bss           0x080450bc        0x0 /package/eda/altera/altera13.0sp1/nios2eds/bin/gnu/H-i686-pc-linux-gnu/bin/../lib/gcc/nios2-elf/4.1.2/libgcc.a(_lt_sf.o)
 .bss           0x080450bc        0x0 /package/eda/altera/altera13.0sp1/nios2eds/bin/gnu/H-i686-pc-linux-gnu/bin/../lib/gcc/nios2-elf/4.1.2/libgcc.a(_addsub_df.o)
 .bss           0x080450bc        0x0 /package/eda/altera/altera13.0sp1/nios2eds/bin/gnu/H-i686-pc-linux-gnu/bin/../lib/gcc/nios2-elf/4.1.2/libgcc.a(_eq_df.o)
 .bss           0x080450bc        0x0 /package/eda/altera/altera13.0sp1/nios2eds/bin/gnu/H-i686-pc-linux-gnu/bin/../lib/gcc/nios2-elf/4.1.2/libgcc.a(_ne_df.o)
 .bss           0x080450bc        0x0 /package/eda/altera/altera13.0sp1/nios2eds/bin/gnu/H-i686-pc-linux-gnu/bin/../lib/gcc/nios2-elf/4.1.2/libgcc.a(_gt_df.o)
 .bss           0x080450bc        0x0 /package/eda/altera/altera13.0sp1/nios2eds/bin/gnu/H-i686-pc-linux-gnu/bin/../lib/gcc/nios2-elf/4.1.2/libgcc.a(_ge_df.o)
 .bss           0x080450bc        0x0 /package/eda/altera/altera13.0sp1/nios2eds/bin/gnu/H-i686-pc-linux-gnu/bin/../lib/gcc/nios2-elf/4.1.2/libgcc.a(_lt_df.o)
 .bss           0x080450bc        0x0 /package/eda/altera/altera13.0sp1/nios2eds/bin/gnu/H-i686-pc-linux-gnu/bin/../lib/gcc/nios2-elf/4.1.2/libgcc.a(_le_df.o)
 .bss           0x080450bc        0x0 /package/eda/altera/altera13.0sp1/nios2eds/bin/gnu/H-i686-pc-linux-gnu/bin/../lib/gcc/nios2-elf/4.1.2/libgcc.a(_si_to_df.o)
 .bss           0x080450bc        0x0 /package/eda/altera/altera13.0sp1/nios2eds/bin/gnu/H-i686-pc-linux-gnu/bin/../lib/gcc/nios2-elf/4.1.2/libgcc.a(_df_to_si.o)
 .bss           0x080450bc        0x0 /package/eda/altera/altera13.0sp1/nios2eds/bin/gnu/H-i686-pc-linux-gnu/bin/../lib/gcc/nios2-elf/4.1.2/libgcc.a(_fpcmp_parts_sf.o)
 .bss           0x080450bc        0x0 /package/eda/altera/altera13.0sp1/nios2eds/bin/gnu/H-i686-pc-linux-gnu/bin/../lib/gcc/nios2-elf/4.1.2/libgcc.a(_fpcmp_parts_df.o)
 .bss           0x080450bc        0x0 ../demo_board_NiosIIf_bsp//libhal_bsp.a(alt_close.o)
 .bss           0x080450bc        0x0 ../demo_board_NiosIIf_bsp//libhal_bsp.a(alt_dcache_flush.o)
 .bss           0x080450bc        0x0 ../demo_board_NiosIIf_bsp//libhal_bsp.a(alt_dev.o)
 .bss           0x080450bc        0x0 ../demo_board_NiosIIf_bsp//libhal_bsp.a(alt_env_lock.o)
 .bss           0x080450bc        0x0 ../demo_board_NiosIIf_bsp//libhal_bsp.a(alt_errno.o)
 .bss           0x080450bc        0x0 ../demo_board_NiosIIf_bsp//libhal_bsp.a(alt_exit.o)
 .bss           0x080450bc        0x0 ../demo_board_NiosIIf_bsp//libhal_bsp.a(alt_fstat.o)
 .bss           0x080450bc        0x0 ../demo_board_NiosIIf_bsp//libhal_bsp.a(alt_isatty.o)
 .bss           0x080450bc        0x0 ../demo_board_NiosIIf_bsp//libhal_bsp.a(alt_load.o)
 .bss           0x080450bc        0x0 ../demo_board_NiosIIf_bsp//libhal_bsp.a(alt_lseek.o)
 .bss           0x080450bc        0x0 ../demo_board_NiosIIf_bsp//libhal_bsp.a(alt_main.o)
 .bss           0x080450bc        0x0 ../demo_board_NiosIIf_bsp//libhal_bsp.a(alt_malloc_lock.o)
 .bss           0x080450bc        0x0 ../demo_board_NiosIIf_bsp//libhal_bsp.a(alt_open.o)
 .bss           0x080450bc        0x0 ../demo_board_NiosIIf_bsp//libhal_bsp.a(alt_read.o)
 .bss           0x080450bc        0x0 ../demo_board_NiosIIf_bsp//libhal_bsp.a(alt_release_fd.o)
 .bss           0x080450bc        0x0 ../demo_board_NiosIIf_bsp//libhal_bsp.a(alt_sbrk.o)
 .bss           0x080450bc        0x0 ../demo_board_NiosIIf_bsp//libhal_bsp.a(alt_write.o)
 .bss           0x080450bc        0x0 ../demo_board_NiosIIf_bsp//libhal_bsp.a(alt_sys_init.o)
 .bss           0x080450bc        0x0 ../demo_board_NiosIIf_bsp//libhal_bsp.a(altera_avalon_cfi_flash.o)
 .bss           0x080450bc        0x0 ../demo_board_NiosIIf_bsp//libhal_bsp.a(altera_avalon_cfi_flash_table.o)
 .bss           0x080450bc        0x0 ../demo_board_NiosIIf_bsp//libhal_bsp.a(altera_avalon_jtag_uart_fd.o)
 .bss           0x080450bc        0x0 ../demo_board_NiosIIf_bsp//libhal_bsp.a(altera_avalon_jtag_uart_init.o)
 .bss           0x080450bc        0x0 ../demo_board_NiosIIf_bsp//libhal_bsp.a(altera_avalon_jtag_uart_ioctl.o)
 .bss           0x080450bc        0x0 ../demo_board_NiosIIf_bsp//libhal_bsp.a(altera_avalon_jtag_uart_read.o)
 .bss           0x080450bc        0x0 ../demo_board_NiosIIf_bsp//libhal_bsp.a(altera_avalon_jtag_uart_write.o)
 .bss           0x080450bc        0x0 ../demo_board_NiosIIf_bsp//libhal_bsp.a(altera_avalon_performance_counter.o)
 .bss           0x080450bc        0x0 ../demo_board_NiosIIf_bsp//libhal_bsp.a(altera_avalon_timer_sc.o)
 .bss           0x080450bc        0x0 ../demo_board_NiosIIf_bsp//libhal_bsp.a(altera_ro_zipfs.o)
 .bss           0x080450bc        0x0 ../demo_board_NiosIIf_bsp//libhal_bsp.a(altera_up_avalon_video_pixel_buffer_dma.o)
 .bss           0x080450bc        0x0 ../demo_board_NiosIIf_bsp//libhal_bsp.a(perf_print_formatted_report.o)
 .bss           0x080450bc        0x0 ../demo_board_NiosIIf_bsp//libhal_bsp.a(alt_alarm_start.o)
 .bss           0x080450bc        0x0 ../demo_board_NiosIIf_bsp//libhal_bsp.a(alt_dcache_flush_all.o)
 .bss           0x080450bc        0x0 ../demo_board_NiosIIf_bsp//libhal_bsp.a(alt_dev_llist_insert.o)
 .bss           0x080450bc        0x0 ../demo_board_NiosIIf_bsp//libhal_bsp.a(alt_do_ctors.o)
 .bss           0x080450bc        0x0 ../demo_board_NiosIIf_bsp//libhal_bsp.a(alt_do_dtors.o)
 .bss           0x080450bc        0x0 ../demo_board_NiosIIf_bsp//libhal_bsp.a(alt_find_dev.o)
 .bss           0x080450bc        0x0 ../demo_board_NiosIIf_bsp//libhal_bsp.a(alt_find_file.o)
 .bss           0x080450bc        0x0 ../demo_board_NiosIIf_bsp//libhal_bsp.a(alt_flash_dev.o)
 .bss           0x080450bc        0x0 ../demo_board_NiosIIf_bsp//libhal_bsp.a(alt_fs_reg.o)
 .bss           0x080450bc        0x0 ../demo_board_NiosIIf_bsp//libhal_bsp.a(alt_get_fd.o)
 .bss           0x080450bc        0x0 ../demo_board_NiosIIf_bsp//libhal_bsp.a(alt_icache_flush_all.o)
 .bss           0x080450bc        0x0 ../demo_board_NiosIIf_bsp//libhal_bsp.a(alt_iic.o)
 .bss           0x080450bc        0x0 ../demo_board_NiosIIf_bsp//libhal_bsp.a(alt_iic_isr_register.o)
 .bss           0x080450bc        0x0 ../demo_board_NiosIIf_bsp//libhal_bsp.a(alt_io_redirect.o)
 .bss           0x080450bc        0x0 ../demo_board_NiosIIf_bsp//libhal_bsp.a(alt_irq_entry.o)
 .bss           0x080450bc        0x0 ../demo_board_NiosIIf_bsp//libhal_bsp.a(alt_irq_handler.o)
 .bss           0x080450bc        0x0 ../demo_board_NiosIIf_bsp//libhal_bsp.a(alt_irq_vars.o)
 .bss           0x080450bc        0x0 ../demo_board_NiosIIf_bsp//libhal_bsp.a(alt_tick.o)
 .bss           0x080450bc        0x0 ../demo_board_NiosIIf_bsp//libhal_bsp.a(altera_nios2_qsys_irq.o)
 .bss           0x080450bc        0x0 ../demo_board_NiosIIf_bsp//libhal_bsp.a(altera_avalon_cfi_flash_amd.o)
 .bss           0x080450bc        0x0 ../demo_board_NiosIIf_bsp//libhal_bsp.a(altera_avalon_cfi_flash_intel.o)
 .bss           0x080450bc        0x0 ../demo_board_NiosIIf_bsp//libhal_bsp.a(alt_exception_entry.o)
 .bss           0x080450bc        0x0 ../demo_board_NiosIIf_bsp//libhal_bsp.a(alt_icache_flush.o)
 .bss           0x080450bc        0x0 ../demo_board_NiosIIf_bsp//libhal_bsp.a(alt_usleep.o)
 .bss           0x080450bc        0x0 ../demo_board_NiosIIf_bsp//libhal_bsp.a(alt_busy_sleep.o)
 .bss           0x080450bc        0x0 /package/eda/altera/altera13.0sp1/nios2eds/bin/gnu/H-i686-pc-linux-gnu/bin/../lib/gcc/nios2-elf/4.1.2/../../../../nios2-elf/lib/libc.a(lib_a-atexit.o)
 .bss           0x080450bc        0x0 /package/eda/altera/altera13.0sp1/nios2eds/bin/gnu/H-i686-pc-linux-gnu/bin/../lib/gcc/nios2-elf/4.1.2/../../../../nios2-elf/lib/libc.a(lib_a-memcmp.o)
 .bss           0x080450bc        0x0 /package/eda/altera/altera13.0sp1/nios2eds/bin/gnu/H-i686-pc-linux-gnu/bin/../lib/gcc/nios2-elf/4.1.2/../../../../nios2-elf/lib/libc.a(lib_a-__atexit.o)
 .bss           0x080450bc        0x0 /package/eda/altera/altera13.0sp1/nios2eds/bin/gnu/H-i686-pc-linux-gnu/bin/../lib/gcc/nios2-elf/4.1.2/libgcc.a(_floatundidf.o)
 *(COMMON)
 COMMON         0x080450bc      0x100 /package/eda/altera/altera13.0sp1/nios2eds/bin/gnu/H-i686-pc-linux-gnu/bin/../lib/gcc/nios2-elf/4.1.2/../../../../nios2-elf/lib/libc.a(lib_a-gdtoa-gethex.o)
                0x080450bc                __hexdig
 COMMON         0x080451bc      0x100 ../demo_board_NiosIIf_bsp//libhal_bsp.a(alt_irq_handler.o)
                0x080451bc                alt_irq
 COMMON         0x080452bc      0x190 /package/eda/altera/altera13.0sp1/nios2eds/bin/gnu/H-i686-pc-linux-gnu/bin/../lib/gcc/nios2-elf/4.1.2/../../../../nios2-elf/lib/libc.a(lib_a-atexit.o)
                0x080452bc                _atexit0
                0x0804544c                . = ALIGN (0x4)
                0x0804544c                __bss_end = ABSOLUTE (.)

.new_sdram_controller_0
                0x0804544c        0x0
                0x0804544c                PROVIDE (_alt_partition_new_sdram_controller_0_start, ABSOLUTE (.))
 *(.new_sdram_controller_0. new_sdram_controller_0.*)
                0x0804544c                . = ALIGN (0x4)
                0x0804544c                PROVIDE (_alt_partition_new_sdram_controller_0_end, ABSOLUTE (.))
                0x0804544c                _end = ABSOLUTE (.)
                0x0804544c                end = ABSOLUTE (.)
                0x0804544c                __alt_stack_base = ABSOLUTE (.)
                0x0804544c                PROVIDE (_alt_partition_new_sdram_controller_0_load_addr, LOADADDR (.new_sdram_controller_0))

.generic_tristate_controller_0
                0x10000000        0x0 load address 0x0804544c
                0x10000000                PROVIDE (_alt_partition_generic_tristate_controller_0_start, ABSOLUTE (.))
 *(.generic_tristate_controller_0. generic_tristate_controller_0.*)
                0x10000000                . = ALIGN (0x4)
                0x10000000                PROVIDE (_alt_partition_generic_tristate_controller_0_end, ABSOLUTE (.))
                0x0804544c                PROVIDE (_alt_partition_generic_tristate_controller_0_load_addr, LOADADDR (.generic_tristate_controller_0))

.stab
 *(.stab)

.stabstr
 *(.stabstr)

.stab.excl
 *(.stab.excl)

.stab.exclstr
 *(.stab.exclstr)

.stab.index
 *(.stab.index)

.stab.indexstr
 *(.stab.indexstr)

.comment        0x00000000       0x26
 *(.comment)
 .comment       0x00000000       0x26 obj/default/cdjpeg.o
                                 0x27 (size before relaxing)
 .comment       0x00000000       0x27 obj/default/djpeg.o
 .comment       0x00000000       0x27 obj/default/jcapimin.o
 .comment       0x00000000       0x27 obj/default/jcapistd.o
 .comment       0x00000000       0x27 obj/default/jccoefct.o
 .comment       0x00000000       0x27 obj/default/jccolor.o
 .comment       0x00000000       0x27 obj/default/jcdctmgr.o
 .comment       0x00000000       0x27 obj/default/jchuff.o
 .comment       0x00000000       0x27 obj/default/jcinit.o
 .comment       0x00000000       0x27 obj/default/jcmainct.o
 .comment       0x00000000       0x27 obj/default/jcmarker.o
 .comment       0x00000000       0x27 obj/default/jcmaster.o
 .comment       0x00000000       0x27 obj/default/jcomapi.o
 .comment       0x00000000       0x27 obj/default/jcparam.o
 .comment       0x00000000       0x27 obj/default/jcphuff.o
 .comment       0x00000000       0x27 obj/default/jcprepct.o
 .comment       0x00000000       0x27 obj/default/jcsample.o
 .comment       0x00000000       0x27 obj/default/jctrans.o
 .comment       0x00000000       0x27 obj/default/jdapimin.o
 .comment       0x00000000       0x27 obj/default/jdapistd.o
 .comment       0x00000000       0x27 obj/default/jdatadst.o
 .comment       0x00000000       0x27 obj/default/jdatasrc.o
 .comment       0x00000000       0x27 obj/default/jdcoefct.o
 .comment       0x00000000       0x27 obj/default/jdcolor.o
 .comment       0x00000000       0x27 obj/default/jddctmgr.o
 .comment       0x00000000       0x27 obj/default/jdhuff.o
 .comment       0x00000000       0x27 obj/default/jdinput.o
 .comment       0x00000000       0x27 obj/default/jdmainct.o
 .comment       0x00000000       0x27 obj/default/jdmarker.o
 .comment       0x00000000       0x27 obj/default/jdmaster.o
 .comment       0x00000000       0x27 obj/default/jdmerge.o
 .comment       0x00000000       0x27 obj/default/jdphuff.o
 .comment       0x00000000       0x27 obj/default/jdpostct.o
 .comment       0x00000000       0x27 obj/default/jdsample.o
 .comment       0x00000000       0x27 obj/default/jdtrans.o
 .comment       0x00000000       0x27 obj/default/jerror.o
 .comment       0x00000000       0x27 obj/default/jfdctflt.o
 .comment       0x00000000       0x27 obj/default/jfdctfst.o
 .comment       0x00000000       0x27 obj/default/jfdctint.o
 .comment       0x00000000       0x27 obj/default/jidctflt.o
 .comment       0x00000000       0x27 obj/default/jidctfst.o
 .comment       0x00000000       0x27 obj/default/jidctint.o
 .comment       0x00000000       0x27 obj/default/jidctred.o
 .comment       0x00000000       0x27 obj/default/jmemmgr.o
 .comment       0x00000000       0x27 obj/default/jmemnobs.o
 .comment       0x00000000       0x27 obj/default/jquant1.o
 .comment       0x00000000       0x27 obj/default/jquant2.o
 .comment       0x00000000       0x27 obj/default/jutils.o
 .comment       0x00000000       0x27 obj/default/rdcolmap.o
 .comment       0x00000000       0x27 obj/default/wrbmp.o
 .comment       0x00000000       0x27 obj/default/wrgif.o
 .comment       0x00000000       0x27 obj/default/wrppm.o
 .comment       0x00000000       0x27 obj/default/wrrle.o
 .comment       0x00000000       0x27 obj/default/wrtarga.o
 .comment       0x00000000       0x27 /package/eda/altera/altera13.0sp1/nios2eds/bin/gnu/H-i686-pc-linux-gnu/bin/../lib/gcc/nios2-elf/4.1.2/libgcc.a(_addsub_sf.o)
 .comment       0x00000000       0x27 /package/eda/altera/altera13.0sp1/nios2eds/bin/gnu/H-i686-pc-linux-gnu/bin/../lib/gcc/nios2-elf/4.1.2/libgcc.a(_mul_sf.o)
 .comment       0x00000000       0x27 /package/eda/altera/altera13.0sp1/nios2eds/bin/gnu/H-i686-pc-linux-gnu/bin/../lib/gcc/nios2-elf/4.1.2/libgcc.a(_si_to_sf.o)
 .comment       0x00000000       0x27 /package/eda/altera/altera13.0sp1/nios2eds/bin/gnu/H-i686-pc-linux-gnu/bin/../lib/gcc/nios2-elf/4.1.2/libgcc.a(_sf_to_si.o)
 .comment       0x00000000       0x27 /package/eda/altera/altera13.0sp1/nios2eds/bin/gnu/H-i686-pc-linux-gnu/bin/../lib/gcc/nios2-elf/4.1.2/libgcc.a(_thenan_sf.o)
 .comment       0x00000000       0x27 /package/eda/altera/altera13.0sp1/nios2eds/bin/gnu/H-i686-pc-linux-gnu/bin/../lib/gcc/nios2-elf/4.1.2/libgcc.a(_mul_df.o)
 .comment       0x00000000       0x27 /package/eda/altera/altera13.0sp1/nios2eds/bin/gnu/H-i686-pc-linux-gnu/bin/../lib/gcc/nios2-elf/4.1.2/libgcc.a(_div_df.o)
 .comment       0x00000000       0x27 /package/eda/altera/altera13.0sp1/nios2eds/bin/gnu/H-i686-pc-linux-gnu/bin/../lib/gcc/nios2-elf/4.1.2/libgcc.a(_df_to_sf.o)
 .comment       0x00000000       0x27 /package/eda/altera/altera13.0sp1/nios2eds/bin/gnu/H-i686-pc-linux-gnu/bin/../lib/gcc/nios2-elf/4.1.2/libgcc.a(_thenan_df.o)
 .comment       0x00000000       0x27 /package/eda/altera/altera13.0sp1/nios2eds/bin/gnu/H-i686-pc-linux-gnu/bin/../lib/gcc/nios2-elf/4.1.2/libgcc.a(_usi_to_df.o)
 .comment       0x00000000       0x27 /package/eda/altera/altera13.0sp1/nios2eds/bin/gnu/H-i686-pc-linux-gnu/bin/../lib/gcc/nios2-elf/4.1.2/libgcc.a(lib2-divmod.o)
 .comment       0x00000000       0x27 /package/eda/altera/altera13.0sp1/nios2eds/bin/gnu/H-i686-pc-linux-gnu/bin/../lib/gcc/nios2-elf/4.1.2/libgcc.a(lib2-divtable.o)
 .comment       0x00000000       0x27 /package/eda/altera/altera13.0sp1/nios2eds/bin/gnu/H-i686-pc-linux-gnu/bin/../lib/gcc/nios2-elf/4.1.2/libgcc.a(_muldi3.o)
 .comment       0x00000000       0x27 /package/eda/altera/altera13.0sp1/nios2eds/bin/gnu/H-i686-pc-linux-gnu/bin/../lib/gcc/nios2-elf/4.1.2/libgcc.a(_clzsi2.o)
 .comment       0x00000000       0x27 /package/eda/altera/altera13.0sp1/nios2eds/bin/gnu/H-i686-pc-linux-gnu/bin/../lib/gcc/nios2-elf/4.1.2/libgcc.a(_pack_sf.o)
 .comment       0x00000000       0x27 /package/eda/altera/altera13.0sp1/nios2eds/bin/gnu/H-i686-pc-linux-gnu/bin/../lib/gcc/nios2-elf/4.1.2/libgcc.a(_unpack_sf.o)
 .comment       0x00000000       0x27 /package/eda/altera/altera13.0sp1/nios2eds/bin/gnu/H-i686-pc-linux-gnu/bin/../lib/gcc/nios2-elf/4.1.2/libgcc.a(_make_sf.o)
 .comment       0x00000000       0x27 /package/eda/altera/altera13.0sp1/nios2eds/bin/gnu/H-i686-pc-linux-gnu/bin/../lib/gcc/nios2-elf/4.1.2/libgcc.a(_pack_df.o)
 .comment       0x00000000       0x27 /package/eda/altera/altera13.0sp1/nios2eds/bin/gnu/H-i686-pc-linux-gnu/bin/../lib/gcc/nios2-elf/4.1.2/libgcc.a(_unpack_df.o)
 .comment       0x00000000       0x27 /package/eda/altera/altera13.0sp1/nios2eds/bin/gnu/H-i686-pc-linux-gnu/bin/../lib/gcc/nios2-elf/4.1.2/libgcc.a(_clz.o)
 .comment       0x00000000       0x27 /package/eda/altera/altera13.0sp1/nios2eds/bin/gnu/H-i686-pc-linux-gnu/bin/../lib/gcc/nios2-elf/4.1.2/../../../../nios2-elf/lib/libc.a(lib_a-ctype_.o)
 .comment       0x00000000       0x27 /package/eda/altera/altera13.0sp1/nios2eds/bin/gnu/H-i686-pc-linux-gnu/bin/../lib/gcc/nios2-elf/4.1.2/../../../../nios2-elf/lib/libc.a(lib_a-exit.o)
 .comment       0x00000000       0x27 /package/eda/altera/altera13.0sp1/nios2eds/bin/gnu/H-i686-pc-linux-gnu/bin/../lib/gcc/nios2-elf/4.1.2/../../../../nios2-elf/lib/libc.a(lib_a-fclose.o)
 .comment       0x00000000       0x27 /package/eda/altera/altera13.0sp1/nios2eds/bin/gnu/H-i686-pc-linux-gnu/bin/../lib/gcc/nios2-elf/4.1.2/../../../../nios2-elf/lib/libc.a(lib_a-fflush.o)
 .comment       0x00000000       0x27 /package/eda/altera/altera13.0sp1/nios2eds/bin/gnu/H-i686-pc-linux-gnu/bin/../lib/gcc/nios2-elf/4.1.2/../../../../nios2-elf/lib/libc.a(lib_a-findfp.o)
 .comment       0x00000000       0x27 /package/eda/altera/altera13.0sp1/nios2eds/bin/gnu/H-i686-pc-linux-gnu/bin/../lib/gcc/nios2-elf/4.1.2/../../../../nios2-elf/lib/libc.a(lib_a-fopen.o)
 .comment       0x00000000       0x27 /package/eda/altera/altera13.0sp1/nios2eds/bin/gnu/H-i686-pc-linux-gnu/bin/../lib/gcc/nios2-elf/4.1.2/../../../../nios2-elf/lib/libc.a(lib_a-fprintf.o)
 .comment       0x00000000       0x27 /package/eda/altera/altera13.0sp1/nios2eds/bin/gnu/H-i686-pc-linux-gnu/bin/../lib/gcc/nios2-elf/4.1.2/../../../../nios2-elf/lib/libc.a(lib_a-fputc.o)
 .comment       0x00000000       0x27 /package/eda/altera/altera13.0sp1/nios2eds/bin/gnu/H-i686-pc-linux-gnu/bin/../lib/gcc/nios2-elf/4.1.2/../../../../nios2-elf/lib/libc.a(lib_a-fread.o)
 .comment       0x00000000       0x27 /package/eda/altera/altera13.0sp1/nios2eds/bin/gnu/H-i686-pc-linux-gnu/bin/../lib/gcc/nios2-elf/4.1.2/../../../../nios2-elf/lib/libc.a(lib_a-freer.o)
 .comment       0x00000000       0x27 /package/eda/altera/altera13.0sp1/nios2eds/bin/gnu/H-i686-pc-linux-gnu/bin/../lib/gcc/nios2-elf/4.1.2/../../../../nios2-elf/lib/libc.a(lib_a-fseek.o)
 .comment       0x00000000       0x27 /package/eda/altera/altera13.0sp1/nios2eds/bin/gnu/H-i686-pc-linux-gnu/bin/../lib/gcc/nios2-elf/4.1.2/../../../../nios2-elf/lib/libc.a(lib_a-fstatr.o)
 .comment       0x00000000       0x27 /package/eda/altera/altera13.0sp1/nios2eds/bin/gnu/H-i686-pc-linux-gnu/bin/../lib/gcc/nios2-elf/4.1.2/../../../../nios2-elf/lib/libc.a(lib_a-fwalk.o)
 .comment       0x00000000       0x27 /package/eda/altera/altera13.0sp1/nios2eds/bin/gnu/H-i686-pc-linux-gnu/bin/../lib/gcc/nios2-elf/4.1.2/../../../../nios2-elf/lib/libc.a(lib_a-fwrite.o)
 .comment       0x00000000       0x27 /package/eda/altera/altera13.0sp1/nios2eds/bin/gnu/H-i686-pc-linux-gnu/bin/../lib/gcc/nios2-elf/4.1.2/../../../../nios2-elf/lib/libc.a(lib_a-getc.o)
 .comment       0x00000000       0x27 /package/eda/altera/altera13.0sp1/nios2eds/bin/gnu/H-i686-pc-linux-gnu/bin/../lib/gcc/nios2-elf/4.1.2/../../../../nios2-elf/lib/libc.a(lib_a-getenv.o)
 .comment       0x00000000       0x27 /package/eda/altera/altera13.0sp1/nios2eds/bin/gnu/H-i686-pc-linux-gnu/bin/../lib/gcc/nios2-elf/4.1.2/../../../../nios2-elf/lib/libc.a(lib_a-getenv_r.o)
 .comment       0x00000000       0x27 /package/eda/altera/altera13.0sp1/nios2eds/bin/gnu/H-i686-pc-linux-gnu/bin/../lib/gcc/nios2-elf/4.1.2/../../../../nios2-elf/lib/libc.a(lib_a-impure.o)
 .comment       0x00000000       0x27 /package/eda/altera/altera13.0sp1/nios2eds/bin/gnu/H-i686-pc-linux-gnu/bin/../lib/gcc/nios2-elf/4.1.2/../../../../nios2-elf/lib/libc.a(lib_a-int_errno.o)
 .comment       0x00000000       0x27 /package/eda/altera/altera13.0sp1/nios2eds/bin/gnu/H-i686-pc-linux-gnu/bin/../lib/gcc/nios2-elf/4.1.2/../../../../nios2-elf/lib/libc.a(lib_a-makebuf.o)
 .comment       0x00000000       0x27 /package/eda/altera/altera13.0sp1/nios2eds/bin/gnu/H-i686-pc-linux-gnu/bin/../lib/gcc/nios2-elf/4.1.2/../../../../nios2-elf/lib/libc.a(lib_a-malloc.o)
 .comment       0x00000000       0x27 /package/eda/altera/altera13.0sp1/nios2eds/bin/gnu/H-i686-pc-linux-gnu/bin/../lib/gcc/nios2-elf/4.1.2/../../../../nios2-elf/lib/libc.a(lib_a-mallocr.o)
 .comment       0x00000000       0x27 /package/eda/altera/altera13.0sp1/nios2eds/bin/gnu/H-i686-pc-linux-gnu/bin/../lib/gcc/nios2-elf/4.1.2/../../../../nios2-elf/lib/libc.a(lib_a-memcpy.o)
 .comment       0x00000000       0x27 /package/eda/altera/altera13.0sp1/nios2eds/bin/gnu/H-i686-pc-linux-gnu/bin/../lib/gcc/nios2-elf/4.1.2/../../../../nios2-elf/lib/libc.a(lib_a-memset.o)
 .comment       0x00000000       0x27 /package/eda/altera/altera13.0sp1/nios2eds/bin/gnu/H-i686-pc-linux-gnu/bin/../lib/gcc/nios2-elf/4.1.2/../../../../nios2-elf/lib/libc.a(lib_a-openr.o)
 .comment       0x00000000       0x27 /package/eda/altera/altera13.0sp1/nios2eds/bin/gnu/H-i686-pc-linux-gnu/bin/../lib/gcc/nios2-elf/4.1.2/../../../../nios2-elf/lib/libc.a(lib_a-printf.o)
 .comment       0x00000000       0x27 /package/eda/altera/altera13.0sp1/nios2eds/bin/gnu/H-i686-pc-linux-gnu/bin/../lib/gcc/nios2-elf/4.1.2/../../../../nios2-elf/lib/libc.a(lib_a-putc.o)
 .comment       0x00000000       0x27 /package/eda/altera/altera13.0sp1/nios2eds/bin/gnu/H-i686-pc-linux-gnu/bin/../lib/gcc/nios2-elf/4.1.2/../../../../nios2-elf/lib/libc.a(lib_a-puts.o)
 .comment       0x00000000       0x27 /package/eda/altera/altera13.0sp1/nios2eds/bin/gnu/H-i686-pc-linux-gnu/bin/../lib/gcc/nios2-elf/4.1.2/../../../../nios2-elf/lib/libc.a(lib_a-refill.o)
 .comment       0x00000000       0x27 /package/eda/altera/altera13.0sp1/nios2eds/bin/gnu/H-i686-pc-linux-gnu/bin/../lib/gcc/nios2-elf/4.1.2/../../../../nios2-elf/lib/libc.a(lib_a-rget.o)
 .comment       0x00000000       0x27 /package/eda/altera/altera13.0sp1/nios2eds/bin/gnu/H-i686-pc-linux-gnu/bin/../lib/gcc/nios2-elf/4.1.2/../../../../nios2-elf/lib/libc.a(lib_a-sbrkr.o)
 .comment       0x00000000       0x27 /package/eda/altera/altera13.0sp1/nios2eds/bin/gnu/H-i686-pc-linux-gnu/bin/../lib/gcc/nios2-elf/4.1.2/../../../../nios2-elf/lib/libc.a(lib_a-sprintf.o)
 .comment       0x00000000       0x27 /package/eda/altera/altera13.0sp1/nios2eds/bin/gnu/H-i686-pc-linux-gnu/bin/../lib/gcc/nios2-elf/4.1.2/../../../../nios2-elf/lib/libc.a(lib_a-sscanf.o)
 .comment       0x00000000       0x27 /package/eda/altera/altera13.0sp1/nios2eds/bin/gnu/H-i686-pc-linux-gnu/bin/../lib/gcc/nios2-elf/4.1.2/../../../../nios2-elf/lib/libc.a(lib_a-stdio.o)
 .comment       0x00000000       0x27 /package/eda/altera/altera13.0sp1/nios2eds/bin/gnu/H-i686-pc-linux-gnu/bin/../lib/gcc/nios2-elf/4.1.2/../../../../nios2-elf/lib/libc.a(lib_a-strdup.o)
 .comment       0x00000000       0x27 /package/eda/altera/altera13.0sp1/nios2eds/bin/gnu/H-i686-pc-linux-gnu/bin/../lib/gcc/nios2-elf/4.1.2/../../../../nios2-elf/lib/libc.a(lib_a-strdup_r.o)
 .comment       0x00000000       0x27 /package/eda/altera/altera13.0sp1/nios2eds/bin/gnu/H-i686-pc-linux-gnu/bin/../lib/gcc/nios2-elf/4.1.2/../../../../nios2-elf/lib/libc.a(lib_a-strlen.o)
 .comment       0x00000000       0x27 /package/eda/altera/altera13.0sp1/nios2eds/bin/gnu/H-i686-pc-linux-gnu/bin/../lib/gcc/nios2-elf/4.1.2/../../../../nios2-elf/lib/libc.a(lib_a-strncmp.o)
 .comment       0x00000000       0x27 /package/eda/altera/altera13.0sp1/nios2eds/bin/gnu/H-i686-pc-linux-gnu/bin/../lib/gcc/nios2-elf/4.1.2/../../../../nios2-elf/lib/libc.a(lib_a-vfprintf.o)
 .comment       0x00000000       0x27 /package/eda/altera/altera13.0sp1/nios2eds/bin/gnu/H-i686-pc-linux-gnu/bin/../lib/gcc/nios2-elf/4.1.2/../../../../nios2-elf/lib/libc.a(lib_a-vfscanf.o)
 .comment       0x00000000       0x27 /package/eda/altera/altera13.0sp1/nios2eds/bin/gnu/H-i686-pc-linux-gnu/bin/../lib/gcc/nios2-elf/4.1.2/../../../../nios2-elf/lib/libc.a(lib_a-wbuf.o)
 .comment       0x00000000       0x27 /package/eda/altera/altera13.0sp1/nios2eds/bin/gnu/H-i686-pc-linux-gnu/bin/../lib/gcc/nios2-elf/4.1.2/../../../../nios2-elf/lib/libc.a(lib_a-writer.o)
 .comment       0x00000000       0x27 /package/eda/altera/altera13.0sp1/nios2eds/bin/gnu/H-i686-pc-linux-gnu/bin/../lib/gcc/nios2-elf/4.1.2/../../../../nios2-elf/lib/libc.a(lib_a-wsetup.o)
 .comment       0x00000000       0x27 /package/eda/altera/altera13.0sp1/nios2eds/bin/gnu/H-i686-pc-linux-gnu/bin/../lib/gcc/nios2-elf/4.1.2/../../../../nios2-elf/lib/libc.a(lib_a-__call_atexit.o)
 .comment       0x00000000       0x27 /package/eda/altera/altera13.0sp1/nios2eds/bin/gnu/H-i686-pc-linux-gnu/bin/../lib/gcc/nios2-elf/4.1.2/../../../../nios2-elf/lib/libc.a(lib_a-closer.o)
 .comment       0x00000000       0x27 /package/eda/altera/altera13.0sp1/nios2eds/bin/gnu/H-i686-pc-linux-gnu/bin/../lib/gcc/nios2-elf/4.1.2/../../../../nios2-elf/lib/libc.a(lib_a-dtoa.o)
 .comment       0x00000000       0x27 /package/eda/altera/altera13.0sp1/nios2eds/bin/gnu/H-i686-pc-linux-gnu/bin/../lib/gcc/nios2-elf/4.1.2/../../../../nios2-elf/lib/libc.a(lib_a-environ.o)
 .comment       0x00000000       0x27 /package/eda/altera/altera13.0sp1/nios2eds/bin/gnu/H-i686-pc-linux-gnu/bin/../lib/gcc/nios2-elf/4.1.2/../../../../nios2-elf/lib/libc.a(lib_a-flags.o)
 .comment       0x00000000       0x27 /package/eda/altera/altera13.0sp1/nios2eds/bin/gnu/H-i686-pc-linux-gnu/bin/../lib/gcc/nios2-elf/4.1.2/../../../../nios2-elf/lib/libc.a(lib_a-fvwrite.o)
 .comment       0x00000000       0x27 /package/eda/altera/altera13.0sp1/nios2eds/bin/gnu/H-i686-pc-linux-gnu/bin/../lib/gcc/nios2-elf/4.1.2/../../../../nios2-elf/lib/libc.a(lib_a-isattyr.o)
 .comment       0x00000000       0x27 /package/eda/altera/altera13.0sp1/nios2eds/bin/gnu/H-i686-pc-linux-gnu/bin/../lib/gcc/nios2-elf/4.1.2/../../../../nios2-elf/lib/libc.a(lib_a-iswspace.o)
 .comment       0x00000000       0x27 /package/eda/altera/altera13.0sp1/nios2eds/bin/gnu/H-i686-pc-linux-gnu/bin/../lib/gcc/nios2-elf/4.1.2/../../../../nios2-elf/lib/libc.a(lib_a-locale.o)
 .comment       0x00000000       0x27 /package/eda/altera/altera13.0sp1/nios2eds/bin/gnu/H-i686-pc-linux-gnu/bin/../lib/gcc/nios2-elf/4.1.2/../../../../nios2-elf/lib/libc.a(lib_a-lseekr.o)
 .comment       0x00000000       0x27 /package/eda/altera/altera13.0sp1/nios2eds/bin/gnu/H-i686-pc-linux-gnu/bin/../lib/gcc/nios2-elf/4.1.2/../../../../nios2-elf/lib/libc.a(lib_a-mbrtowc.o)
 .comment       0x00000000       0x27 /package/eda/altera/altera13.0sp1/nios2eds/bin/gnu/H-i686-pc-linux-gnu/bin/../lib/gcc/nios2-elf/4.1.2/../../../../nios2-elf/lib/libc.a(lib_a-mbtowc_r.o)
 .comment       0x00000000       0x27 /package/eda/altera/altera13.0sp1/nios2eds/bin/gnu/H-i686-pc-linux-gnu/bin/../lib/gcc/nios2-elf/4.1.2/../../../../nios2-elf/lib/libc.a(lib_a-memchr.o)
 .comment       0x00000000       0x27 /package/eda/altera/altera13.0sp1/nios2eds/bin/gnu/H-i686-pc-linux-gnu/bin/../lib/gcc/nios2-elf/4.1.2/../../../../nios2-elf/lib/libc.a(lib_a-memmove.o)
 .comment       0x00000000       0x27 /package/eda/altera/altera13.0sp1/nios2eds/bin/gnu/H-i686-pc-linux-gnu/bin/../lib/gcc/nios2-elf/4.1.2/../../../../nios2-elf/lib/libc.a(lib_a-mprec.o)
 .comment       0x00000000       0x27 /package/eda/altera/altera13.0sp1/nios2eds/bin/gnu/H-i686-pc-linux-gnu/bin/../lib/gcc/nios2-elf/4.1.2/../../../../nios2-elf/lib/libc.a(lib_a-readr.o)
 .comment       0x00000000       0x27 /package/eda/altera/altera13.0sp1/nios2eds/bin/gnu/H-i686-pc-linux-gnu/bin/../lib/gcc/nios2-elf/4.1.2/../../../../nios2-elf/lib/libc.a(lib_a-reallocr.o)
 .comment       0x00000000       0x27 /package/eda/altera/altera13.0sp1/nios2eds/bin/gnu/H-i686-pc-linux-gnu/bin/../lib/gcc/nios2-elf/4.1.2/../../../../nios2-elf/lib/libc.a(lib_a-s_isinfd.o)
 .comment       0x00000000       0x27 /package/eda/altera/altera13.0sp1/nios2eds/bin/gnu/H-i686-pc-linux-gnu/bin/../lib/gcc/nios2-elf/4.1.2/../../../../nios2-elf/lib/libc.a(lib_a-s_isnand.o)
 .comment       0x00000000       0x27 /package/eda/altera/altera13.0sp1/nios2eds/bin/gnu/H-i686-pc-linux-gnu/bin/../lib/gcc/nios2-elf/4.1.2/../../../../nios2-elf/lib/libc.a(lib_a-sccl.o)
 .comment       0x00000000       0x27 /package/eda/altera/altera13.0sp1/nios2eds/bin/gnu/H-i686-pc-linux-gnu/bin/../lib/gcc/nios2-elf/4.1.2/../../../../nios2-elf/lib/libc.a(lib_a-sf_nan.o)
 .comment       0x00000000       0x27 /package/eda/altera/altera13.0sp1/nios2eds/bin/gnu/H-i686-pc-linux-gnu/bin/../lib/gcc/nios2-elf/4.1.2/../../../../nios2-elf/lib/libc.a(lib_a-strcmp.o)
 .comment       0x00000000       0x27 /package/eda/altera/altera13.0sp1/nios2eds/bin/gnu/H-i686-pc-linux-gnu/bin/../lib/gcc/nios2-elf/4.1.2/../../../../nios2-elf/lib/libc.a(lib_a-strtod.o)
 .comment       0x00000000       0x27 /package/eda/altera/altera13.0sp1/nios2eds/bin/gnu/H-i686-pc-linux-gnu/bin/../lib/gcc/nios2-elf/4.1.2/../../../../nios2-elf/lib/libc.a(lib_a-strtol.o)
 .comment       0x00000000       0x27 /package/eda/altera/altera13.0sp1/nios2eds/bin/gnu/H-i686-pc-linux-gnu/bin/../lib/gcc/nios2-elf/4.1.2/../../../../nios2-elf/lib/libc.a(lib_a-strtoll_r.o)
 .comment       0x00000000       0x27 /package/eda/altera/altera13.0sp1/nios2eds/bin/gnu/H-i686-pc-linux-gnu/bin/../lib/gcc/nios2-elf/4.1.2/../../../../nios2-elf/lib/libc.a(lib_a-strtoul.o)
 .comment       0x00000000       0x27 /package/eda/altera/altera13.0sp1/nios2eds/bin/gnu/H-i686-pc-linux-gnu/bin/../lib/gcc/nios2-elf/4.1.2/../../../../nios2-elf/lib/libc.a(lib_a-strtoull_r.o)
 .comment       0x00000000       0x27 /package/eda/altera/altera13.0sp1/nios2eds/bin/gnu/H-i686-pc-linux-gnu/bin/../lib/gcc/nios2-elf/4.1.2/../../../../nios2-elf/lib/libc.a(lib_a-ungetc.o)
 .comment       0x00000000       0x27 /package/eda/altera/altera13.0sp1/nios2eds/bin/gnu/H-i686-pc-linux-gnu/bin/../lib/gcc/nios2-elf/4.1.2/../../../../nios2-elf/lib/libc.a(lib_a-callocr.o)
 .comment       0x00000000       0x27 /package/eda/altera/altera13.0sp1/nios2eds/bin/gnu/H-i686-pc-linux-gnu/bin/../lib/gcc/nios2-elf/4.1.2/../../../../nios2-elf/lib/libc.a(lib_a-gdtoa-gethex.o)
 .comment       0x00000000       0x27 /package/eda/altera/altera13.0sp1/nios2eds/bin/gnu/H-i686-pc-linux-gnu/bin/../lib/gcc/nios2-elf/4.1.2/../../../../nios2-elf/lib/libc.a(lib_a-gdtoa-hexnan.o)
 .comment       0x00000000       0x27 /package/eda/altera/altera13.0sp1/nios2eds/bin/gnu/H-i686-pc-linux-gnu/bin/../lib/gcc/nios2-elf/4.1.2/libgcc.a(_fixunsdfsi.o)
 .comment       0x00000000       0x27 /package/eda/altera/altera13.0sp1/nios2eds/bin/gnu/H-i686-pc-linux-gnu/bin/../lib/gcc/nios2-elf/4.1.2/libgcc.a(_udivdi3.o)
 .comment       0x00000000       0x27 /package/eda/altera/altera13.0sp1/nios2eds/bin/gnu/H-i686-pc-linux-gnu/bin/../lib/gcc/nios2-elf/4.1.2/libgcc.a(_umoddi3.o)
 .comment       0x00000000       0x27 /package/eda/altera/altera13.0sp1/nios2eds/bin/gnu/H-i686-pc-linux-gnu/bin/../lib/gcc/nios2-elf/4.1.2/libgcc.a(_ne_sf.o)
 .comment       0x00000000       0x27 /package/eda/altera/altera13.0sp1/nios2eds/bin/gnu/H-i686-pc-linux-gnu/bin/../lib/gcc/nios2-elf/4.1.2/libgcc.a(_gt_sf.o)
 .comment       0x00000000       0x27 /package/eda/altera/altera13.0sp1/nios2eds/bin/gnu/H-i686-pc-linux-gnu/bin/../lib/gcc/nios2-elf/4.1.2/libgcc.a(_lt_sf.o)
 .comment       0x00000000       0x27 /package/eda/altera/altera13.0sp1/nios2eds/bin/gnu/H-i686-pc-linux-gnu/bin/../lib/gcc/nios2-elf/4.1.2/libgcc.a(_addsub_df.o)
 .comment       0x00000000       0x27 /package/eda/altera/altera13.0sp1/nios2eds/bin/gnu/H-i686-pc-linux-gnu/bin/../lib/gcc/nios2-elf/4.1.2/libgcc.a(_eq_df.o)
 .comment       0x00000000       0x27 /package/eda/altera/altera13.0sp1/nios2eds/bin/gnu/H-i686-pc-linux-gnu/bin/../lib/gcc/nios2-elf/4.1.2/libgcc.a(_ne_df.o)
 .comment       0x00000000       0x27 /package/eda/altera/altera13.0sp1/nios2eds/bin/gnu/H-i686-pc-linux-gnu/bin/../lib/gcc/nios2-elf/4.1.2/libgcc.a(_gt_df.o)
 .comment       0x00000000       0x27 /package/eda/altera/altera13.0sp1/nios2eds/bin/gnu/H-i686-pc-linux-gnu/bin/../lib/gcc/nios2-elf/4.1.2/libgcc.a(_ge_df.o)
 .comment       0x00000000       0x27 /package/eda/altera/altera13.0sp1/nios2eds/bin/gnu/H-i686-pc-linux-gnu/bin/../lib/gcc/nios2-elf/4.1.2/libgcc.a(_lt_df.o)
 .comment       0x00000000       0x27 /package/eda/altera/altera13.0sp1/nios2eds/bin/gnu/H-i686-pc-linux-gnu/bin/../lib/gcc/nios2-elf/4.1.2/libgcc.a(_le_df.o)
 .comment       0x00000000       0x27 /package/eda/altera/altera13.0sp1/nios2eds/bin/gnu/H-i686-pc-linux-gnu/bin/../lib/gcc/nios2-elf/4.1.2/libgcc.a(_si_to_df.o)
 .comment       0x00000000       0x27 /package/eda/altera/altera13.0sp1/nios2eds/bin/gnu/H-i686-pc-linux-gnu/bin/../lib/gcc/nios2-elf/4.1.2/libgcc.a(_df_to_si.o)
 .comment       0x00000000       0x27 /package/eda/altera/altera13.0sp1/nios2eds/bin/gnu/H-i686-pc-linux-gnu/bin/../lib/gcc/nios2-elf/4.1.2/libgcc.a(_fpcmp_parts_sf.o)
 .comment       0x00000000       0x27 /package/eda/altera/altera13.0sp1/nios2eds/bin/gnu/H-i686-pc-linux-gnu/bin/../lib/gcc/nios2-elf/4.1.2/libgcc.a(_fpcmp_parts_df.o)
 .comment       0x00000000       0x27 ../demo_board_NiosIIf_bsp//libhal_bsp.a(alt_close.o)
 .comment       0x00000000       0x27 ../demo_board_NiosIIf_bsp//libhal_bsp.a(alt_dcache_flush.o)
 .comment       0x00000000       0x27 ../demo_board_NiosIIf_bsp//libhal_bsp.a(alt_dev.o)
 .comment       0x00000000       0x27 ../demo_board_NiosIIf_bsp//libhal_bsp.a(alt_env_lock.o)
 .comment       0x00000000       0x27 ../demo_board_NiosIIf_bsp//libhal_bsp.a(alt_errno.o)
 .comment       0x00000000       0x27 ../demo_board_NiosIIf_bsp//libhal_bsp.a(alt_exit.o)
 .comment       0x00000000       0x27 ../demo_board_NiosIIf_bsp//libhal_bsp.a(alt_fstat.o)
 .comment       0x00000000       0x27 ../demo_board_NiosIIf_bsp//libhal_bsp.a(alt_isatty.o)
 .comment       0x00000000       0x27 ../demo_board_NiosIIf_bsp//libhal_bsp.a(alt_load.o)
 .comment       0x00000000       0x27 ../demo_board_NiosIIf_bsp//libhal_bsp.a(alt_lseek.o)
 .comment       0x00000000       0x27 ../demo_board_NiosIIf_bsp//libhal_bsp.a(alt_main.o)
 .comment       0x00000000       0x27 ../demo_board_NiosIIf_bsp//libhal_bsp.a(alt_malloc_lock.o)
 .comment       0x00000000       0x27 ../demo_board_NiosIIf_bsp//libhal_bsp.a(alt_open.o)
 .comment       0x00000000       0x27 ../demo_board_NiosIIf_bsp//libhal_bsp.a(alt_read.o)
 .comment       0x00000000       0x27 ../demo_board_NiosIIf_bsp//libhal_bsp.a(alt_release_fd.o)
 .comment       0x00000000       0x27 ../demo_board_NiosIIf_bsp//libhal_bsp.a(alt_sbrk.o)
 .comment       0x00000000       0x27 ../demo_board_NiosIIf_bsp//libhal_bsp.a(alt_write.o)
 .comment       0x00000000       0x27 ../demo_board_NiosIIf_bsp//libhal_bsp.a(alt_sys_init.o)
 .comment       0x00000000       0x27 ../demo_board_NiosIIf_bsp//libhal_bsp.a(altera_avalon_cfi_flash.o)
 .comment       0x00000000       0x27 ../demo_board_NiosIIf_bsp//libhal_bsp.a(altera_avalon_cfi_flash_table.o)
 .comment       0x00000000       0x27 ../demo_board_NiosIIf_bsp//libhal_bsp.a(altera_avalon_jtag_uart_fd.o)
 .comment       0x00000000       0x27 ../demo_board_NiosIIf_bsp//libhal_bsp.a(altera_avalon_jtag_uart_init.o)
 .comment       0x00000000       0x27 ../demo_board_NiosIIf_bsp//libhal_bsp.a(altera_avalon_jtag_uart_ioctl.o)
 .comment       0x00000000       0x27 ../demo_board_NiosIIf_bsp//libhal_bsp.a(altera_avalon_jtag_uart_read.o)
 .comment       0x00000000       0x27 ../demo_board_NiosIIf_bsp//libhal_bsp.a(altera_avalon_jtag_uart_write.o)
 .comment       0x00000000       0x27 ../demo_board_NiosIIf_bsp//libhal_bsp.a(altera_avalon_performance_counter.o)
 .comment       0x00000000       0x27 ../demo_board_NiosIIf_bsp//libhal_bsp.a(altera_avalon_timer_sc.o)
 .comment       0x00000000       0x27 ../demo_board_NiosIIf_bsp//libhal_bsp.a(altera_ro_zipfs.o)
 .comment       0x00000000       0x27 ../demo_board_NiosIIf_bsp//libhal_bsp.a(altera_up_avalon_video_pixel_buffer_dma.o)
 .comment       0x00000000       0x27 ../demo_board_NiosIIf_bsp//libhal_bsp.a(perf_print_formatted_report.o)
 .comment       0x00000000       0x27 ../demo_board_NiosIIf_bsp//libhal_bsp.a(alt_alarm_start.o)
 .comment       0x00000000       0x27 ../demo_board_NiosIIf_bsp//libhal_bsp.a(alt_dcache_flush_all.o)
 .comment       0x00000000       0x27 ../demo_board_NiosIIf_bsp//libhal_bsp.a(alt_dev_llist_insert.o)
 .comment       0x00000000       0x27 ../demo_board_NiosIIf_bsp//libhal_bsp.a(alt_do_ctors.o)
 .comment       0x00000000       0x27 ../demo_board_NiosIIf_bsp//libhal_bsp.a(alt_do_dtors.o)
 .comment       0x00000000       0x27 ../demo_board_NiosIIf_bsp//libhal_bsp.a(alt_find_dev.o)
 .comment       0x00000000       0x27 ../demo_board_NiosIIf_bsp//libhal_bsp.a(alt_find_file.o)
 .comment       0x00000000       0x27 ../demo_board_NiosIIf_bsp//libhal_bsp.a(alt_flash_dev.o)
 .comment       0x00000000       0x27 ../demo_board_NiosIIf_bsp//libhal_bsp.a(alt_fs_reg.o)
 .comment       0x00000000       0x27 ../demo_board_NiosIIf_bsp//libhal_bsp.a(alt_get_fd.o)
 .comment       0x00000000       0x27 ../demo_board_NiosIIf_bsp//libhal_bsp.a(alt_icache_flush_all.o)
 .comment       0x00000000       0x27 ../demo_board_NiosIIf_bsp//libhal_bsp.a(alt_iic.o)
 .comment       0x00000000       0x27 ../demo_board_NiosIIf_bsp//libhal_bsp.a(alt_iic_isr_register.o)
 .comment       0x00000000       0x27 ../demo_board_NiosIIf_bsp//libhal_bsp.a(alt_io_redirect.o)
 .comment       0x00000000       0x27 ../demo_board_NiosIIf_bsp//libhal_bsp.a(alt_irq_handler.o)
 .comment       0x00000000       0x27 ../demo_board_NiosIIf_bsp//libhal_bsp.a(alt_irq_vars.o)
 .comment       0x00000000       0x27 ../demo_board_NiosIIf_bsp//libhal_bsp.a(alt_tick.o)
 .comment       0x00000000       0x27 ../demo_board_NiosIIf_bsp//libhal_bsp.a(altera_nios2_qsys_irq.o)
 .comment       0x00000000       0x27 ../demo_board_NiosIIf_bsp//libhal_bsp.a(altera_avalon_cfi_flash_amd.o)
 .comment       0x00000000       0x27 ../demo_board_NiosIIf_bsp//libhal_bsp.a(altera_avalon_cfi_flash_intel.o)
 .comment       0x00000000       0x27 ../demo_board_NiosIIf_bsp//libhal_bsp.a(alt_icache_flush.o)
 .comment       0x00000000       0x27 ../demo_board_NiosIIf_bsp//libhal_bsp.a(alt_usleep.o)
 .comment       0x00000000       0x27 ../demo_board_NiosIIf_bsp//libhal_bsp.a(alt_busy_sleep.o)
 .comment       0x00000000       0x27 /package/eda/altera/altera13.0sp1/nios2eds/bin/gnu/H-i686-pc-linux-gnu/bin/../lib/gcc/nios2-elf/4.1.2/../../../../nios2-elf/lib/libc.a(lib_a-atexit.o)
 .comment       0x00000000       0x27 /package/eda/altera/altera13.0sp1/nios2eds/bin/gnu/H-i686-pc-linux-gnu/bin/../lib/gcc/nios2-elf/4.1.2/../../../../nios2-elf/lib/libc.a(lib_a-memcmp.o)
 .comment       0x00000000       0x27 /package/eda/altera/altera13.0sp1/nios2eds/bin/gnu/H-i686-pc-linux-gnu/bin/../lib/gcc/nios2-elf/4.1.2/../../../../nios2-elf/lib/libc.a(lib_a-__atexit.o)
 .comment       0x00000000       0x27 /package/eda/altera/altera13.0sp1/nios2eds/bin/gnu/H-i686-pc-linux-gnu/bin/../lib/gcc/nios2-elf/4.1.2/libgcc.a(_floatundidf.o)

.debug
 *(.debug)

.line
 *(.line)

.debug_srcinfo
 *(.debug_srcinfo)

.debug_sfnames
 *(.debug_sfnames)

.debug_aranges  0x00000000     0x1af8
 *(.debug_aranges)
 .debug_aranges
                0x00000000       0x28 ../demo_board_NiosIIf_bsp//obj/HAL/src/crt0.o
 .debug_aranges
                0x00000028       0x20 obj/default/cdjpeg.o
 .debug_aranges
                0x00000048       0x20 obj/default/djpeg.o
 .debug_aranges
                0x00000068       0x20 obj/default/jcapimin.o
 .debug_aranges
                0x00000088       0x20 obj/default/jcapistd.o
 .debug_aranges
                0x000000a8       0x20 obj/default/jccoefct.o
 .debug_aranges
                0x000000c8       0x20 obj/default/jccolor.o
 .debug_aranges
                0x000000e8       0x20 obj/default/jcdctmgr.o
 .debug_aranges
                0x00000108       0x20 obj/default/jchuff.o
 .debug_aranges
                0x00000128       0x20 obj/default/jcinit.o
 .debug_aranges
                0x00000148       0x20 obj/default/jcmainct.o
 .debug_aranges
                0x00000168       0x20 obj/default/jcmarker.o
 .debug_aranges
                0x00000188       0x20 obj/default/jcmaster.o
 .debug_aranges
                0x000001a8       0x20 obj/default/jcomapi.o
 .debug_aranges
                0x000001c8       0x20 obj/default/jcparam.o
 .debug_aranges
                0x000001e8       0x20 obj/default/jcphuff.o
 .debug_aranges
                0x00000208       0x20 obj/default/jcprepct.o
 .debug_aranges
                0x00000228       0x20 obj/default/jcsample.o
 .debug_aranges
                0x00000248       0x20 obj/default/jctrans.o
 .debug_aranges
                0x00000268       0x20 obj/default/jdapimin.o
 .debug_aranges
                0x00000288       0x20 obj/default/jdapistd.o
 .debug_aranges
                0x000002a8       0x20 obj/default/jdatadst.o
 .debug_aranges
                0x000002c8       0x20 obj/default/jdatasrc.o
 .debug_aranges
                0x000002e8       0x20 obj/default/jdcoefct.o
 .debug_aranges
                0x00000308       0x20 obj/default/jdcolor.o
 .debug_aranges
                0x00000328       0x20 obj/default/jddctmgr.o
 .debug_aranges
                0x00000348       0x20 obj/default/jdhuff.o
 .debug_aranges
                0x00000368       0x20 obj/default/jdinput.o
 .debug_aranges
                0x00000388       0x20 obj/default/jdmainct.o
 .debug_aranges
                0x000003a8       0x20 obj/default/jdmarker.o
 .debug_aranges
                0x000003c8       0x20 obj/default/jdmaster.o
 .debug_aranges
                0x000003e8       0x20 obj/default/jdmerge.o
 .debug_aranges
                0x00000408       0x20 obj/default/jdphuff.o
 .debug_aranges
                0x00000428       0x20 obj/default/jdpostct.o
 .debug_aranges
                0x00000448       0x20 obj/default/jdsample.o
 .debug_aranges
                0x00000468       0x20 obj/default/jdtrans.o
 .debug_aranges
                0x00000488       0x20 obj/default/jerror.o
 .debug_aranges
                0x000004a8       0x20 obj/default/jfdctflt.o
 .debug_aranges
                0x000004c8       0x20 obj/default/jfdctfst.o
 .debug_aranges
                0x000004e8       0x20 obj/default/jfdctint.o
 .debug_aranges
                0x00000508       0x20 obj/default/jidctflt.o
 .debug_aranges
                0x00000528       0x20 obj/default/jidctfst.o
 .debug_aranges
                0x00000548       0x20 obj/default/jidctint.o
 .debug_aranges
                0x00000568       0x20 obj/default/jidctred.o
 .debug_aranges
                0x00000588       0x20 obj/default/jmemmgr.o
 .debug_aranges
                0x000005a8       0x20 obj/default/jmemnobs.o
 .debug_aranges
                0x000005c8       0x20 obj/default/jquant1.o
 .debug_aranges
                0x000005e8       0x20 obj/default/jquant2.o
 .debug_aranges
                0x00000608       0x20 obj/default/jutils.o
 .debug_aranges
                0x00000628       0x20 obj/default/rdcolmap.o
 .debug_aranges
                0x00000648       0x20 obj/default/wrbmp.o
 .debug_aranges
                0x00000668       0x20 obj/default/wrgif.o
 .debug_aranges
                0x00000688       0x20 obj/default/wrppm.o
 .debug_aranges
                0x000006a8       0x20 obj/default/wrtarga.o
 .debug_aranges
                0x000006c8       0x20 /package/eda/altera/altera13.0sp1/nios2eds/bin/gnu/H-i686-pc-linux-gnu/bin/../lib/gcc/nios2-elf/4.1.2/libgcc.a(_addsub_sf.o)
 .debug_aranges
                0x000006e8       0x20 /package/eda/altera/altera13.0sp1/nios2eds/bin/gnu/H-i686-pc-linux-gnu/bin/../lib/gcc/nios2-elf/4.1.2/libgcc.a(_mul_sf.o)
 .debug_aranges
                0x00000708       0x20 /package/eda/altera/altera13.0sp1/nios2eds/bin/gnu/H-i686-pc-linux-gnu/bin/../lib/gcc/nios2-elf/4.1.2/libgcc.a(_si_to_sf.o)
 .debug_aranges
                0x00000728       0x20 /package/eda/altera/altera13.0sp1/nios2eds/bin/gnu/H-i686-pc-linux-gnu/bin/../lib/gcc/nios2-elf/4.1.2/libgcc.a(_sf_to_si.o)
 .debug_aranges
                0x00000748       0x20 /package/eda/altera/altera13.0sp1/nios2eds/bin/gnu/H-i686-pc-linux-gnu/bin/../lib/gcc/nios2-elf/4.1.2/libgcc.a(_mul_df.o)
 .debug_aranges
                0x00000768       0x20 /package/eda/altera/altera13.0sp1/nios2eds/bin/gnu/H-i686-pc-linux-gnu/bin/../lib/gcc/nios2-elf/4.1.2/libgcc.a(_div_df.o)
 .debug_aranges
                0x00000788       0x20 /package/eda/altera/altera13.0sp1/nios2eds/bin/gnu/H-i686-pc-linux-gnu/bin/../lib/gcc/nios2-elf/4.1.2/libgcc.a(_df_to_sf.o)
 .debug_aranges
                0x000007a8       0x20 /package/eda/altera/altera13.0sp1/nios2eds/bin/gnu/H-i686-pc-linux-gnu/bin/../lib/gcc/nios2-elf/4.1.2/libgcc.a(_usi_to_df.o)
 .debug_aranges
                0x000007c8       0x20 /package/eda/altera/altera13.0sp1/nios2eds/bin/gnu/H-i686-pc-linux-gnu/bin/../lib/gcc/nios2-elf/4.1.2/libgcc.a(lib2-divmod.o)
 .debug_aranges
                0x000007e8       0x20 /package/eda/altera/altera13.0sp1/nios2eds/bin/gnu/H-i686-pc-linux-gnu/bin/../lib/gcc/nios2-elf/4.1.2/libgcc.a(_muldi3.o)
 .debug_aranges
                0x00000808       0x20 /package/eda/altera/altera13.0sp1/nios2eds/bin/gnu/H-i686-pc-linux-gnu/bin/../lib/gcc/nios2-elf/4.1.2/libgcc.a(_clzsi2.o)
 .debug_aranges
                0x00000828       0x20 /package/eda/altera/altera13.0sp1/nios2eds/bin/gnu/H-i686-pc-linux-gnu/bin/../lib/gcc/nios2-elf/4.1.2/libgcc.a(_pack_sf.o)
 .debug_aranges
                0x00000848       0x20 /package/eda/altera/altera13.0sp1/nios2eds/bin/gnu/H-i686-pc-linux-gnu/bin/../lib/gcc/nios2-elf/4.1.2/libgcc.a(_unpack_sf.o)
 .debug_aranges
                0x00000868       0x20 /package/eda/altera/altera13.0sp1/nios2eds/bin/gnu/H-i686-pc-linux-gnu/bin/../lib/gcc/nios2-elf/4.1.2/libgcc.a(_make_sf.o)
 .debug_aranges
                0x00000888       0x20 /package/eda/altera/altera13.0sp1/nios2eds/bin/gnu/H-i686-pc-linux-gnu/bin/../lib/gcc/nios2-elf/4.1.2/libgcc.a(_pack_df.o)
 .debug_aranges
                0x000008a8       0x20 /package/eda/altera/altera13.0sp1/nios2eds/bin/gnu/H-i686-pc-linux-gnu/bin/../lib/gcc/nios2-elf/4.1.2/libgcc.a(_unpack_df.o)
 .debug_aranges
                0x000008c8       0x20 /package/eda/altera/altera13.0sp1/nios2eds/bin/gnu/H-i686-pc-linux-gnu/bin/../lib/gcc/nios2-elf/4.1.2/../../../../nios2-elf/lib/libc.a(lib_a-exit.o)
 .debug_aranges
                0x000008e8       0x20 /package/eda/altera/altera13.0sp1/nios2eds/bin/gnu/H-i686-pc-linux-gnu/bin/../lib/gcc/nios2-elf/4.1.2/../../../../nios2-elf/lib/libc.a(lib_a-fclose.o)
 .debug_aranges
                0x00000908       0x20 /package/eda/altera/altera13.0sp1/nios2eds/bin/gnu/H-i686-pc-linux-gnu/bin/../lib/gcc/nios2-elf/4.1.2/../../../../nios2-elf/lib/libc.a(lib_a-fflush.o)
 .debug_aranges
                0x00000928       0x20 /package/eda/altera/altera13.0sp1/nios2eds/bin/gnu/H-i686-pc-linux-gnu/bin/../lib/gcc/nios2-elf/4.1.2/../../../../nios2-elf/lib/libc.a(lib_a-findfp.o)
 .debug_aranges
                0x00000948       0x20 /package/eda/altera/altera13.0sp1/nios2eds/bin/gnu/H-i686-pc-linux-gnu/bin/../lib/gcc/nios2-elf/4.1.2/../../../../nios2-elf/lib/libc.a(lib_a-fopen.o)
 .debug_aranges
                0x00000968       0x20 /package/eda/altera/altera13.0sp1/nios2eds/bin/gnu/H-i686-pc-linux-gnu/bin/../lib/gcc/nios2-elf/4.1.2/../../../../nios2-elf/lib/libc.a(lib_a-fprintf.o)
 .debug_aranges
                0x00000988       0x20 /package/eda/altera/altera13.0sp1/nios2eds/bin/gnu/H-i686-pc-linux-gnu/bin/../lib/gcc/nios2-elf/4.1.2/../../../../nios2-elf/lib/libc.a(lib_a-fputc.o)
 .debug_aranges
                0x000009a8       0x20 /package/eda/altera/altera13.0sp1/nios2eds/bin/gnu/H-i686-pc-linux-gnu/bin/../lib/gcc/nios2-elf/4.1.2/../../../../nios2-elf/lib/libc.a(lib_a-fread.o)
 .debug_aranges
                0x000009c8       0x20 /package/eda/altera/altera13.0sp1/nios2eds/bin/gnu/H-i686-pc-linux-gnu/bin/../lib/gcc/nios2-elf/4.1.2/../../../../nios2-elf/lib/libc.a(lib_a-freer.o)
 .debug_aranges
                0x000009e8       0x20 /package/eda/altera/altera13.0sp1/nios2eds/bin/gnu/H-i686-pc-linux-gnu/bin/../lib/gcc/nios2-elf/4.1.2/../../../../nios2-elf/lib/libc.a(lib_a-fseek.o)
 .debug_aranges
                0x00000a08       0x20 /package/eda/altera/altera13.0sp1/nios2eds/bin/gnu/H-i686-pc-linux-gnu/bin/../lib/gcc/nios2-elf/4.1.2/../../../../nios2-elf/lib/libc.a(lib_a-fstatr.o)
 .debug_aranges
                0x00000a28       0x20 /package/eda/altera/altera13.0sp1/nios2eds/bin/gnu/H-i686-pc-linux-gnu/bin/../lib/gcc/nios2-elf/4.1.2/../../../../nios2-elf/lib/libc.a(lib_a-fwalk.o)
 .debug_aranges
                0x00000a48       0x20 /package/eda/altera/altera13.0sp1/nios2eds/bin/gnu/H-i686-pc-linux-gnu/bin/../lib/gcc/nios2-elf/4.1.2/../../../../nios2-elf/lib/libc.a(lib_a-fwrite.o)
 .debug_aranges
                0x00000a68       0x20 /package/eda/altera/altera13.0sp1/nios2eds/bin/gnu/H-i686-pc-linux-gnu/bin/../lib/gcc/nios2-elf/4.1.2/../../../../nios2-elf/lib/libc.a(lib_a-getc.o)
 .debug_aranges
                0x00000a88       0x20 /package/eda/altera/altera13.0sp1/nios2eds/bin/gnu/H-i686-pc-linux-gnu/bin/../lib/gcc/nios2-elf/4.1.2/../../../../nios2-elf/lib/libc.a(lib_a-getenv.o)
 .debug_aranges
                0x00000aa8       0x20 /package/eda/altera/altera13.0sp1/nios2eds/bin/gnu/H-i686-pc-linux-gnu/bin/../lib/gcc/nios2-elf/4.1.2/../../../../nios2-elf/lib/libc.a(lib_a-getenv_r.o)
 .debug_aranges
                0x00000ac8       0x20 /package/eda/altera/altera13.0sp1/nios2eds/bin/gnu/H-i686-pc-linux-gnu/bin/../lib/gcc/nios2-elf/4.1.2/../../../../nios2-elf/lib/libc.a(lib_a-makebuf.o)
 .debug_aranges
                0x00000ae8       0x20 /package/eda/altera/altera13.0sp1/nios2eds/bin/gnu/H-i686-pc-linux-gnu/bin/../lib/gcc/nios2-elf/4.1.2/../../../../nios2-elf/lib/libc.a(lib_a-malloc.o)
 .debug_aranges
                0x00000b08       0x20 /package/eda/altera/altera13.0sp1/nios2eds/bin/gnu/H-i686-pc-linux-gnu/bin/../lib/gcc/nios2-elf/4.1.2/../../../../nios2-elf/lib/libc.a(lib_a-mallocr.o)
 .debug_aranges
                0x00000b28       0x20 /package/eda/altera/altera13.0sp1/nios2eds/bin/gnu/H-i686-pc-linux-gnu/bin/../lib/gcc/nios2-elf/4.1.2/../../../../nios2-elf/lib/libc.a(lib_a-memcpy.o)
 .debug_aranges
                0x00000b48       0x20 /package/eda/altera/altera13.0sp1/nios2eds/bin/gnu/H-i686-pc-linux-gnu/bin/../lib/gcc/nios2-elf/4.1.2/../../../../nios2-elf/lib/libc.a(lib_a-memset.o)
 .debug_aranges
                0x00000b68       0x20 /package/eda/altera/altera13.0sp1/nios2eds/bin/gnu/H-i686-pc-linux-gnu/bin/../lib/gcc/nios2-elf/4.1.2/../../../../nios2-elf/lib/libc.a(lib_a-openr.o)
 .debug_aranges
                0x00000b88       0x20 /package/eda/altera/altera13.0sp1/nios2eds/bin/gnu/H-i686-pc-linux-gnu/bin/../lib/gcc/nios2-elf/4.1.2/../../../../nios2-elf/lib/libc.a(lib_a-printf.o)
 .debug_aranges
                0x00000ba8       0x20 /package/eda/altera/altera13.0sp1/nios2eds/bin/gnu/H-i686-pc-linux-gnu/bin/../lib/gcc/nios2-elf/4.1.2/../../../../nios2-elf/lib/libc.a(lib_a-putc.o)
 .debug_aranges
                0x00000bc8       0x20 /package/eda/altera/altera13.0sp1/nios2eds/bin/gnu/H-i686-pc-linux-gnu/bin/../lib/gcc/nios2-elf/4.1.2/../../../../nios2-elf/lib/libc.a(lib_a-puts.o)
 .debug_aranges
                0x00000be8       0x20 /package/eda/altera/altera13.0sp1/nios2eds/bin/gnu/H-i686-pc-linux-gnu/bin/../lib/gcc/nios2-elf/4.1.2/../../../../nios2-elf/lib/libc.a(lib_a-refill.o)
 .debug_aranges
                0x00000c08       0x20 /package/eda/altera/altera13.0sp1/nios2eds/bin/gnu/H-i686-pc-linux-gnu/bin/../lib/gcc/nios2-elf/4.1.2/../../../../nios2-elf/lib/libc.a(lib_a-rget.o)
 .debug_aranges
                0x00000c28       0x20 /package/eda/altera/altera13.0sp1/nios2eds/bin/gnu/H-i686-pc-linux-gnu/bin/../lib/gcc/nios2-elf/4.1.2/../../../../nios2-elf/lib/libc.a(lib_a-sbrkr.o)
 .debug_aranges
                0x00000c48       0x20 /package/eda/altera/altera13.0sp1/nios2eds/bin/gnu/H-i686-pc-linux-gnu/bin/../lib/gcc/nios2-elf/4.1.2/../../../../nios2-elf/lib/libc.a(lib_a-sprintf.o)
 .debug_aranges
                0x00000c68       0x20 /package/eda/altera/altera13.0sp1/nios2eds/bin/gnu/H-i686-pc-linux-gnu/bin/../lib/gcc/nios2-elf/4.1.2/../../../../nios2-elf/lib/libc.a(lib_a-sscanf.o)
 .debug_aranges
                0x00000c88       0x20 /package/eda/altera/altera13.0sp1/nios2eds/bin/gnu/H-i686-pc-linux-gnu/bin/../lib/gcc/nios2-elf/4.1.2/../../../../nios2-elf/lib/libc.a(lib_a-stdio.o)
 .debug_aranges
                0x00000ca8       0x20 /package/eda/altera/altera13.0sp1/nios2eds/bin/gnu/H-i686-pc-linux-gnu/bin/../lib/gcc/nios2-elf/4.1.2/../../../../nios2-elf/lib/libc.a(lib_a-strdup.o)
 .debug_aranges
                0x00000cc8       0x20 /package/eda/altera/altera13.0sp1/nios2eds/bin/gnu/H-i686-pc-linux-gnu/bin/../lib/gcc/nios2-elf/4.1.2/../../../../nios2-elf/lib/libc.a(lib_a-strdup_r.o)
 .debug_aranges
                0x00000ce8       0x20 /package/eda/altera/altera13.0sp1/nios2eds/bin/gnu/H-i686-pc-linux-gnu/bin/../lib/gcc/nios2-elf/4.1.2/../../../../nios2-elf/lib/libc.a(lib_a-strlen.o)
 .debug_aranges
                0x00000d08       0x20 /package/eda/altera/altera13.0sp1/nios2eds/bin/gnu/H-i686-pc-linux-gnu/bin/../lib/gcc/nios2-elf/4.1.2/../../../../nios2-elf/lib/libc.a(lib_a-strncmp.o)
 .debug_aranges
                0x00000d28       0x20 /package/eda/altera/altera13.0sp1/nios2eds/bin/gnu/H-i686-pc-linux-gnu/bin/../lib/gcc/nios2-elf/4.1.2/../../../../nios2-elf/lib/libc.a(lib_a-vfprintf.o)
 .debug_aranges
                0x00000d48       0x20 /package/eda/altera/altera13.0sp1/nios2eds/bin/gnu/H-i686-pc-linux-gnu/bin/../lib/gcc/nios2-elf/4.1.2/../../../../nios2-elf/lib/libc.a(lib_a-vfscanf.o)
 .debug_aranges
                0x00000d68       0x20 /package/eda/altera/altera13.0sp1/nios2eds/bin/gnu/H-i686-pc-linux-gnu/bin/../lib/gcc/nios2-elf/4.1.2/../../../../nios2-elf/lib/libc.a(lib_a-wbuf.o)
 .debug_aranges
                0x00000d88       0x20 /package/eda/altera/altera13.0sp1/nios2eds/bin/gnu/H-i686-pc-linux-gnu/bin/../lib/gcc/nios2-elf/4.1.2/../../../../nios2-elf/lib/libc.a(lib_a-writer.o)
 .debug_aranges
                0x00000da8       0x20 /package/eda/altera/altera13.0sp1/nios2eds/bin/gnu/H-i686-pc-linux-gnu/bin/../lib/gcc/nios2-elf/4.1.2/../../../../nios2-elf/lib/libc.a(lib_a-wsetup.o)
 .debug_aranges
                0x00000dc8       0x20 /package/eda/altera/altera13.0sp1/nios2eds/bin/gnu/H-i686-pc-linux-gnu/bin/../lib/gcc/nios2-elf/4.1.2/../../../../nios2-elf/lib/libc.a(lib_a-__call_atexit.o)
 .debug_aranges
                0x00000de8       0x20 /package/eda/altera/altera13.0sp1/nios2eds/bin/gnu/H-i686-pc-linux-gnu/bin/../lib/gcc/nios2-elf/4.1.2/../../../../nios2-elf/lib/libc.a(lib_a-closer.o)
 .debug_aranges
                0x00000e08       0x20 /package/eda/altera/altera13.0sp1/nios2eds/bin/gnu/H-i686-pc-linux-gnu/bin/../lib/gcc/nios2-elf/4.1.2/../../../../nios2-elf/lib/libc.a(lib_a-dtoa.o)
 .debug_aranges
                0x00000e28       0x20 /package/eda/altera/altera13.0sp1/nios2eds/bin/gnu/H-i686-pc-linux-gnu/bin/../lib/gcc/nios2-elf/4.1.2/../../../../nios2-elf/lib/libc.a(lib_a-flags.o)
 .debug_aranges
                0x00000e48       0x20 /package/eda/altera/altera13.0sp1/nios2eds/bin/gnu/H-i686-pc-linux-gnu/bin/../lib/gcc/nios2-elf/4.1.2/../../../../nios2-elf/lib/libc.a(lib_a-fvwrite.o)
 .debug_aranges
                0x00000e68       0x20 /package/eda/altera/altera13.0sp1/nios2eds/bin/gnu/H-i686-pc-linux-gnu/bin/../lib/gcc/nios2-elf/4.1.2/../../../../nios2-elf/lib/libc.a(lib_a-isattyr.o)
 .debug_aranges
                0x00000e88       0x20 /package/eda/altera/altera13.0sp1/nios2eds/bin/gnu/H-i686-pc-linux-gnu/bin/../lib/gcc/nios2-elf/4.1.2/../../../../nios2-elf/lib/libc.a(lib_a-iswspace.o)
 .debug_aranges
                0x00000ea8       0x20 /package/eda/altera/altera13.0sp1/nios2eds/bin/gnu/H-i686-pc-linux-gnu/bin/../lib/gcc/nios2-elf/4.1.2/../../../../nios2-elf/lib/libc.a(lib_a-locale.o)
 .debug_aranges
                0x00000ec8       0x20 /package/eda/altera/altera13.0sp1/nios2eds/bin/gnu/H-i686-pc-linux-gnu/bin/../lib/gcc/nios2-elf/4.1.2/../../../../nios2-elf/lib/libc.a(lib_a-lseekr.o)
 .debug_aranges
                0x00000ee8       0x20 /package/eda/altera/altera13.0sp1/nios2eds/bin/gnu/H-i686-pc-linux-gnu/bin/../lib/gcc/nios2-elf/4.1.2/../../../../nios2-elf/lib/libc.a(lib_a-mbrtowc.o)
 .debug_aranges
                0x00000f08       0x20 /package/eda/altera/altera13.0sp1/nios2eds/bin/gnu/H-i686-pc-linux-gnu/bin/../lib/gcc/nios2-elf/4.1.2/../../../../nios2-elf/lib/libc.a(lib_a-mbtowc_r.o)
 .debug_aranges
                0x00000f28       0x20 /package/eda/altera/altera13.0sp1/nios2eds/bin/gnu/H-i686-pc-linux-gnu/bin/../lib/gcc/nios2-elf/4.1.2/../../../../nios2-elf/lib/libc.a(lib_a-memchr.o)
 .debug_aranges
                0x00000f48       0x20 /package/eda/altera/altera13.0sp1/nios2eds/bin/gnu/H-i686-pc-linux-gnu/bin/../lib/gcc/nios2-elf/4.1.2/../../../../nios2-elf/lib/libc.a(lib_a-memmove.o)
 .debug_aranges
                0x00000f68       0x20 /package/eda/altera/altera13.0sp1/nios2eds/bin/gnu/H-i686-pc-linux-gnu/bin/../lib/gcc/nios2-elf/4.1.2/../../../../nios2-elf/lib/libc.a(lib_a-mprec.o)
 .debug_aranges
                0x00000f88       0x20 /package/eda/altera/altera13.0sp1/nios2eds/bin/gnu/H-i686-pc-linux-gnu/bin/../lib/gcc/nios2-elf/4.1.2/../../../../nios2-elf/lib/libc.a(lib_a-readr.o)
 .debug_aranges
                0x00000fa8       0x20 /package/eda/altera/altera13.0sp1/nios2eds/bin/gnu/H-i686-pc-linux-gnu/bin/../lib/gcc/nios2-elf/4.1.2/../../../../nios2-elf/lib/libc.a(lib_a-reallocr.o)
 .debug_aranges
                0x00000fc8       0x20 /package/eda/altera/altera13.0sp1/nios2eds/bin/gnu/H-i686-pc-linux-gnu/bin/../lib/gcc/nios2-elf/4.1.2/../../../../nios2-elf/lib/libc.a(lib_a-s_isinfd.o)
 .debug_aranges
                0x00000fe8       0x20 /package/eda/altera/altera13.0sp1/nios2eds/bin/gnu/H-i686-pc-linux-gnu/bin/../lib/gcc/nios2-elf/4.1.2/../../../../nios2-elf/lib/libc.a(lib_a-s_isnand.o)
 .debug_aranges
                0x00001008       0x20 /package/eda/altera/altera13.0sp1/nios2eds/bin/gnu/H-i686-pc-linux-gnu/bin/../lib/gcc/nios2-elf/4.1.2/../../../../nios2-elf/lib/libc.a(lib_a-sccl.o)
 .debug_aranges
                0x00001028       0x20 /package/eda/altera/altera13.0sp1/nios2eds/bin/gnu/H-i686-pc-linux-gnu/bin/../lib/gcc/nios2-elf/4.1.2/../../../../nios2-elf/lib/libc.a(lib_a-sf_nan.o)
 .debug_aranges
                0x00001048       0x20 /package/eda/altera/altera13.0sp1/nios2eds/bin/gnu/H-i686-pc-linux-gnu/bin/../lib/gcc/nios2-elf/4.1.2/../../../../nios2-elf/lib/libc.a(lib_a-strcmp.o)
 .debug_aranges
                0x00001068       0x20 /package/eda/altera/altera13.0sp1/nios2eds/bin/gnu/H-i686-pc-linux-gnu/bin/../lib/gcc/nios2-elf/4.1.2/../../../../nios2-elf/lib/libc.a(lib_a-strtod.o)
 .debug_aranges
                0x00001088       0x20 /package/eda/altera/altera13.0sp1/nios2eds/bin/gnu/H-i686-pc-linux-gnu/bin/../lib/gcc/nios2-elf/4.1.2/../../../../nios2-elf/lib/libc.a(lib_a-strtol.o)
 .debug_aranges
                0x000010a8       0x20 /package/eda/altera/altera13.0sp1/nios2eds/bin/gnu/H-i686-pc-linux-gnu/bin/../lib/gcc/nios2-elf/4.1.2/../../../../nios2-elf/lib/libc.a(lib_a-strtoll_r.o)
 .debug_aranges
                0x000010c8       0x20 /package/eda/altera/altera13.0sp1/nios2eds/bin/gnu/H-i686-pc-linux-gnu/bin/../lib/gcc/nios2-elf/4.1.2/../../../../nios2-elf/lib/libc.a(lib_a-strtoul.o)
 .debug_aranges
                0x000010e8       0x20 /package/eda/altera/altera13.0sp1/nios2eds/bin/gnu/H-i686-pc-linux-gnu/bin/../lib/gcc/nios2-elf/4.1.2/../../../../nios2-elf/lib/libc.a(lib_a-strtoull_r.o)
 .debug_aranges
                0x00001108       0x20 /package/eda/altera/altera13.0sp1/nios2eds/bin/gnu/H-i686-pc-linux-gnu/bin/../lib/gcc/nios2-elf/4.1.2/../../../../nios2-elf/lib/libc.a(lib_a-ungetc.o)
 .debug_aranges
                0x00001128       0x20 /package/eda/altera/altera13.0sp1/nios2eds/bin/gnu/H-i686-pc-linux-gnu/bin/../lib/gcc/nios2-elf/4.1.2/../../../../nios2-elf/lib/libc.a(lib_a-callocr.o)
 .debug_aranges
                0x00001148       0x20 /package/eda/altera/altera13.0sp1/nios2eds/bin/gnu/H-i686-pc-linux-gnu/bin/../lib/gcc/nios2-elf/4.1.2/../../../../nios2-elf/lib/libc.a(lib_a-gdtoa-gethex.o)
 .debug_aranges
                0x00001168       0x20 /package/eda/altera/altera13.0sp1/nios2eds/bin/gnu/H-i686-pc-linux-gnu/bin/../lib/gcc/nios2-elf/4.1.2/../../../../nios2-elf/lib/libc.a(lib_a-gdtoa-hexnan.o)
 .debug_aranges
                0x00001188       0x20 /package/eda/altera/altera13.0sp1/nios2eds/bin/gnu/H-i686-pc-linux-gnu/bin/../lib/gcc/nios2-elf/4.1.2/libgcc.a(_fixunsdfsi.o)
 .debug_aranges
                0x000011a8       0x20 /package/eda/altera/altera13.0sp1/nios2eds/bin/gnu/H-i686-pc-linux-gnu/bin/../lib/gcc/nios2-elf/4.1.2/libgcc.a(_udivdi3.o)
 .debug_aranges
                0x000011c8       0x20 /package/eda/altera/altera13.0sp1/nios2eds/bin/gnu/H-i686-pc-linux-gnu/bin/../lib/gcc/nios2-elf/4.1.2/libgcc.a(_umoddi3.o)
 .debug_aranges
                0x000011e8       0x20 /package/eda/altera/altera13.0sp1/nios2eds/bin/gnu/H-i686-pc-linux-gnu/bin/../lib/gcc/nios2-elf/4.1.2/libgcc.a(_ne_sf.o)
 .debug_aranges
                0x00001208       0x20 /package/eda/altera/altera13.0sp1/nios2eds/bin/gnu/H-i686-pc-linux-gnu/bin/../lib/gcc/nios2-elf/4.1.2/libgcc.a(_gt_sf.o)
 .debug_aranges
                0x00001228       0x20 /package/eda/altera/altera13.0sp1/nios2eds/bin/gnu/H-i686-pc-linux-gnu/bin/../lib/gcc/nios2-elf/4.1.2/libgcc.a(_lt_sf.o)
 .debug_aranges
                0x00001248       0x20 /package/eda/altera/altera13.0sp1/nios2eds/bin/gnu/H-i686-pc-linux-gnu/bin/../lib/gcc/nios2-elf/4.1.2/libgcc.a(_addsub_df.o)
 .debug_aranges
                0x00001268       0x20 /package/eda/altera/altera13.0sp1/nios2eds/bin/gnu/H-i686-pc-linux-gnu/bin/../lib/gcc/nios2-elf/4.1.2/libgcc.a(_eq_df.o)
 .debug_aranges
                0x00001288       0x20 /package/eda/altera/altera13.0sp1/nios2eds/bin/gnu/H-i686-pc-linux-gnu/bin/../lib/gcc/nios2-elf/4.1.2/libgcc.a(_ne_df.o)
 .debug_aranges
                0x000012a8       0x20 /package/eda/altera/altera13.0sp1/nios2eds/bin/gnu/H-i686-pc-linux-gnu/bin/../lib/gcc/nios2-elf/4.1.2/libgcc.a(_gt_df.o)
 .debug_aranges
                0x000012c8       0x20 /package/eda/altera/altera13.0sp1/nios2eds/bin/gnu/H-i686-pc-linux-gnu/bin/../lib/gcc/nios2-elf/4.1.2/libgcc.a(_ge_df.o)
 .debug_aranges
                0x000012e8       0x20 /package/eda/altera/altera13.0sp1/nios2eds/bin/gnu/H-i686-pc-linux-gnu/bin/../lib/gcc/nios2-elf/4.1.2/libgcc.a(_lt_df.o)
 .debug_aranges
                0x00001308       0x20 /package/eda/altera/altera13.0sp1/nios2eds/bin/gnu/H-i686-pc-linux-gnu/bin/../lib/gcc/nios2-elf/4.1.2/libgcc.a(_le_df.o)
 .debug_aranges
                0x00001328       0x20 /package/eda/altera/altera13.0sp1/nios2eds/bin/gnu/H-i686-pc-linux-gnu/bin/../lib/gcc/nios2-elf/4.1.2/libgcc.a(_si_to_df.o)
 .debug_aranges
                0x00001348       0x20 /package/eda/altera/altera13.0sp1/nios2eds/bin/gnu/H-i686-pc-linux-gnu/bin/../lib/gcc/nios2-elf/4.1.2/libgcc.a(_df_to_si.o)
 .debug_aranges
                0x00001368       0x20 /package/eda/altera/altera13.0sp1/nios2eds/bin/gnu/H-i686-pc-linux-gnu/bin/../lib/gcc/nios2-elf/4.1.2/libgcc.a(_fpcmp_parts_sf.o)
 .debug_aranges
                0x00001388       0x20 /package/eda/altera/altera13.0sp1/nios2eds/bin/gnu/H-i686-pc-linux-gnu/bin/../lib/gcc/nios2-elf/4.1.2/libgcc.a(_fpcmp_parts_df.o)
 .debug_aranges
                0x000013a8       0x20 ../demo_board_NiosIIf_bsp//libhal_bsp.a(alt_close.o)
 .debug_aranges
                0x000013c8       0x20 ../demo_board_NiosIIf_bsp//libhal_bsp.a(alt_dcache_flush.o)
 .debug_aranges
                0x000013e8       0x20 ../demo_board_NiosIIf_bsp//libhal_bsp.a(alt_dev.o)
 .debug_aranges
                0x00001408       0x20 ../demo_board_NiosIIf_bsp//libhal_bsp.a(alt_env_lock.o)
 .debug_aranges
                0x00001428       0x20 ../demo_board_NiosIIf_bsp//libhal_bsp.a(alt_exit.o)
 .debug_aranges
                0x00001448       0x20 ../demo_board_NiosIIf_bsp//libhal_bsp.a(alt_fstat.o)
 .debug_aranges
                0x00001468       0x20 ../demo_board_NiosIIf_bsp//libhal_bsp.a(alt_isatty.o)
 .debug_aranges
                0x00001488       0x20 ../demo_board_NiosIIf_bsp//libhal_bsp.a(alt_load.o)
 .debug_aranges
                0x000014a8       0x20 ../demo_board_NiosIIf_bsp//libhal_bsp.a(alt_lseek.o)
 .debug_aranges
                0x000014c8       0x20 ../demo_board_NiosIIf_bsp//libhal_bsp.a(alt_main.o)
 .debug_aranges
                0x000014e8       0x20 ../demo_board_NiosIIf_bsp//libhal_bsp.a(alt_malloc_lock.o)
 .debug_aranges
                0x00001508       0x20 ../demo_board_NiosIIf_bsp//libhal_bsp.a(alt_open.o)
 .debug_aranges
                0x00001528       0x20 ../demo_board_NiosIIf_bsp//libhal_bsp.a(alt_read.o)
 .debug_aranges
                0x00001548       0x20 ../demo_board_NiosIIf_bsp//libhal_bsp.a(alt_release_fd.o)
 .debug_aranges
                0x00001568       0x20 ../demo_board_NiosIIf_bsp//libhal_bsp.a(alt_sbrk.o)
 .debug_aranges
                0x00001588       0x20 ../demo_board_NiosIIf_bsp//libhal_bsp.a(alt_write.o)
 .debug_aranges
                0x000015a8       0x20 ../demo_board_NiosIIf_bsp//libhal_bsp.a(alt_sys_init.o)
 .debug_aranges
                0x000015c8       0x20 ../demo_board_NiosIIf_bsp//libhal_bsp.a(altera_avalon_cfi_flash.o)
 .debug_aranges
                0x000015e8       0x20 ../demo_board_NiosIIf_bsp//libhal_bsp.a(altera_avalon_cfi_flash_table.o)
 .debug_aranges
                0x00001608       0x20 ../demo_board_NiosIIf_bsp//libhal_bsp.a(altera_avalon_jtag_uart_fd.o)
 .debug_aranges
                0x00001628       0x20 ../demo_board_NiosIIf_bsp//libhal_bsp.a(altera_avalon_jtag_uart_init.o)
 .debug_aranges
                0x00001648       0x20 ../demo_board_NiosIIf_bsp//libhal_bsp.a(altera_avalon_jtag_uart_ioctl.o)
 .debug_aranges
                0x00001668       0x20 ../demo_board_NiosIIf_bsp//libhal_bsp.a(altera_avalon_jtag_uart_read.o)
 .debug_aranges
                0x00001688       0x20 ../demo_board_NiosIIf_bsp//libhal_bsp.a(altera_avalon_jtag_uart_write.o)
 .debug_aranges
                0x000016a8       0x20 ../demo_board_NiosIIf_bsp//libhal_bsp.a(altera_avalon_performance_counter.o)
 .debug_aranges
                0x000016c8       0x20 ../demo_board_NiosIIf_bsp//libhal_bsp.a(altera_avalon_timer_sc.o)
 .debug_aranges
                0x000016e8       0x20 ../demo_board_NiosIIf_bsp//libhal_bsp.a(altera_ro_zipfs.o)
 .debug_aranges
                0x00001708       0x20 ../demo_board_NiosIIf_bsp//libhal_bsp.a(altera_up_avalon_video_pixel_buffer_dma.o)
 .debug_aranges
                0x00001728       0x20 ../demo_board_NiosIIf_bsp//libhal_bsp.a(perf_print_formatted_report.o)
 .debug_aranges
                0x00001748       0x20 ../demo_board_NiosIIf_bsp//libhal_bsp.a(alt_alarm_start.o)
 .debug_aranges
                0x00001768       0x20 ../demo_board_NiosIIf_bsp//libhal_bsp.a(alt_dcache_flush_all.o)
 .debug_aranges
                0x00001788       0x20 ../demo_board_NiosIIf_bsp//libhal_bsp.a(alt_dev_llist_insert.o)
 .debug_aranges
                0x000017a8       0x20 ../demo_board_NiosIIf_bsp//libhal_bsp.a(alt_do_ctors.o)
 .debug_aranges
                0x000017c8       0x20 ../demo_board_NiosIIf_bsp//libhal_bsp.a(alt_do_dtors.o)
 .debug_aranges
                0x000017e8       0x20 ../demo_board_NiosIIf_bsp//libhal_bsp.a(alt_find_dev.o)
 .debug_aranges
                0x00001808       0x20 ../demo_board_NiosIIf_bsp//libhal_bsp.a(alt_find_file.o)
 .debug_aranges
                0x00001828       0x20 ../demo_board_NiosIIf_bsp//libhal_bsp.a(alt_flash_dev.o)
 .debug_aranges
                0x00001848       0x20 ../demo_board_NiosIIf_bsp//libhal_bsp.a(alt_fs_reg.o)
 .debug_aranges
                0x00001868       0x20 ../demo_board_NiosIIf_bsp//libhal_bsp.a(alt_get_fd.o)
 .debug_aranges
                0x00001888       0x20 ../demo_board_NiosIIf_bsp//libhal_bsp.a(alt_icache_flush_all.o)
 .debug_aranges
                0x000018a8       0x20 ../demo_board_NiosIIf_bsp//libhal_bsp.a(alt_iic.o)
 .debug_aranges
                0x000018c8       0x20 ../demo_board_NiosIIf_bsp//libhal_bsp.a(alt_iic_isr_register.o)
 .debug_aranges
                0x000018e8       0x20 ../demo_board_NiosIIf_bsp//libhal_bsp.a(alt_io_redirect.o)
 .debug_aranges
                0x00001908       0x30 ../demo_board_NiosIIf_bsp//libhal_bsp.a(alt_irq_entry.o)
 .debug_aranges
                0x00001938       0x28 ../demo_board_NiosIIf_bsp//libhal_bsp.a(alt_irq_handler.o)
 .debug_aranges
                0x00001960       0x20 ../demo_board_NiosIIf_bsp//libhal_bsp.a(alt_tick.o)
 .debug_aranges
                0x00001980       0x20 ../demo_board_NiosIIf_bsp//libhal_bsp.a(altera_nios2_qsys_irq.o)
 .debug_aranges
                0x000019a0       0x20 ../demo_board_NiosIIf_bsp//libhal_bsp.a(altera_avalon_cfi_flash_amd.o)
 .debug_aranges
                0x000019c0       0x20 ../demo_board_NiosIIf_bsp//libhal_bsp.a(altera_avalon_cfi_flash_intel.o)
 .debug_aranges
                0x000019e0       0x38 ../demo_board_NiosIIf_bsp//libhal_bsp.a(alt_exception_entry.o)
 .debug_aranges
                0x00001a18       0x20 ../demo_board_NiosIIf_bsp//libhal_bsp.a(alt_icache_flush.o)
 .debug_aranges
                0x00001a38       0x20 ../demo_board_NiosIIf_bsp//libhal_bsp.a(alt_usleep.o)
 .debug_aranges
                0x00001a58       0x20 ../demo_board_NiosIIf_bsp//libhal_bsp.a(alt_busy_sleep.o)
 .debug_aranges
                0x00001a78       0x20 /package/eda/altera/altera13.0sp1/nios2eds/bin/gnu/H-i686-pc-linux-gnu/bin/../lib/gcc/nios2-elf/4.1.2/../../../../nios2-elf/lib/libc.a(lib_a-atexit.o)
 .debug_aranges
                0x00001a98       0x20 /package/eda/altera/altera13.0sp1/nios2eds/bin/gnu/H-i686-pc-linux-gnu/bin/../lib/gcc/nios2-elf/4.1.2/../../../../nios2-elf/lib/libc.a(lib_a-memcmp.o)
 .debug_aranges
                0x00001ab8       0x20 /package/eda/altera/altera13.0sp1/nios2eds/bin/gnu/H-i686-pc-linux-gnu/bin/../lib/gcc/nios2-elf/4.1.2/../../../../nios2-elf/lib/libc.a(lib_a-__atexit.o)
 .debug_aranges
                0x00001ad8       0x20 /package/eda/altera/altera13.0sp1/nios2eds/bin/gnu/H-i686-pc-linux-gnu/bin/../lib/gcc/nios2-elf/4.1.2/libgcc.a(_floatundidf.o)

.debug_pubnames
                0x00000000     0x30e5
 *(.debug_pubnames)
 .debug_pubnames
                0x00000000       0x3f obj/default/cdjpeg.o
 .debug_pubnames
                0x0000003f       0x30 obj/default/djpeg.o
 .debug_pubnames
                0x0000006f       0xba obj/default/jcapimin.o
 .debug_pubnames
                0x00000129       0x5b obj/default/jcapistd.o
 .debug_pubnames
                0x00000184       0x2e obj/default/jccoefct.o
 .debug_pubnames
                0x000001b2       0x2c obj/default/jccolor.o
 .debug_pubnames
                0x000001de       0x28 obj/default/jcdctmgr.o
 .debug_pubnames
                0x00000206       0x60 obj/default/jchuff.o
 .debug_pubnames
                0x00000266       0x2c obj/default/jcinit.o
 .debug_pubnames
                0x00000292       0x2e obj/default/jcmainct.o
 .debug_pubnames
                0x000002c0       0x2a obj/default/jcmarker.o
 .debug_pubnames
                0x000002ea       0x2d obj/default/jcmaster.o
 .debug_pubnames
                0x00000317       0x67 obj/default/jcomapi.o
 .debug_pubnames
                0x0000037e       0xdb obj/default/jcparam.o
 .debug_pubnames
                0x00000459       0x2a obj/default/jcphuff.o
 .debug_pubnames
                0x00000483       0x2e obj/default/jcprepct.o
 .debug_pubnames
                0x000004b1       0x28 obj/default/jcsample.o
 .debug_pubnames
                0x000004d9       0x50 obj/default/jctrans.o
 .debug_pubnames
                0x00000529       0xfb obj/default/jdapimin.o
 .debug_pubnames
                0x00000624       0x88 obj/default/jdapistd.o
 .debug_pubnames
                0x000006ac       0x26 obj/default/jdatadst.o
 .debug_pubnames
                0x000006d2       0x25 obj/default/jdatasrc.o
 .debug_pubnames
                0x000006f7       0x2e obj/default/jdcoefct.o
 .debug_pubnames
                0x00000725       0x2e obj/default/jdcolor.o
 .debug_pubnames
                0x00000753       0x28 obj/default/jddctmgr.o
 .debug_pubnames
                0x0000077b       0x73 obj/default/jdhuff.o
 .debug_pubnames
                0x000007ee       0x2d obj/default/jdinput.o
 .debug_pubnames
                0x0000081b       0x2e obj/default/jdmainct.o
 .debug_pubnames
                0x00000849       0x45 obj/default/jdmarker.o
 .debug_pubnames
                0x0000088e       0x64 obj/default/jdmaster.o
 .debug_pubnames
                0x000008f2       0x2d obj/default/jdmerge.o
 .debug_pubnames
                0x0000091f       0x2a obj/default/jdphuff.o
 .debug_pubnames
                0x00000949       0x2e obj/default/jdpostct.o
 .debug_pubnames
                0x00000977       0x26 obj/default/jdsample.o
 .debug_pubnames
                0x0000099d       0x2d obj/default/jdtrans.o
 .debug_pubnames
                0x000009ca       0x40 obj/default/jerror.o
 .debug_pubnames
                0x00000a0a       0x26 obj/default/jfdctflt.o
 .debug_pubnames
                0x00000a30       0x26 obj/default/jfdctfst.o
 .debug_pubnames
                0x00000a56       0x26 obj/default/jfdctint.o
 .debug_pubnames
                0x00000a7c       0x26 obj/default/jidctflt.o
 .debug_pubnames
                0x00000aa2       0x26 obj/default/jidctfst.o
 .debug_pubnames
                0x00000ac8       0x26 obj/default/jidctint.o
 .debug_pubnames
                0x00000aee       0x48 obj/default/jidctred.o
 .debug_pubnames
                0x00000b36       0x27 obj/default/jmemmgr.o
 .debug_pubnames
                0x00000b5d       0xb7 obj/default/jmemnobs.o
 .debug_pubnames
                0x00000c14       0x2c obj/default/jquant1.o
 .debug_pubnames
                0x00000c40       0x2c obj/default/jquant2.o
 .debug_pubnames
                0x00000c6c       0x81 obj/default/jutils.o
 .debug_pubnames
                0x00000ced       0x25 obj/default/rdcolmap.o
 .debug_pubnames
                0x00000d12       0x26 obj/default/wrbmp.o
 .debug_pubnames
                0x00000d38       0x26 obj/default/wrgif.o
 .debug_pubnames
                0x00000d5e       0x26 obj/default/wrppm.o
 .debug_pubnames
                0x00000d84       0x28 obj/default/wrtarga.o
 .debug_pubnames
                0x00000dac       0x2c /package/eda/altera/altera13.0sp1/nios2eds/bin/gnu/H-i686-pc-linux-gnu/bin/../lib/gcc/nios2-elf/4.1.2/libgcc.a(_addsub_sf.o)
 .debug_pubnames
                0x00000dd8       0x1f /package/eda/altera/altera13.0sp1/nios2eds/bin/gnu/H-i686-pc-linux-gnu/bin/../lib/gcc/nios2-elf/4.1.2/libgcc.a(_mul_sf.o)
 .debug_pubnames
                0x00000df7       0x22 /package/eda/altera/altera13.0sp1/nios2eds/bin/gnu/H-i686-pc-linux-gnu/bin/../lib/gcc/nios2-elf/4.1.2/libgcc.a(_si_to_sf.o)
 .debug_pubnames
                0x00000e19       0x20 /package/eda/altera/altera13.0sp1/nios2eds/bin/gnu/H-i686-pc-linux-gnu/bin/../lib/gcc/nios2-elf/4.1.2/libgcc.a(_sf_to_si.o)
 .debug_pubnames
                0x00000e39       0x22 /package/eda/altera/altera13.0sp1/nios2eds/bin/gnu/H-i686-pc-linux-gnu/bin/../lib/gcc/nios2-elf/4.1.2/libgcc.a(_thenan_sf.o)
 .debug_pubnames
                0x00000e5b       0x1f /package/eda/altera/altera13.0sp1/nios2eds/bin/gnu/H-i686-pc-linux-gnu/bin/../lib/gcc/nios2-elf/4.1.2/libgcc.a(_mul_df.o)
 .debug_pubnames
                0x00000e7a       0x1f /package/eda/altera/altera13.0sp1/nios2eds/bin/gnu/H-i686-pc-linux-gnu/bin/../lib/gcc/nios2-elf/4.1.2/libgcc.a(_div_df.o)
 .debug_pubnames
                0x00000e99       0x23 /package/eda/altera/altera13.0sp1/nios2eds/bin/gnu/H-i686-pc-linux-gnu/bin/../lib/gcc/nios2-elf/4.1.2/libgcc.a(_df_to_sf.o)
 .debug_pubnames
                0x00000ebc       0x22 /package/eda/altera/altera13.0sp1/nios2eds/bin/gnu/H-i686-pc-linux-gnu/bin/../lib/gcc/nios2-elf/4.1.2/libgcc.a(_thenan_df.o)
 .debug_pubnames
                0x00000ede       0x24 /package/eda/altera/altera13.0sp1/nios2eds/bin/gnu/H-i686-pc-linux-gnu/bin/../lib/gcc/nios2-elf/4.1.2/libgcc.a(_usi_to_df.o)
 .debug_pubnames
                0x00000f02       0x48 /package/eda/altera/altera13.0sp1/nios2eds/bin/gnu/H-i686-pc-linux-gnu/bin/../lib/gcc/nios2-elf/4.1.2/libgcc.a(lib2-divmod.o)
 .debug_pubnames
                0x00000f4a       0x25 /package/eda/altera/altera13.0sp1/nios2eds/bin/gnu/H-i686-pc-linux-gnu/bin/../lib/gcc/nios2-elf/4.1.2/libgcc.a(lib2-divtable.o)
 .debug_pubnames
                0x00000f6f       0x1f /package/eda/altera/altera13.0sp1/nios2eds/bin/gnu/H-i686-pc-linux-gnu/bin/../lib/gcc/nios2-elf/4.1.2/libgcc.a(_muldi3.o)
 .debug_pubnames
                0x00000f8e       0x1f /package/eda/altera/altera13.0sp1/nios2eds/bin/gnu/H-i686-pc-linux-gnu/bin/../lib/gcc/nios2-elf/4.1.2/libgcc.a(_clzsi2.o)
 .debug_pubnames
                0x00000fad       0x1f /package/eda/altera/altera13.0sp1/nios2eds/bin/gnu/H-i686-pc-linux-gnu/bin/../lib/gcc/nios2-elf/4.1.2/libgcc.a(_pack_sf.o)
 .debug_pubnames
                0x00000fcc       0x21 /package/eda/altera/altera13.0sp1/nios2eds/bin/gnu/H-i686-pc-linux-gnu/bin/../lib/gcc/nios2-elf/4.1.2/libgcc.a(_unpack_sf.o)
 .debug_pubnames
                0x00000fed       0x20 /package/eda/altera/altera13.0sp1/nios2eds/bin/gnu/H-i686-pc-linux-gnu/bin/../lib/gcc/nios2-elf/4.1.2/libgcc.a(_make_sf.o)
 .debug_pubnames
                0x0000100d       0x1f /package/eda/altera/altera13.0sp1/nios2eds/bin/gnu/H-i686-pc-linux-gnu/bin/../lib/gcc/nios2-elf/4.1.2/libgcc.a(_pack_df.o)
 .debug_pubnames
                0x0000102c       0x21 /package/eda/altera/altera13.0sp1/nios2eds/bin/gnu/H-i686-pc-linux-gnu/bin/../lib/gcc/nios2-elf/4.1.2/libgcc.a(_unpack_df.o)
 .debug_pubnames
                0x0000104d       0x20 /package/eda/altera/altera13.0sp1/nios2eds/bin/gnu/H-i686-pc-linux-gnu/bin/../lib/gcc/nios2-elf/4.1.2/libgcc.a(_clz.o)
 .debug_pubnames
                0x0000106d       0x2e /package/eda/altera/altera13.0sp1/nios2eds/bin/gnu/H-i686-pc-linux-gnu/bin/../lib/gcc/nios2-elf/4.1.2/../../../../nios2-elf/lib/libc.a(lib_a-ctype_.o)
 .debug_pubnames
                0x0000109b       0x1b /package/eda/altera/altera13.0sp1/nios2eds/bin/gnu/H-i686-pc-linux-gnu/bin/../lib/gcc/nios2-elf/4.1.2/../../../../nios2-elf/lib/libc.a(lib_a-exit.o)
 .debug_pubnames
                0x000010b6       0x2b /package/eda/altera/altera13.0sp1/nios2eds/bin/gnu/H-i686-pc-linux-gnu/bin/../lib/gcc/nios2-elf/4.1.2/../../../../nios2-elf/lib/libc.a(lib_a-fclose.o)
 .debug_pubnames
                0x000010e1       0x2b /package/eda/altera/altera13.0sp1/nios2eds/bin/gnu/H-i686-pc-linux-gnu/bin/../lib/gcc/nios2-elf/4.1.2/../../../../nios2-elf/lib/libc.a(lib_a-fflush.o)
 .debug_pubnames
                0x0000110c       0xdb /package/eda/altera/altera13.0sp1/nios2eds/bin/gnu/H-i686-pc-linux-gnu/bin/../lib/gcc/nios2-elf/4.1.2/../../../../nios2-elf/lib/libc.a(lib_a-findfp.o)
 .debug_pubnames
                0x000011e7       0x29 /package/eda/altera/altera13.0sp1/nios2eds/bin/gnu/H-i686-pc-linux-gnu/bin/../lib/gcc/nios2-elf/4.1.2/../../../../nios2-elf/lib/libc.a(lib_a-fopen.o)
 .debug_pubnames
                0x00001210       0x2d /package/eda/altera/altera13.0sp1/nios2eds/bin/gnu/H-i686-pc-linux-gnu/bin/../lib/gcc/nios2-elf/4.1.2/../../../../nios2-elf/lib/libc.a(lib_a-fprintf.o)
 .debug_pubnames
                0x0000123d       0x29 /package/eda/altera/altera13.0sp1/nios2eds/bin/gnu/H-i686-pc-linux-gnu/bin/../lib/gcc/nios2-elf/4.1.2/../../../../nios2-elf/lib/libc.a(lib_a-fputc.o)
 .debug_pubnames
                0x00001266       0x29 /package/eda/altera/altera13.0sp1/nios2eds/bin/gnu/H-i686-pc-linux-gnu/bin/../lib/gcc/nios2-elf/4.1.2/../../../../nios2-elf/lib/libc.a(lib_a-fread.o)
 .debug_pubnames
                0x0000128f       0x31 /package/eda/altera/altera13.0sp1/nios2eds/bin/gnu/H-i686-pc-linux-gnu/bin/../lib/gcc/nios2-elf/4.1.2/../../../../nios2-elf/lib/libc.a(lib_a-freer.o)
 .debug_pubnames
                0x000012c0       0x29 /package/eda/altera/altera13.0sp1/nios2eds/bin/gnu/H-i686-pc-linux-gnu/bin/../lib/gcc/nios2-elf/4.1.2/../../../../nios2-elf/lib/libc.a(lib_a-fseek.o)
 .debug_pubnames
                0x000012e9       0x1f /package/eda/altera/altera13.0sp1/nios2eds/bin/gnu/H-i686-pc-linux-gnu/bin/../lib/gcc/nios2-elf/4.1.2/../../../../nios2-elf/lib/libc.a(lib_a-fstatr.o)
 .debug_pubnames
                0x00001308       0x2e /package/eda/altera/altera13.0sp1/nios2eds/bin/gnu/H-i686-pc-linux-gnu/bin/../lib/gcc/nios2-elf/4.1.2/../../../../nios2-elf/lib/libc.a(lib_a-fwalk.o)
 .debug_pubnames
                0x00001336       0x2b /package/eda/altera/altera13.0sp1/nios2eds/bin/gnu/H-i686-pc-linux-gnu/bin/../lib/gcc/nios2-elf/4.1.2/../../../../nios2-elf/lib/libc.a(lib_a-fwrite.o)
 .debug_pubnames
                0x00001361       0x27 /package/eda/altera/altera13.0sp1/nios2eds/bin/gnu/H-i686-pc-linux-gnu/bin/../lib/gcc/nios2-elf/4.1.2/../../../../nios2-elf/lib/libc.a(lib_a-getc.o)
 .debug_pubnames
                0x00001388       0x2a /package/eda/altera/altera13.0sp1/nios2eds/bin/gnu/H-i686-pc-linux-gnu/bin/../lib/gcc/nios2-elf/4.1.2/../../../../nios2-elf/lib/libc.a(lib_a-getenv.o)
 .debug_pubnames
                0x000013b2       0x2f /package/eda/altera/altera13.0sp1/nios2eds/bin/gnu/H-i686-pc-linux-gnu/bin/../lib/gcc/nios2-elf/4.1.2/../../../../nios2-elf/lib/libc.a(lib_a-getenv_r.o)
 .debug_pubnames
                0x000013e1       0x39 /package/eda/altera/altera13.0sp1/nios2eds/bin/gnu/H-i686-pc-linux-gnu/bin/../lib/gcc/nios2-elf/4.1.2/../../../../nios2-elf/lib/libc.a(lib_a-impure.o)
 .debug_pubnames
                0x0000141a       0x1c /package/eda/altera/altera13.0sp1/nios2eds/bin/gnu/H-i686-pc-linux-gnu/bin/../lib/gcc/nios2-elf/4.1.2/../../../../nios2-elf/lib/libc.a(lib_a-int_errno.o)
 .debug_pubnames
                0x00001436       0x23 /package/eda/altera/altera13.0sp1/nios2eds/bin/gnu/H-i686-pc-linux-gnu/bin/../lib/gcc/nios2-elf/4.1.2/../../../../nios2-elf/lib/libc.a(lib_a-makebuf.o)
 .debug_pubnames
                0x00001459       0x26 /package/eda/altera/altera13.0sp1/nios2eds/bin/gnu/H-i686-pc-linux-gnu/bin/../lib/gcc/nios2-elf/4.1.2/../../../../nios2-elf/lib/libc.a(lib_a-malloc.o)
 .debug_pubnames
                0x0000147f       0xce /package/eda/altera/altera13.0sp1/nios2eds/bin/gnu/H-i686-pc-linux-gnu/bin/../lib/gcc/nios2-elf/4.1.2/../../../../nios2-elf/lib/libc.a(lib_a-mallocr.o)
 .debug_pubnames
                0x0000154d       0x1d /package/eda/altera/altera13.0sp1/nios2eds/bin/gnu/H-i686-pc-linux-gnu/bin/../lib/gcc/nios2-elf/4.1.2/../../../../nios2-elf/lib/libc.a(lib_a-memcpy.o)
 .debug_pubnames
                0x0000156a       0x1d /package/eda/altera/altera13.0sp1/nios2eds/bin/gnu/H-i686-pc-linux-gnu/bin/../lib/gcc/nios2-elf/4.1.2/../../../../nios2-elf/lib/libc.a(lib_a-memset.o)
 .debug_pubnames
                0x00001587       0x1e /package/eda/altera/altera13.0sp1/nios2eds/bin/gnu/H-i686-pc-linux-gnu/bin/../lib/gcc/nios2-elf/4.1.2/../../../../nios2-elf/lib/libc.a(lib_a-openr.o)
 .debug_pubnames
                0x000015a5       0x2b /package/eda/altera/altera13.0sp1/nios2eds/bin/gnu/H-i686-pc-linux-gnu/bin/../lib/gcc/nios2-elf/4.1.2/../../../../nios2-elf/lib/libc.a(lib_a-printf.o)
 .debug_pubnames
                0x000015d0       0x27 /package/eda/altera/altera13.0sp1/nios2eds/bin/gnu/H-i686-pc-linux-gnu/bin/../lib/gcc/nios2-elf/4.1.2/../../../../nios2-elf/lib/libc.a(lib_a-putc.o)
 .debug_pubnames
                0x000015f7       0x27 /package/eda/altera/altera13.0sp1/nios2eds/bin/gnu/H-i686-pc-linux-gnu/bin/../lib/gcc/nios2-elf/4.1.2/../../../../nios2-elf/lib/libc.a(lib_a-puts.o)
 .debug_pubnames
                0x0000161e       0x22 /package/eda/altera/altera13.0sp1/nios2eds/bin/gnu/H-i686-pc-linux-gnu/bin/../lib/gcc/nios2-elf/4.1.2/../../../../nios2-elf/lib/libc.a(lib_a-refill.o)
 .debug_pubnames
                0x00001640       0x2c /package/eda/altera/altera13.0sp1/nios2eds/bin/gnu/H-i686-pc-linux-gnu/bin/../lib/gcc/nios2-elf/4.1.2/../../../../nios2-elf/lib/libc.a(lib_a-rget.o)
 .debug_pubnames
                0x0000166c       0x1e /package/eda/altera/altera13.0sp1/nios2eds/bin/gnu/H-i686-pc-linux-gnu/bin/../lib/gcc/nios2-elf/4.1.2/../../../../nios2-elf/lib/libc.a(lib_a-sbrkr.o)
 .debug_pubnames
                0x0000168a       0x2d /package/eda/altera/altera13.0sp1/nios2eds/bin/gnu/H-i686-pc-linux-gnu/bin/../lib/gcc/nios2-elf/4.1.2/../../../../nios2-elf/lib/libc.a(lib_a-sprintf.o)
 .debug_pubnames
                0x000016b7       0x2b /package/eda/altera/altera13.0sp1/nios2eds/bin/gnu/H-i686-pc-linux-gnu/bin/../lib/gcc/nios2-elf/4.1.2/../../../../nios2-elf/lib/libc.a(lib_a-sscanf.o)
 .debug_pubnames
                0x000016e2       0x44 /package/eda/altera/altera13.0sp1/nios2eds/bin/gnu/H-i686-pc-linux-gnu/bin/../lib/gcc/nios2-elf/4.1.2/../../../../nios2-elf/lib/libc.a(lib_a-stdio.o)
 .debug_pubnames
                0x00001726       0x1d /package/eda/altera/altera13.0sp1/nios2eds/bin/gnu/H-i686-pc-linux-gnu/bin/../lib/gcc/nios2-elf/4.1.2/../../../../nios2-elf/lib/libc.a(lib_a-strdup.o)
 .debug_pubnames
                0x00001743       0x20 /package/eda/altera/altera13.0sp1/nios2eds/bin/gnu/H-i686-pc-linux-gnu/bin/../lib/gcc/nios2-elf/4.1.2/../../../../nios2-elf/lib/libc.a(lib_a-strdup_r.o)
 .debug_pubnames
                0x00001763       0x1d /package/eda/altera/altera13.0sp1/nios2eds/bin/gnu/H-i686-pc-linux-gnu/bin/../lib/gcc/nios2-elf/4.1.2/../../../../nios2-elf/lib/libc.a(lib_a-strlen.o)
 .debug_pubnames
                0x00001780       0x1e /package/eda/altera/altera13.0sp1/nios2eds/bin/gnu/H-i686-pc-linux-gnu/bin/../lib/gcc/nios2-elf/4.1.2/../../../../nios2-elf/lib/libc.a(lib_a-strncmp.o)
 .debug_pubnames
                0x0000179e       0x45 /package/eda/altera/altera13.0sp1/nios2eds/bin/gnu/H-i686-pc-linux-gnu/bin/../lib/gcc/nios2-elf/4.1.2/../../../../nios2-elf/lib/libc.a(lib_a-vfprintf.o)
 .debug_pubnames
                0x000017e3       0x4d /package/eda/altera/altera13.0sp1/nios2eds/bin/gnu/H-i686-pc-linux-gnu/bin/../lib/gcc/nios2-elf/4.1.2/../../../../nios2-elf/lib/libc.a(lib_a-vfscanf.o)
 .debug_pubnames
                0x00001830       0x2c /package/eda/altera/altera13.0sp1/nios2eds/bin/gnu/H-i686-pc-linux-gnu/bin/../lib/gcc/nios2-elf/4.1.2/../../../../nios2-elf/lib/libc.a(lib_a-wbuf.o)
 .debug_pubnames
                0x0000185c       0x1f /package/eda/altera/altera13.0sp1/nios2eds/bin/gnu/H-i686-pc-linux-gnu/bin/../lib/gcc/nios2-elf/4.1.2/../../../../nios2-elf/lib/libc.a(lib_a-writer.o)
 .debug_pubnames
                0x0000187b       0x22 /package/eda/altera/altera13.0sp1/nios2eds/bin/gnu/H-i686-pc-linux-gnu/bin/../lib/gcc/nios2-elf/4.1.2/../../../../nios2-elf/lib/libc.a(lib_a-wsetup.o)
 .debug_pubnames
                0x0000189d       0x27 /package/eda/altera/altera13.0sp1/nios2eds/bin/gnu/H-i686-pc-linux-gnu/bin/../lib/gcc/nios2-elf/4.1.2/../../../../nios2-elf/lib/libc.a(lib_a-__call_atexit.o)
 .debug_pubnames
                0x000018c4       0x1f /package/eda/altera/altera13.0sp1/nios2eds/bin/gnu/H-i686-pc-linux-gnu/bin/../lib/gcc/nios2-elf/4.1.2/../../../../nios2-elf/lib/libc.a(lib_a-closer.o)
 .debug_pubnames
                0x000018e3       0x1e /package/eda/altera/altera13.0sp1/nios2eds/bin/gnu/H-i686-pc-linux-gnu/bin/../lib/gcc/nios2-elf/4.1.2/../../../../nios2-elf/lib/libc.a(lib_a-dtoa.o)
 .debug_pubnames
                0x00001901       0x1e /package/eda/altera/altera13.0sp1/nios2eds/bin/gnu/H-i686-pc-linux-gnu/bin/../lib/gcc/nios2-elf/4.1.2/../../../../nios2-elf/lib/libc.a(lib_a-environ.o)
 .debug_pubnames
                0x0000191f       0x1f /package/eda/altera/altera13.0sp1/nios2eds/bin/gnu/H-i686-pc-linux-gnu/bin/../lib/gcc/nios2-elf/4.1.2/../../../../nios2-elf/lib/libc.a(lib_a-flags.o)
 .debug_pubnames
                0x0000193e       0x23 /package/eda/altera/altera13.0sp1/nios2eds/bin/gnu/H-i686-pc-linux-gnu/bin/../lib/gcc/nios2-elf/4.1.2/../../../../nios2-elf/lib/libc.a(lib_a-fvwrite.o)
 .debug_pubnames
                0x00001961       0x20 /package/eda/altera/altera13.0sp1/nios2eds/bin/gnu/H-i686-pc-linux-gnu/bin/../lib/gcc/nios2-elf/4.1.2/../../../../nios2-elf/lib/libc.a(lib_a-isattyr.o)
 .debug_pubnames
                0x00001981       0x1f /package/eda/altera/altera13.0sp1/nios2eds/bin/gnu/H-i686-pc-linux-gnu/bin/../lib/gcc/nios2-elf/4.1.2/../../../../nios2-elf/lib/libc.a(lib_a-iswspace.o)
 .debug_pubnames
                0x000019a0       0xc3 /package/eda/altera/altera13.0sp1/nios2eds/bin/gnu/H-i686-pc-linux-gnu/bin/../lib/gcc/nios2-elf/4.1.2/../../../../nios2-elf/lib/libc.a(lib_a-locale.o)
 .debug_pubnames
                0x00001a63       0x1f /package/eda/altera/altera13.0sp1/nios2eds/bin/gnu/H-i686-pc-linux-gnu/bin/../lib/gcc/nios2-elf/4.1.2/../../../../nios2-elf/lib/libc.a(lib_a-lseekr.o)
 .debug_pubnames
                0x00001a82       0x2d /package/eda/altera/altera13.0sp1/nios2eds/bin/gnu/H-i686-pc-linux-gnu/bin/../lib/gcc/nios2-elf/4.1.2/../../../../nios2-elf/lib/libc.a(lib_a-mbrtowc.o)
 .debug_pubnames
                0x00001aaf       0x20 /package/eda/altera/altera13.0sp1/nios2eds/bin/gnu/H-i686-pc-linux-gnu/bin/../lib/gcc/nios2-elf/4.1.2/../../../../nios2-elf/lib/libc.a(lib_a-mbtowc_r.o)
 .debug_pubnames
                0x00001acf       0x1d /package/eda/altera/altera13.0sp1/nios2eds/bin/gnu/H-i686-pc-linux-gnu/bin/../lib/gcc/nios2-elf/4.1.2/../../../../nios2-elf/lib/libc.a(lib_a-memchr.o)
 .debug_pubnames
                0x00001aec       0x1e /package/eda/altera/altera13.0sp1/nios2eds/bin/gnu/H-i686-pc-linux-gnu/bin/../lib/gcc/nios2-elf/4.1.2/../../../../nios2-elf/lib/libc.a(lib_a-memmove.o)
 .debug_pubnames
                0x00001b0a      0x13a /package/eda/altera/altera13.0sp1/nios2eds/bin/gnu/H-i686-pc-linux-gnu/bin/../lib/gcc/nios2-elf/4.1.2/../../../../nios2-elf/lib/libc.a(lib_a-mprec.o)
 .debug_pubnames
                0x00001c44       0x1e /package/eda/altera/altera13.0sp1/nios2eds/bin/gnu/H-i686-pc-linux-gnu/bin/../lib/gcc/nios2-elf/4.1.2/../../../../nios2-elf/lib/libc.a(lib_a-readr.o)
 .debug_pubnames
                0x00001c62       0x21 /package/eda/altera/altera13.0sp1/nios2eds/bin/gnu/H-i686-pc-linux-gnu/bin/../lib/gcc/nios2-elf/4.1.2/../../../../nios2-elf/lib/libc.a(lib_a-reallocr.o)
 .debug_pubnames
                0x00001c83       0x1f /package/eda/altera/altera13.0sp1/nios2eds/bin/gnu/H-i686-pc-linux-gnu/bin/../lib/gcc/nios2-elf/4.1.2/../../../../nios2-elf/lib/libc.a(lib_a-s_isinfd.o)
 .debug_pubnames
                0x00001ca2       0x1f /package/eda/altera/altera13.0sp1/nios2eds/bin/gnu/H-i686-pc-linux-gnu/bin/../lib/gcc/nios2-elf/4.1.2/../../../../nios2-elf/lib/libc.a(lib_a-s_isnand.o)
 .debug_pubnames
                0x00001cc1       0x1d /package/eda/altera/altera13.0sp1/nios2eds/bin/gnu/H-i686-pc-linux-gnu/bin/../lib/gcc/nios2-elf/4.1.2/../../../../nios2-elf/lib/libc.a(lib_a-sccl.o)
 .debug_pubnames
                0x00001cde       0x1b /package/eda/altera/altera13.0sp1/nios2eds/bin/gnu/H-i686-pc-linux-gnu/bin/../lib/gcc/nios2-elf/4.1.2/../../../../nios2-elf/lib/libc.a(lib_a-sf_nan.o)
 .debug_pubnames
                0x00001cf9       0x1d /package/eda/altera/altera13.0sp1/nios2eds/bin/gnu/H-i686-pc-linux-gnu/bin/../lib/gcc/nios2-elf/4.1.2/../../../../nios2-elf/lib/libc.a(lib_a-strcmp.o)
 .debug_pubnames
                0x00001d16       0x36 /package/eda/altera/altera13.0sp1/nios2eds/bin/gnu/H-i686-pc-linux-gnu/bin/../lib/gcc/nios2-elf/4.1.2/../../../../nios2-elf/lib/libc.a(lib_a-strtod.o)
 .debug_pubnames
                0x00001d4c       0x2b /package/eda/altera/altera13.0sp1/nios2eds/bin/gnu/H-i686-pc-linux-gnu/bin/../lib/gcc/nios2-elf/4.1.2/../../../../nios2-elf/lib/libc.a(lib_a-strtol.o)
 .debug_pubnames
                0x00001d77       0x21 /package/eda/altera/altera13.0sp1/nios2eds/bin/gnu/H-i686-pc-linux-gnu/bin/../lib/gcc/nios2-elf/4.1.2/../../../../nios2-elf/lib/libc.a(lib_a-strtoll_r.o)
 .debug_pubnames
                0x00001d98       0x2d /package/eda/altera/altera13.0sp1/nios2eds/bin/gnu/H-i686-pc-linux-gnu/bin/../lib/gcc/nios2-elf/4.1.2/../../../../nios2-elf/lib/libc.a(lib_a-strtoul.o)
 .debug_pubnames
                0x00001dc5       0x22 /package/eda/altera/altera13.0sp1/nios2eds/bin/gnu/H-i686-pc-linux-gnu/bin/../lib/gcc/nios2-elf/4.1.2/../../../../nios2-elf/lib/libc.a(lib_a-strtoull_r.o)
 .debug_pubnames
                0x00001de7       0x39 /package/eda/altera/altera13.0sp1/nios2eds/bin/gnu/H-i686-pc-linux-gnu/bin/../lib/gcc/nios2-elf/4.1.2/../../../../nios2-elf/lib/libc.a(lib_a-ungetc.o)
 .debug_pubnames
                0x00001e20       0x20 /package/eda/altera/altera13.0sp1/nios2eds/bin/gnu/H-i686-pc-linux-gnu/bin/../lib/gcc/nios2-elf/4.1.2/../../../../nios2-elf/lib/libc.a(lib_a-callocr.o)
 .debug_pubnames
                0x00001e40       0x3e /package/eda/altera/altera13.0sp1/nios2eds/bin/gnu/H-i686-pc-linux-gnu/bin/../lib/gcc/nios2-elf/4.1.2/../../../../nios2-elf/lib/libc.a(lib_a-gdtoa-gethex.o)
 .debug_pubnames
                0x00001e7e       0x1f /package/eda/altera/altera13.0sp1/nios2eds/bin/gnu/H-i686-pc-linux-gnu/bin/../lib/gcc/nios2-elf/4.1.2/../../../../nios2-elf/lib/libc.a(lib_a-gdtoa-hexnan.o)
 .debug_pubnames
                0x00001e9d       0x23 /package/eda/altera/altera13.0sp1/nios2eds/bin/gnu/H-i686-pc-linux-gnu/bin/../lib/gcc/nios2-elf/4.1.2/libgcc.a(_fixunsdfsi.o)
 .debug_pubnames
                0x00001ec0       0x20 /package/eda/altera/altera13.0sp1/nios2eds/bin/gnu/H-i686-pc-linux-gnu/bin/../lib/gcc/nios2-elf/4.1.2/libgcc.a(_udivdi3.o)
 .debug_pubnames
                0x00001ee0       0x20 /package/eda/altera/altera13.0sp1/nios2eds/bin/gnu/H-i686-pc-linux-gnu/bin/../lib/gcc/nios2-elf/4.1.2/libgcc.a(_umoddi3.o)
 .debug_pubnames
                0x00001f00       0x1e /package/eda/altera/altera13.0sp1/nios2eds/bin/gnu/H-i686-pc-linux-gnu/bin/../lib/gcc/nios2-elf/4.1.2/libgcc.a(_ne_sf.o)
 .debug_pubnames
                0x00001f1e       0x1e /package/eda/altera/altera13.0sp1/nios2eds/bin/gnu/H-i686-pc-linux-gnu/bin/../lib/gcc/nios2-elf/4.1.2/libgcc.a(_gt_sf.o)
 .debug_pubnames
                0x00001f3c       0x1e /package/eda/altera/altera13.0sp1/nios2eds/bin/gnu/H-i686-pc-linux-gnu/bin/../lib/gcc/nios2-elf/4.1.2/libgcc.a(_lt_sf.o)
 .debug_pubnames
                0x00001f5a       0x2c /package/eda/altera/altera13.0sp1/nios2eds/bin/gnu/H-i686-pc-linux-gnu/bin/../lib/gcc/nios2-elf/4.1.2/libgcc.a(_addsub_df.o)
 .debug_pubnames
                0x00001f86       0x1e /package/eda/altera/altera13.0sp1/nios2eds/bin/gnu/H-i686-pc-linux-gnu/bin/../lib/gcc/nios2-elf/4.1.2/libgcc.a(_eq_df.o)
 .debug_pubnames
                0x00001fa4       0x1e /package/eda/altera/altera13.0sp1/nios2eds/bin/gnu/H-i686-pc-linux-gnu/bin/../lib/gcc/nios2-elf/4.1.2/libgcc.a(_ne_df.o)
 .debug_pubnames
                0x00001fc2       0x1e /package/eda/altera/altera13.0sp1/nios2eds/bin/gnu/H-i686-pc-linux-gnu/bin/../lib/gcc/nios2-elf/4.1.2/libgcc.a(_gt_df.o)
 .debug_pubnames
                0x00001fe0       0x1e /package/eda/altera/altera13.0sp1/nios2eds/bin/gnu/H-i686-pc-linux-gnu/bin/../lib/gcc/nios2-elf/4.1.2/libgcc.a(_ge_df.o)
 .debug_pubnames
                0x00001ffe       0x1e /package/eda/altera/altera13.0sp1/nios2eds/bin/gnu/H-i686-pc-linux-gnu/bin/../lib/gcc/nios2-elf/4.1.2/libgcc.a(_lt_df.o)
 .debug_pubnames
                0x0000201c       0x1e /package/eda/altera/altera13.0sp1/nios2eds/bin/gnu/H-i686-pc-linux-gnu/bin/../lib/gcc/nios2-elf/4.1.2/libgcc.a(_le_df.o)
 .debug_pubnames
                0x0000203a       0x22 /package/eda/altera/altera13.0sp1/nios2eds/bin/gnu/H-i686-pc-linux-gnu/bin/../lib/gcc/nios2-elf/4.1.2/libgcc.a(_si_to_df.o)
 .debug_pubnames
                0x0000205c       0x20 /package/eda/altera/altera13.0sp1/nios2eds/bin/gnu/H-i686-pc-linux-gnu/bin/../lib/gcc/nios2-elf/4.1.2/libgcc.a(_df_to_si.o)
 .debug_pubnames
                0x0000207c       0x26 /package/eda/altera/altera13.0sp1/nios2eds/bin/gnu/H-i686-pc-linux-gnu/bin/../lib/gcc/nios2-elf/4.1.2/libgcc.a(_fpcmp_parts_sf.o)
 .debug_pubnames
                0x000020a2       0x26 /package/eda/altera/altera13.0sp1/nios2eds/bin/gnu/H-i686-pc-linux-gnu/bin/../lib/gcc/nios2-elf/4.1.2/libgcc.a(_fpcmp_parts_df.o)
 .debug_pubnames
                0x000020c8       0x1c ../demo_board_NiosIIf_bsp//libhal_bsp.a(alt_close.o)
 .debug_pubnames
                0x000020e4       0x27 ../demo_board_NiosIIf_bsp//libhal_bsp.a(alt_dcache_flush.o)
 .debug_pubnames
                0x0000210b       0x63 ../demo_board_NiosIIf_bsp//libhal_bsp.a(alt_dev.o)
 .debug_pubnames
                0x0000216e       0x32 ../demo_board_NiosIIf_bsp//libhal_bsp.a(alt_env_lock.o)
 .debug_pubnames
                0x000021a0       0x20 ../demo_board_NiosIIf_bsp//libhal_bsp.a(alt_errno.o)
 .debug_pubnames
                0x000021c0       0x1c ../demo_board_NiosIIf_bsp//libhal_bsp.a(alt_exit.o)
 .debug_pubnames
                0x000021dc       0x1c ../demo_board_NiosIIf_bsp//libhal_bsp.a(alt_fstat.o)
 .debug_pubnames
                0x000021f8       0x1d ../demo_board_NiosIIf_bsp//libhal_bsp.a(alt_isatty.o)
 .debug_pubnames
                0x00002215       0x1f ../demo_board_NiosIIf_bsp//libhal_bsp.a(alt_load.o)
 .debug_pubnames
                0x00002234       0x1c ../demo_board_NiosIIf_bsp//libhal_bsp.a(alt_lseek.o)
 .debug_pubnames
                0x00002250       0x46 ../demo_board_NiosIIf_bsp//libhal_bsp.a(alt_main.o)
 .debug_pubnames
                0x00002296       0x38 ../demo_board_NiosIIf_bsp//libhal_bsp.a(alt_malloc_lock.o)
 .debug_pubnames
                0x000022ce       0x1b ../demo_board_NiosIIf_bsp//libhal_bsp.a(alt_open.o)
 .debug_pubnames
                0x000022e9       0x1b ../demo_board_NiosIIf_bsp//libhal_bsp.a(alt_read.o)
 .debug_pubnames
                0x00002304       0x25 ../demo_board_NiosIIf_bsp//libhal_bsp.a(alt_release_fd.o)
 .debug_pubnames
                0x00002329       0x1b ../demo_board_NiosIIf_bsp//libhal_bsp.a(alt_sbrk.o)
 .debug_pubnames
                0x00002344       0x1c ../demo_board_NiosIIf_bsp//libhal_bsp.a(alt_write.o)
 .debug_pubnames
                0x00002360       0x34 ../demo_board_NiosIIf_bsp//libhal_bsp.a(alt_sys_init.o)
 .debug_pubnames
                0x00002394       0xac ../demo_board_NiosIIf_bsp//libhal_bsp.a(altera_avalon_cfi_flash.o)
 .debug_pubnames
                0x00002440      0x27a ../demo_board_NiosIIf_bsp//libhal_bsp.a(altera_avalon_cfi_flash_table.o)
 .debug_pubnames
                0x000026ba       0xa5 ../demo_board_NiosIIf_bsp//libhal_bsp.a(altera_avalon_jtag_uart_fd.o)
 .debug_pubnames
                0x0000275f       0x55 ../demo_board_NiosIIf_bsp//libhal_bsp.a(altera_avalon_jtag_uart_init.o)
 .debug_pubnames
                0x000027b4       0x34 ../demo_board_NiosIIf_bsp//libhal_bsp.a(altera_avalon_jtag_uart_ioctl.o)
 .debug_pubnames
                0x000027e8       0x33 ../demo_board_NiosIIf_bsp//libhal_bsp.a(altera_avalon_jtag_uart_read.o)
 .debug_pubnames
                0x0000281b       0x34 ../demo_board_NiosIIf_bsp//libhal_bsp.a(altera_avalon_jtag_uart_write.o)
 .debug_pubnames
                0x0000284f       0x96 ../demo_board_NiosIIf_bsp//libhal_bsp.a(altera_avalon_performance_counter.o)
 .debug_pubnames
                0x000028e5       0x2f ../demo_board_NiosIIf_bsp//libhal_bsp.a(altera_avalon_timer_sc.o)
 .debug_pubnames
                0x00002914       0xa3 ../demo_board_NiosIIf_bsp//libhal_bsp.a(altera_ro_zipfs.o)
 .debug_pubnames
                0x000029b7      0x1f1 ../demo_board_NiosIIf_bsp//libhal_bsp.a(altera_up_avalon_video_pixel_buffer_dma.o)
 .debug_pubnames
                0x00002ba8       0x32 ../demo_board_NiosIIf_bsp//libhal_bsp.a(perf_print_formatted_report.o)
 .debug_pubnames
                0x00002bda       0x26 ../demo_board_NiosIIf_bsp//libhal_bsp.a(alt_alarm_start.o)
 .debug_pubnames
                0x00002c00       0x2b ../demo_board_NiosIIf_bsp//libhal_bsp.a(alt_dcache_flush_all.o)
 .debug_pubnames
                0x00002c2b       0x2b ../demo_board_NiosIIf_bsp//libhal_bsp.a(alt_dev_llist_insert.o)
 .debug_pubnames
                0x00002c56       0x20 ../demo_board_NiosIIf_bsp//libhal_bsp.a(alt_do_ctors.o)
 .debug_pubnames
                0x00002c76       0x20 ../demo_board_NiosIIf_bsp//libhal_bsp.a(alt_do_dtors.o)
 .debug_pubnames
                0x00002c96       0x23 ../demo_board_NiosIIf_bsp//libhal_bsp.a(alt_find_dev.o)
 .debug_pubnames
                0x00002cb9       0x24 ../demo_board_NiosIIf_bsp//libhal_bsp.a(alt_find_file.o)
 .debug_pubnames
                0x00002cdd       0x58 ../demo_board_NiosIIf_bsp//libhal_bsp.a(alt_flash_dev.o)
 .debug_pubnames
                0x00002d35       0x21 ../demo_board_NiosIIf_bsp//libhal_bsp.a(alt_fs_reg.o)
 .debug_pubnames
                0x00002d56       0x21 ../demo_board_NiosIIf_bsp//libhal_bsp.a(alt_get_fd.o)
 .debug_pubnames
                0x00002d77       0x2b ../demo_board_NiosIIf_bsp//libhal_bsp.a(alt_icache_flush_all.o)
 .debug_pubnames
                0x00002da2       0x6e ../demo_board_NiosIIf_bsp//libhal_bsp.a(alt_iic.o)
 .debug_pubnames
                0x00002e10       0x2b ../demo_board_NiosIIf_bsp//libhal_bsp.a(alt_iic_isr_register.o)
 .debug_pubnames
                0x00002e3b       0x26 ../demo_board_NiosIIf_bsp//libhal_bsp.a(alt_io_redirect.o)
 .debug_pubnames
                0x00002e61       0x32 ../demo_board_NiosIIf_bsp//libhal_bsp.a(alt_irq_handler.o)
 .debug_pubnames
                0x00002e93       0x3b ../demo_board_NiosIIf_bsp//libhal_bsp.a(alt_irq_vars.o)
 .debug_pubnames
                0x00002ece       0x68 ../demo_board_NiosIIf_bsp//libhal_bsp.a(alt_tick.o)
 .debug_pubnames
                0x00002f36       0x31 ../demo_board_NiosIIf_bsp//libhal_bsp.a(altera_nios2_qsys_irq.o)
 .debug_pubnames
                0x00002f67       0x3e ../demo_board_NiosIIf_bsp//libhal_bsp.a(altera_avalon_cfi_flash_amd.o)
 .debug_pubnames
                0x00002fa5       0x42 ../demo_board_NiosIIf_bsp//libhal_bsp.a(altera_avalon_cfi_flash_intel.o)
 .debug_pubnames
                0x00002fe7       0x27 ../demo_board_NiosIIf_bsp//libhal_bsp.a(alt_icache_flush.o)
 .debug_pubnames
                0x0000300e       0x1d ../demo_board_NiosIIf_bsp//libhal_bsp.a(alt_usleep.o)
 .debug_pubnames
                0x0000302b       0x25 ../demo_board_NiosIIf_bsp//libhal_bsp.a(alt_busy_sleep.o)
 .debug_pubnames
                0x00003050       0x2a /package/eda/altera/altera13.0sp1/nios2eds/bin/gnu/H-i686-pc-linux-gnu/bin/../lib/gcc/nios2-elf/4.1.2/../../../../nios2-elf/lib/libc.a(lib_a-atexit.o)
 .debug_pubnames
                0x0000307a       0x1d /package/eda/altera/altera13.0sp1/nios2eds/bin/gnu/H-i686-pc-linux-gnu/bin/../lib/gcc/nios2-elf/4.1.2/../../../../nios2-elf/lib/libc.a(lib_a-memcmp.o)
 .debug_pubnames
                0x00003097       0x2a /package/eda/altera/altera13.0sp1/nios2eds/bin/gnu/H-i686-pc-linux-gnu/bin/../lib/gcc/nios2-elf/4.1.2/../../../../nios2-elf/lib/libc.a(lib_a-__atexit.o)
 .debug_pubnames
                0x000030c1       0x24 /package/eda/altera/altera13.0sp1/nios2eds/bin/gnu/H-i686-pc-linux-gnu/bin/../lib/gcc/nios2-elf/4.1.2/libgcc.a(_floatundidf.o)

.debug_info     0x00000000    0x8aac3
 *(.debug_info .gnu.linkonce.wi.*)
 .debug_info    0x00000000       0x70 ../demo_board_NiosIIf_bsp//obj/HAL/src/crt0.o
 .debug_info    0x00000070      0xa12 obj/default/cdjpeg.o
 .debug_info    0x00000a82     0x2341 obj/default/djpeg.o
 .debug_info    0x00002dc3     0x1291 obj/default/jcapimin.o
 .debug_info    0x00004054     0x11bf obj/default/jcapistd.o
 .debug_info    0x00005213     0x16d5 obj/default/jccoefct.o
 .debug_info    0x000068e8     0x160e obj/default/jccolor.o
 .debug_info    0x00007ef6     0x1595 obj/default/jcdctmgr.o
 .debug_info    0x0000948b     0x2077 obj/default/jchuff.o
 .debug_info    0x0000b502     0x10f1 obj/default/jcinit.o
 .debug_info    0x0000c5f3     0x1259 obj/default/jcmainct.o
 .debug_info    0x0000d84c     0x2872 obj/default/jcmarker.o
 .debug_info    0x000100be     0x157e obj/default/jcmaster.o
 .debug_info    0x0001163c      0x6fa obj/default/jcomapi.o
 .debug_info    0x00011d36     0x1d6d obj/default/jcparam.o
 .debug_info    0x00013aa3     0x33ca obj/default/jcphuff.o
 .debug_info    0x00016e6d     0x1559 obj/default/jcprepct.o
 .debug_info    0x000183c6     0x1a22 obj/default/jcsample.o
 .debug_info    0x00019de8     0x1fbf obj/default/jctrans.o
 .debug_info    0x0001bda7     0x1603 obj/default/jdapimin.o
 .debug_info    0x0001d3aa     0x14fb obj/default/jdapistd.o
 .debug_info    0x0001e8a5     0x1a99 obj/default/jdatadst.o
 .debug_info    0x0002033e     0x1da2 obj/default/jdatasrc.o
 .debug_info    0x000220e0     0x1c43 obj/default/jdcoefct.o
 .debug_info    0x00023d23     0x1854 obj/default/jdcolor.o
 .debug_info    0x00025577     0x1566 obj/default/jddctmgr.o
 .debug_info    0x00026add     0x2191 obj/default/jdhuff.o
 .debug_info    0x00028c6e     0x15fd obj/default/jdinput.o
 .debug_info    0x0002a26b     0x1956 obj/default/jdmainct.o
 .debug_info    0x0002bbc1     0x1e09 obj/default/jdmarker.o
 .debug_info    0x0002d9ca     0x1646 obj/default/jdmaster.o
 .debug_info    0x0002f010     0x192d obj/default/jdmerge.o
 .debug_info    0x0003093d     0x1c9b obj/default/jdphuff.o
 .debug_info    0x000325d8     0x1661 obj/default/jdpostct.o
 .debug_info    0x00033c39     0x1a90 obj/default/jdsample.o
 .debug_info    0x000356c9     0x13e7 obj/default/jdtrans.o
 .debug_info    0x00036ab0      0xfa7 obj/default/jerror.o
 .debug_info    0x00037a57      0x1e1 obj/default/jfdctflt.o
 .debug_info    0x00037c38      0x1f0 obj/default/jfdctfst.o
 .debug_info    0x00037e28      0x1e1 obj/default/jfdctint.o
 .debug_info    0x00038009     0x1561 obj/default/jidctflt.o
 .debug_info    0x0003956a     0x157f obj/default/jidctfst.o
 .debug_info    0x0003aae9     0x153b obj/default/jidctint.o
 .debug_info    0x0003c024     0x16c2 obj/default/jidctred.o
 .debug_info    0x0003d6e6     0x1d47 obj/default/jmemmgr.o
 .debug_info    0x0003f42d     0x1083 obj/default/jmemnobs.o
 .debug_info    0x000404b0     0x2129 obj/default/jquant1.o
 .debug_info    0x000425d9     0x2613 obj/default/jquant2.o
 .debug_info    0x00044bec      0x2bb obj/default/jutils.o
 .debug_info    0x00044ea7     0x205d obj/default/rdcolmap.o
 .debug_info    0x00046f04     0x2219 obj/default/wrbmp.o
 .debug_info    0x0004911d     0x23c0 obj/default/wrgif.o
 .debug_info    0x0004b4dd     0x204c obj/default/wrppm.o
 .debug_info    0x0004d529       0x81 obj/default/wrrle.o
 .debug_info    0x0004d5aa     0x2016 obj/default/wrtarga.o
 .debug_info    0x0004f5c0      0x47f /package/eda/altera/altera13.0sp1/nios2eds/bin/gnu/H-i686-pc-linux-gnu/bin/../lib/gcc/nios2-elf/4.1.2/libgcc.a(_addsub_sf.o)
 .debug_info    0x0004fa3f      0x3d4 /package/eda/altera/altera13.0sp1/nios2eds/bin/gnu/H-i686-pc-linux-gnu/bin/../lib/gcc/nios2-elf/4.1.2/libgcc.a(_mul_sf.o)
 .debug_info    0x0004fe13      0x214 /package/eda/altera/altera13.0sp1/nios2eds/bin/gnu/H-i686-pc-linux-gnu/bin/../lib/gcc/nios2-elf/4.1.2/libgcc.a(_si_to_sf.o)
 .debug_info    0x00050027      0x2c1 /package/eda/altera/altera13.0sp1/nios2eds/bin/gnu/H-i686-pc-linux-gnu/bin/../lib/gcc/nios2-elf/4.1.2/libgcc.a(_sf_to_si.o)
 .debug_info    0x000502e8      0x164 /package/eda/altera/altera13.0sp1/nios2eds/bin/gnu/H-i686-pc-linux-gnu/bin/../lib/gcc/nios2-elf/4.1.2/libgcc.a(_thenan_sf.o)
 .debug_info    0x0005044c      0x488 /package/eda/altera/altera13.0sp1/nios2eds/bin/gnu/H-i686-pc-linux-gnu/bin/../lib/gcc/nios2-elf/4.1.2/libgcc.a(_mul_df.o)
 .debug_info    0x000508d4      0x39b /package/eda/altera/altera13.0sp1/nios2eds/bin/gnu/H-i686-pc-linux-gnu/bin/../lib/gcc/nios2-elf/4.1.2/libgcc.a(_div_df.o)
 .debug_info    0x00050c6f      0x261 /package/eda/altera/altera13.0sp1/nios2eds/bin/gnu/H-i686-pc-linux-gnu/bin/../lib/gcc/nios2-elf/4.1.2/libgcc.a(_df_to_sf.o)
 .debug_info    0x00050ed0      0x164 /package/eda/altera/altera13.0sp1/nios2eds/bin/gnu/H-i686-pc-linux-gnu/bin/../lib/gcc/nios2-elf/4.1.2/libgcc.a(_thenan_df.o)
 .debug_info    0x00051034      0x213 /package/eda/altera/altera13.0sp1/nios2eds/bin/gnu/H-i686-pc-linux-gnu/bin/../lib/gcc/nios2-elf/4.1.2/libgcc.a(_usi_to_df.o)
 .debug_info    0x00051247      0x21c /package/eda/altera/altera13.0sp1/nios2eds/bin/gnu/H-i686-pc-linux-gnu/bin/../lib/gcc/nios2-elf/4.1.2/libgcc.a(lib2-divmod.o)
 .debug_info    0x00051463       0xae /package/eda/altera/altera13.0sp1/nios2eds/bin/gnu/H-i686-pc-linux-gnu/bin/../lib/gcc/nios2-elf/4.1.2/libgcc.a(lib2-divtable.o)
 .debug_info    0x00051511      0x215 /package/eda/altera/altera13.0sp1/nios2eds/bin/gnu/H-i686-pc-linux-gnu/bin/../lib/gcc/nios2-elf/4.1.2/libgcc.a(_muldi3.o)
 .debug_info    0x00051726      0x130 /package/eda/altera/altera13.0sp1/nios2eds/bin/gnu/H-i686-pc-linux-gnu/bin/../lib/gcc/nios2-elf/4.1.2/libgcc.a(_clzsi2.o)
 .debug_info    0x00051856      0x2f2 /package/eda/altera/altera13.0sp1/nios2eds/bin/gnu/H-i686-pc-linux-gnu/bin/../lib/gcc/nios2-elf/4.1.2/libgcc.a(_pack_sf.o)
 .debug_info    0x00051b48      0x25a /package/eda/altera/altera13.0sp1/nios2eds/bin/gnu/H-i686-pc-linux-gnu/bin/../lib/gcc/nios2-elf/4.1.2/libgcc.a(_unpack_sf.o)
 .debug_info    0x00051da2      0x1d7 /package/eda/altera/altera13.0sp1/nios2eds/bin/gnu/H-i686-pc-linux-gnu/bin/../lib/gcc/nios2-elf/4.1.2/libgcc.a(_make_sf.o)
 .debug_info    0x00051f79      0x2fc /package/eda/altera/altera13.0sp1/nios2eds/bin/gnu/H-i686-pc-linux-gnu/bin/../lib/gcc/nios2-elf/4.1.2/libgcc.a(_pack_df.o)
 .debug_info    0x00052275      0x268 /package/eda/altera/altera13.0sp1/nios2eds/bin/gnu/H-i686-pc-linux-gnu/bin/../lib/gcc/nios2-elf/4.1.2/libgcc.a(_unpack_df.o)
 .debug_info    0x000524dd       0xc9 /package/eda/altera/altera13.0sp1/nios2eds/bin/gnu/H-i686-pc-linux-gnu/bin/../lib/gcc/nios2-elf/4.1.2/libgcc.a(_clz.o)
 .debug_info    0x000525a6       0xa0 /package/eda/altera/altera13.0sp1/nios2eds/bin/gnu/H-i686-pc-linux-gnu/bin/../lib/gcc/nios2-elf/4.1.2/../../../../nios2-elf/lib/libc.a(lib_a-ctype_.o)
 .debug_info    0x00052646      0x93f /package/eda/altera/altera13.0sp1/nios2eds/bin/gnu/H-i686-pc-linux-gnu/bin/../lib/gcc/nios2-elf/4.1.2/../../../../nios2-elf/lib/libc.a(lib_a-exit.o)
 .debug_info    0x00052f85      0x994 /package/eda/altera/altera13.0sp1/nios2eds/bin/gnu/H-i686-pc-linux-gnu/bin/../lib/gcc/nios2-elf/4.1.2/../../../../nios2-elf/lib/libc.a(lib_a-fclose.o)
 .debug_info    0x00053919      0x9fe /package/eda/altera/altera13.0sp1/nios2eds/bin/gnu/H-i686-pc-linux-gnu/bin/../lib/gcc/nios2-elf/4.1.2/../../../../nios2-elf/lib/libc.a(lib_a-fflush.o)
 .debug_info    0x00054317      0xb72 /package/eda/altera/altera13.0sp1/nios2eds/bin/gnu/H-i686-pc-linux-gnu/bin/../lib/gcc/nios2-elf/4.1.2/../../../../nios2-elf/lib/libc.a(lib_a-findfp.o)
 .debug_info    0x00054e89      0x9e0 /package/eda/altera/altera13.0sp1/nios2eds/bin/gnu/H-i686-pc-linux-gnu/bin/../lib/gcc/nios2-elf/4.1.2/../../../../nios2-elf/lib/libc.a(lib_a-fopen.o)
 .debug_info    0x00055869      0x9e1 /package/eda/altera/altera13.0sp1/nios2eds/bin/gnu/H-i686-pc-linux-gnu/bin/../lib/gcc/nios2-elf/4.1.2/../../../../nios2-elf/lib/libc.a(lib_a-fprintf.o)
 .debug_info    0x0005624a      0x9bd /package/eda/altera/altera13.0sp1/nios2eds/bin/gnu/H-i686-pc-linux-gnu/bin/../lib/gcc/nios2-elf/4.1.2/../../../../nios2-elf/lib/libc.a(lib_a-fputc.o)
 .debug_info    0x00056c07      0xa77 /package/eda/altera/altera13.0sp1/nios2eds/bin/gnu/H-i686-pc-linux-gnu/bin/../lib/gcc/nios2-elf/4.1.2/../../../../nios2-elf/lib/libc.a(lib_a-fread.o)
 .debug_info    0x0005767e      0xbc9 /package/eda/altera/altera13.0sp1/nios2eds/bin/gnu/H-i686-pc-linux-gnu/bin/../lib/gcc/nios2-elf/4.1.2/../../../../nios2-elf/lib/libc.a(lib_a-freer.o)
 .debug_info    0x00058247      0xbdc /package/eda/altera/altera13.0sp1/nios2eds/bin/gnu/H-i686-pc-linux-gnu/bin/../lib/gcc/nios2-elf/4.1.2/../../../../nios2-elf/lib/libc.a(lib_a-fseek.o)
 .debug_info    0x00058e23      0xafc /package/eda/altera/altera13.0sp1/nios2eds/bin/gnu/H-i686-pc-linux-gnu/bin/../lib/gcc/nios2-elf/4.1.2/../../../../nios2-elf/lib/libc.a(lib_a-fstatr.o)
 .debug_info    0x0005991f      0xaed /package/eda/altera/altera13.0sp1/nios2eds/bin/gnu/H-i686-pc-linux-gnu/bin/../lib/gcc/nios2-elf/4.1.2/../../../../nios2-elf/lib/libc.a(lib_a-fwalk.o)
 .debug_info    0x0005a40c      0xa83 /package/eda/altera/altera13.0sp1/nios2eds/bin/gnu/H-i686-pc-linux-gnu/bin/../lib/gcc/nios2-elf/4.1.2/../../../../nios2-elf/lib/libc.a(lib_a-fwrite.o)
 .debug_info    0x0005ae8f      0x9a7 /package/eda/altera/altera13.0sp1/nios2eds/bin/gnu/H-i686-pc-linux-gnu/bin/../lib/gcc/nios2-elf/4.1.2/../../../../nios2-elf/lib/libc.a(lib_a-getc.o)
 .debug_info    0x0005b836      0x98c /package/eda/altera/altera13.0sp1/nios2eds/bin/gnu/H-i686-pc-linux-gnu/bin/../lib/gcc/nios2-elf/4.1.2/../../../../nios2-elf/lib/libc.a(lib_a-getenv.o)
 .debug_info    0x0005c1c2      0x9f0 /package/eda/altera/altera13.0sp1/nios2eds/bin/gnu/H-i686-pc-linux-gnu/bin/../lib/gcc/nios2-elf/4.1.2/../../../../nios2-elf/lib/libc.a(lib_a-getenv_r.o)
 .debug_info    0x0005cbb2      0x93d /package/eda/altera/altera13.0sp1/nios2eds/bin/gnu/H-i686-pc-linux-gnu/bin/../lib/gcc/nios2-elf/4.1.2/../../../../nios2-elf/lib/libc.a(lib_a-impure.o)
 .debug_info    0x0005d4ef       0x8c /package/eda/altera/altera13.0sp1/nios2eds/bin/gnu/H-i686-pc-linux-gnu/bin/../lib/gcc/nios2-elf/4.1.2/../../../../nios2-elf/lib/libc.a(lib_a-int_errno.o)
 .debug_info    0x0005d57b      0xb1a /package/eda/altera/altera13.0sp1/nios2eds/bin/gnu/H-i686-pc-linux-gnu/bin/../lib/gcc/nios2-elf/4.1.2/../../../../nios2-elf/lib/libc.a(lib_a-makebuf.o)
 .debug_info    0x0005e095      0x96e /package/eda/altera/altera13.0sp1/nios2eds/bin/gnu/H-i686-pc-linux-gnu/bin/../lib/gcc/nios2-elf/4.1.2/../../../../nios2-elf/lib/libc.a(lib_a-malloc.o)
 .debug_info    0x0005ea03      0xcd0 /package/eda/altera/altera13.0sp1/nios2eds/bin/gnu/H-i686-pc-linux-gnu/bin/../lib/gcc/nios2-elf/4.1.2/../../../../nios2-elf/lib/libc.a(lib_a-mallocr.o)
 .debug_info    0x0005f6d3      0x106 /package/eda/altera/altera13.0sp1/nios2eds/bin/gnu/H-i686-pc-linux-gnu/bin/../lib/gcc/nios2-elf/4.1.2/../../../../nios2-elf/lib/libc.a(lib_a-memcpy.o)
 .debug_info    0x0005f7d9      0x113 /package/eda/altera/altera13.0sp1/nios2eds/bin/gnu/H-i686-pc-linux-gnu/bin/../lib/gcc/nios2-elf/4.1.2/../../../../nios2-elf/lib/libc.a(lib_a-memset.o)
 .debug_info    0x0005f8ec      0x977 /package/eda/altera/altera13.0sp1/nios2eds/bin/gnu/H-i686-pc-linux-gnu/bin/../lib/gcc/nios2-elf/4.1.2/../../../../nios2-elf/lib/libc.a(lib_a-openr.o)
 .debug_info    0x00060263      0x9d1 /package/eda/altera/altera13.0sp1/nios2eds/bin/gnu/H-i686-pc-linux-gnu/bin/../lib/gcc/nios2-elf/4.1.2/../../../../nios2-elf/lib/libc.a(lib_a-printf.o)
 .debug_info    0x00060c34      0x9c1 /package/eda/altera/altera13.0sp1/nios2eds/bin/gnu/H-i686-pc-linux-gnu/bin/../lib/gcc/nios2-elf/4.1.2/../../../../nios2-elf/lib/libc.a(lib_a-putc.o)
 .debug_info    0x000615f5      0xa25 /package/eda/altera/altera13.0sp1/nios2eds/bin/gnu/H-i686-pc-linux-gnu/bin/../lib/gcc/nios2-elf/4.1.2/../../../../nios2-elf/lib/libc.a(lib_a-puts.o)
 .debug_info    0x0006201a      0x98b /package/eda/altera/altera13.0sp1/nios2eds/bin/gnu/H-i686-pc-linux-gnu/bin/../lib/gcc/nios2-elf/4.1.2/../../../../nios2-elf/lib/libc.a(lib_a-refill.o)
 .debug_info    0x000629a5      0x987 /package/eda/altera/altera13.0sp1/nios2eds/bin/gnu/H-i686-pc-linux-gnu/bin/../lib/gcc/nios2-elf/4.1.2/../../../../nios2-elf/lib/libc.a(lib_a-rget.o)
 .debug_info    0x0006332c      0x962 /package/eda/altera/altera13.0sp1/nios2eds/bin/gnu/H-i686-pc-linux-gnu/bin/../lib/gcc/nios2-elf/4.1.2/../../../../nios2-elf/lib/libc.a(lib_a-sbrkr.o)
 .debug_info    0x00063c8e      0xa16 /package/eda/altera/altera13.0sp1/nios2eds/bin/gnu/H-i686-pc-linux-gnu/bin/../lib/gcc/nios2-elf/4.1.2/../../../../nios2-elf/lib/libc.a(lib_a-sprintf.o)
 .debug_info    0x000646a4      0xa6a /package/eda/altera/altera13.0sp1/nios2eds/bin/gnu/H-i686-pc-linux-gnu/bin/../lib/gcc/nios2-elf/4.1.2/../../../../nios2-elf/lib/libc.a(lib_a-sscanf.o)
 .debug_info    0x0006510e      0xaac /package/eda/altera/altera13.0sp1/nios2eds/bin/gnu/H-i686-pc-linux-gnu/bin/../lib/gcc/nios2-elf/4.1.2/../../../../nios2-elf/lib/libc.a(lib_a-stdio.o)
 .debug_info    0x00065bba      0x93c /package/eda/altera/altera13.0sp1/nios2eds/bin/gnu/H-i686-pc-linux-gnu/bin/../lib/gcc/nios2-elf/4.1.2/../../../../nios2-elf/lib/libc.a(lib_a-strdup.o)
 .debug_info    0x000664f6      0x964 /package/eda/altera/altera13.0sp1/nios2eds/bin/gnu/H-i686-pc-linux-gnu/bin/../lib/gcc/nios2-elf/4.1.2/../../../../nios2-elf/lib/libc.a(lib_a-strdup_r.o)
 .debug_info    0x00066e5a       0xdb /package/eda/altera/altera13.0sp1/nios2eds/bin/gnu/H-i686-pc-linux-gnu/bin/../lib/gcc/nios2-elf/4.1.2/../../../../nios2-elf/lib/libc.a(lib_a-strlen.o)
 .debug_info    0x00066f35       0xf5 /package/eda/altera/altera13.0sp1/nios2eds/bin/gnu/H-i686-pc-linux-gnu/bin/../lib/gcc/nios2-elf/4.1.2/../../../../nios2-elf/lib/libc.a(lib_a-strncmp.o)
 .debug_info    0x0006702a     0x10d5 /package/eda/altera/altera13.0sp1/nios2eds/bin/gnu/H-i686-pc-linux-gnu/bin/../lib/gcc/nios2-elf/4.1.2/../../../../nios2-elf/lib/libc.a(lib_a-vfprintf.o)
 .debug_info    0x000680ff      0xe8c /package/eda/altera/altera13.0sp1/nios2eds/bin/gnu/H-i686-pc-linux-gnu/bin/../lib/gcc/nios2-elf/4.1.2/../../../../nios2-elf/lib/libc.a(lib_a-vfscanf.o)
 .debug_info    0x00068f8b      0x9ae /package/eda/altera/altera13.0sp1/nios2eds/bin/gnu/H-i686-pc-linux-gnu/bin/../lib/gcc/nios2-elf/4.1.2/../../../../nios2-elf/lib/libc.a(lib_a-wbuf.o)
 .debug_info    0x00069939      0x993 /package/eda/altera/altera13.0sp1/nios2eds/bin/gnu/H-i686-pc-linux-gnu/bin/../lib/gcc/nios2-elf/4.1.2/../../../../nios2-elf/lib/libc.a(lib_a-writer.o)
 .debug_info    0x0006a2cc      0x95d /package/eda/altera/altera13.0sp1/nios2eds/bin/gnu/H-i686-pc-linux-gnu/bin/../lib/gcc/nios2-elf/4.1.2/../../../../nios2-elf/lib/libc.a(lib_a-wsetup.o)
 .debug_info    0x0006ac29      0x9e2 /package/eda/altera/altera13.0sp1/nios2eds/bin/gnu/H-i686-pc-linux-gnu/bin/../lib/gcc/nios2-elf/4.1.2/../../../../nios2-elf/lib/libc.a(lib_a-__call_atexit.o)
 .debug_info    0x0006b60b      0x958 /package/eda/altera/altera13.0sp1/nios2eds/bin/gnu/H-i686-pc-linux-gnu/bin/../lib/gcc/nios2-elf/4.1.2/../../../../nios2-elf/lib/libc.a(lib_a-closer.o)
 .debug_info    0x0006bf63      0xd6f /package/eda/altera/altera13.0sp1/nios2eds/bin/gnu/H-i686-pc-linux-gnu/bin/../lib/gcc/nios2-elf/4.1.2/../../../../nios2-elf/lib/libc.a(lib_a-dtoa.o)
 .debug_info    0x0006ccd2       0x73 /package/eda/altera/altera13.0sp1/nios2eds/bin/gnu/H-i686-pc-linux-gnu/bin/../lib/gcc/nios2-elf/4.1.2/../../../../nios2-elf/lib/libc.a(lib_a-environ.o)
 .debug_info    0x0006cd45      0x977 /package/eda/altera/altera13.0sp1/nios2eds/bin/gnu/H-i686-pc-linux-gnu/bin/../lib/gcc/nios2-elf/4.1.2/../../../../nios2-elf/lib/libc.a(lib_a-flags.o)
 .debug_info    0x0006d6bc      0xa88 /package/eda/altera/altera13.0sp1/nios2eds/bin/gnu/H-i686-pc-linux-gnu/bin/../lib/gcc/nios2-elf/4.1.2/../../../../nios2-elf/lib/libc.a(lib_a-fvwrite.o)
 .debug_info    0x0006e144      0x958 /package/eda/altera/altera13.0sp1/nios2eds/bin/gnu/H-i686-pc-linux-gnu/bin/../lib/gcc/nios2-elf/4.1.2/../../../../nios2-elf/lib/libc.a(lib_a-isattyr.o)
 .debug_info    0x0006ea9c       0xed /package/eda/altera/altera13.0sp1/nios2eds/bin/gnu/H-i686-pc-linux-gnu/bin/../lib/gcc/nios2-elf/4.1.2/../../../../nios2-elf/lib/libc.a(lib_a-iswspace.o)
 .debug_info    0x0006eb89      0xb97 /package/eda/altera/altera13.0sp1/nios2eds/bin/gnu/H-i686-pc-linux-gnu/bin/../lib/gcc/nios2-elf/4.1.2/../../../../nios2-elf/lib/libc.a(lib_a-locale.o)
 .debug_info    0x0006f720      0x981 /package/eda/altera/altera13.0sp1/nios2eds/bin/gnu/H-i686-pc-linux-gnu/bin/../lib/gcc/nios2-elf/4.1.2/../../../../nios2-elf/lib/libc.a(lib_a-lseekr.o)
 .debug_info    0x000700a1      0xa07 /package/eda/altera/altera13.0sp1/nios2eds/bin/gnu/H-i686-pc-linux-gnu/bin/../lib/gcc/nios2-elf/4.1.2/../../../../nios2-elf/lib/libc.a(lib_a-mbrtowc.o)
 .debug_info    0x00070aa8      0x9a2 /package/eda/altera/altera13.0sp1/nios2eds/bin/gnu/H-i686-pc-linux-gnu/bin/../lib/gcc/nios2-elf/4.1.2/../../../../nios2-elf/lib/libc.a(lib_a-mbtowc_r.o)
 .debug_info    0x0007144a      0x138 /package/eda/altera/altera13.0sp1/nios2eds/bin/gnu/H-i686-pc-linux-gnu/bin/../lib/gcc/nios2-elf/4.1.2/../../../../nios2-elf/lib/libc.a(lib_a-memchr.o)
 .debug_info    0x00071582      0x13e /package/eda/altera/altera13.0sp1/nios2eds/bin/gnu/H-i686-pc-linux-gnu/bin/../lib/gcc/nios2-elf/4.1.2/../../../../nios2-elf/lib/libc.a(lib_a-memmove.o)
 .debug_info    0x000716c0     0x1437 /package/eda/altera/altera13.0sp1/nios2eds/bin/gnu/H-i686-pc-linux-gnu/bin/../lib/gcc/nios2-elf/4.1.2/../../../../nios2-elf/lib/libc.a(lib_a-mprec.o)
 .debug_info    0x00072af7      0x98c /package/eda/altera/altera13.0sp1/nios2eds/bin/gnu/H-i686-pc-linux-gnu/bin/../lib/gcc/nios2-elf/4.1.2/../../../../nios2-elf/lib/libc.a(lib_a-readr.o)
 .debug_info    0x00073483      0xbd7 /package/eda/altera/altera13.0sp1/nios2eds/bin/gnu/H-i686-pc-linux-gnu/bin/../lib/gcc/nios2-elf/4.1.2/../../../../nios2-elf/lib/libc.a(lib_a-reallocr.o)
 .debug_info    0x0007405a       0xd7 /package/eda/altera/altera13.0sp1/nios2eds/bin/gnu/H-i686-pc-linux-gnu/bin/../lib/gcc/nios2-elf/4.1.2/../../../../nios2-elf/lib/libc.a(lib_a-s_isinfd.o)
 .debug_info    0x00074131       0xd5 /package/eda/altera/altera13.0sp1/nios2eds/bin/gnu/H-i686-pc-linux-gnu/bin/../lib/gcc/nios2-elf/4.1.2/../../../../nios2-elf/lib/libc.a(lib_a-s_isnand.o)
 .debug_info    0x00074206       0xfb /package/eda/altera/altera13.0sp1/nios2eds/bin/gnu/H-i686-pc-linux-gnu/bin/../lib/gcc/nios2-elf/4.1.2/../../../../nios2-elf/lib/libc.a(lib_a-sccl.o)
 .debug_info    0x00074301       0xc8 /package/eda/altera/altera13.0sp1/nios2eds/bin/gnu/H-i686-pc-linux-gnu/bin/../lib/gcc/nios2-elf/4.1.2/../../../../nios2-elf/lib/libc.a(lib_a-sf_nan.o)
 .debug_info    0x000743c9       0xdd /package/eda/altera/altera13.0sp1/nios2eds/bin/gnu/H-i686-pc-linux-gnu/bin/../lib/gcc/nios2-elf/4.1.2/../../../../nios2-elf/lib/libc.a(lib_a-strcmp.o)
 .debug_info    0x000744a6      0xecc /package/eda/altera/altera13.0sp1/nios2eds/bin/gnu/H-i686-pc-linux-gnu/bin/../lib/gcc/nios2-elf/4.1.2/../../../../nios2-elf/lib/libc.a(lib_a-strtod.o)
 .debug_info    0x00075372      0xa2a /package/eda/altera/altera13.0sp1/nios2eds/bin/gnu/H-i686-pc-linux-gnu/bin/../lib/gcc/nios2-elf/4.1.2/../../../../nios2-elf/lib/libc.a(lib_a-strtol.o)
 .debug_info    0x00075d9c      0x9d5 /package/eda/altera/altera13.0sp1/nios2eds/bin/gnu/H-i686-pc-linux-gnu/bin/../lib/gcc/nios2-elf/4.1.2/../../../../nios2-elf/lib/libc.a(lib_a-strtoll_r.o)
 .debug_info    0x00076771      0xa22 /package/eda/altera/altera13.0sp1/nios2eds/bin/gnu/H-i686-pc-linux-gnu/bin/../lib/gcc/nios2-elf/4.1.2/../../../../nios2-elf/lib/libc.a(lib_a-strtoul.o)
 .debug_info    0x00077193      0x9cd /package/eda/altera/altera13.0sp1/nios2eds/bin/gnu/H-i686-pc-linux-gnu/bin/../lib/gcc/nios2-elf/4.1.2/../../../../nios2-elf/lib/libc.a(lib_a-strtoull_r.o)
 .debug_info    0x00077b60      0x9f6 /package/eda/altera/altera13.0sp1/nios2eds/bin/gnu/H-i686-pc-linux-gnu/bin/../lib/gcc/nios2-elf/4.1.2/../../../../nios2-elf/lib/libc.a(lib_a-ungetc.o)
 .debug_info    0x00078556      0xa1b /package/eda/altera/altera13.0sp1/nios2eds/bin/gnu/H-i686-pc-linux-gnu/bin/../lib/gcc/nios2-elf/4.1.2/../../../../nios2-elf/lib/libc.a(lib_a-callocr.o)
 .debug_info    0x00078f71      0xccb /package/eda/altera/altera13.0sp1/nios2eds/bin/gnu/H-i686-pc-linux-gnu/bin/../lib/gcc/nios2-elf/4.1.2/../../../../nios2-elf/lib/libc.a(lib_a-gdtoa-gethex.o)
 .debug_info    0x00079c3c      0x23e /package/eda/altera/altera13.0sp1/nios2eds/bin/gnu/H-i686-pc-linux-gnu/bin/../lib/gcc/nios2-elf/4.1.2/../../../../nios2-elf/lib/libc.a(lib_a-gdtoa-hexnan.o)
 .debug_info    0x00079e7a       0xce /package/eda/altera/altera13.0sp1/nios2eds/bin/gnu/H-i686-pc-linux-gnu/bin/../lib/gcc/nios2-elf/4.1.2/libgcc.a(_fixunsdfsi.o)
 .debug_info    0x00079f48      0x724 /package/eda/altera/altera13.0sp1/nios2eds/bin/gnu/H-i686-pc-linux-gnu/bin/../lib/gcc/nios2-elf/4.1.2/libgcc.a(_udivdi3.o)
 .debug_info    0x0007a66c      0x751 /package/eda/altera/altera13.0sp1/nios2eds/bin/gnu/H-i686-pc-linux-gnu/bin/../lib/gcc/nios2-elf/4.1.2/libgcc.a(_umoddi3.o)
 .debug_info    0x0007adbd      0x290 /package/eda/altera/altera13.0sp1/nios2eds/bin/gnu/H-i686-pc-linux-gnu/bin/../lib/gcc/nios2-elf/4.1.2/libgcc.a(_ne_sf.o)
 .debug_info    0x0007b04d      0x290 /package/eda/altera/altera13.0sp1/nios2eds/bin/gnu/H-i686-pc-linux-gnu/bin/../lib/gcc/nios2-elf/4.1.2/libgcc.a(_gt_sf.o)
 .debug_info    0x0007b2dd      0x290 /package/eda/altera/altera13.0sp1/nios2eds/bin/gnu/H-i686-pc-linux-gnu/bin/../lib/gcc/nios2-elf/4.1.2/libgcc.a(_lt_sf.o)
 .debug_info    0x0007b56d      0x493 /package/eda/altera/altera13.0sp1/nios2eds/bin/gnu/H-i686-pc-linux-gnu/bin/../lib/gcc/nios2-elf/4.1.2/libgcc.a(_addsub_df.o)
 .debug_info    0x0007ba00      0x29d /package/eda/altera/altera13.0sp1/nios2eds/bin/gnu/H-i686-pc-linux-gnu/bin/../lib/gcc/nios2-elf/4.1.2/libgcc.a(_eq_df.o)
 .debug_info    0x0007bc9d      0x29d /package/eda/altera/altera13.0sp1/nios2eds/bin/gnu/H-i686-pc-linux-gnu/bin/../lib/gcc/nios2-elf/4.1.2/libgcc.a(_ne_df.o)
 .debug_info    0x0007bf3a      0x29d /package/eda/altera/altera13.0sp1/nios2eds/bin/gnu/H-i686-pc-linux-gnu/bin/../lib/gcc/nios2-elf/4.1.2/libgcc.a(_gt_df.o)
 .debug_info    0x0007c1d7      0x29d /package/eda/altera/altera13.0sp1/nios2eds/bin/gnu/H-i686-pc-linux-gnu/bin/../lib/gcc/nios2-elf/4.1.2/libgcc.a(_ge_df.o)
 .debug_info    0x0007c474      0x29d /package/eda/altera/altera13.0sp1/nios2eds/bin/gnu/H-i686-pc-linux-gnu/bin/../lib/gcc/nios2-elf/4.1.2/libgcc.a(_lt_df.o)
 .debug_info    0x0007c711      0x29d /package/eda/altera/altera13.0sp1/nios2eds/bin/gnu/H-i686-pc-linux-gnu/bin/../lib/gcc/nios2-elf/4.1.2/libgcc.a(_le_df.o)
 .debug_info    0x0007c9ae      0x218 /package/eda/altera/altera13.0sp1/nios2eds/bin/gnu/H-i686-pc-linux-gnu/bin/../lib/gcc/nios2-elf/4.1.2/libgcc.a(_si_to_df.o)
 .debug_info    0x0007cbc6      0x2cd /package/eda/altera/altera13.0sp1/nios2eds/bin/gnu/H-i686-pc-linux-gnu/bin/../lib/gcc/nios2-elf/4.1.2/libgcc.a(_df_to_si.o)
 .debug_info    0x0007ce93      0x21f /package/eda/altera/altera13.0sp1/nios2eds/bin/gnu/H-i686-pc-linux-gnu/bin/../lib/gcc/nios2-elf/4.1.2/libgcc.a(_fpcmp_parts_sf.o)
 .debug_info    0x0007d0b2      0x21b /package/eda/altera/altera13.0sp1/nios2eds/bin/gnu/H-i686-pc-linux-gnu/bin/../lib/gcc/nios2-elf/4.1.2/libgcc.a(_fpcmp_parts_df.o)
 .debug_info    0x0007d2cd      0x35c ../demo_board_NiosIIf_bsp//libhal_bsp.a(alt_close.o)
 .debug_info    0x0007d629       0xd9 ../demo_board_NiosIIf_bsp//libhal_bsp.a(alt_dcache_flush.o)
 .debug_info    0x0007d702      0x4dd ../demo_board_NiosIIf_bsp//libhal_bsp.a(alt_dev.o)
 .debug_info    0x0007dbdf      0x947 ../demo_board_NiosIIf_bsp//libhal_bsp.a(alt_env_lock.o)
 .debug_info    0x0007e526       0xab ../demo_board_NiosIIf_bsp//libhal_bsp.a(alt_errno.o)
 .debug_info    0x0007e5d1       0xe2 ../demo_board_NiosIIf_bsp//libhal_bsp.a(alt_exit.o)
 .debug_info    0x0007e6b3      0x4dd ../demo_board_NiosIIf_bsp//libhal_bsp.a(alt_fstat.o)
 .debug_info    0x0007eb90      0x4dd ../demo_board_NiosIIf_bsp//libhal_bsp.a(alt_isatty.o)
 .debug_info    0x0007f06d      0x1a1 ../demo_board_NiosIIf_bsp//libhal_bsp.a(alt_load.o)
 .debug_info    0x0007f20e      0x384 ../demo_board_NiosIIf_bsp//libhal_bsp.a(alt_lseek.o)
 .debug_info    0x0007f592      0x137 ../demo_board_NiosIIf_bsp//libhal_bsp.a(alt_main.o)
 .debug_info    0x0007f6c9      0x947 ../demo_board_NiosIIf_bsp//libhal_bsp.a(alt_malloc_lock.o)
 .debug_info    0x00080010      0x410 ../demo_board_NiosIIf_bsp//libhal_bsp.a(alt_open.o)
 .debug_info    0x00080420      0x519 ../demo_board_NiosIIf_bsp//libhal_bsp.a(alt_read.o)
 .debug_info    0x00080939      0x2d9 ../demo_board_NiosIIf_bsp//libhal_bsp.a(alt_release_fd.o)
 .debug_info    0x00080c12      0x1a5 ../demo_board_NiosIIf_bsp//libhal_bsp.a(alt_sbrk.o)
 .debug_info    0x00080db7      0x520 ../demo_board_NiosIIf_bsp//libhal_bsp.a(alt_write.o)
 .debug_info    0x000812d7      0xa12 ../demo_board_NiosIIf_bsp//libhal_bsp.a(alt_sys_init.o)
 .debug_info    0x00081ce9      0x816 ../demo_board_NiosIIf_bsp//libhal_bsp.a(altera_avalon_cfi_flash.o)
 .debug_info    0x000824ff      0xbc3 ../demo_board_NiosIIf_bsp//libhal_bsp.a(altera_avalon_cfi_flash_table.o)
 .debug_info    0x000830c2      0x57c ../demo_board_NiosIIf_bsp//libhal_bsp.a(altera_avalon_jtag_uart_fd.o)
 .debug_info    0x0008363e      0x3ad ../demo_board_NiosIIf_bsp//libhal_bsp.a(altera_avalon_jtag_uart_init.o)
 .debug_info    0x000839eb      0x2a1 ../demo_board_NiosIIf_bsp//libhal_bsp.a(altera_avalon_jtag_uart_ioctl.o)
 .debug_info    0x00083c8c      0x373 ../demo_board_NiosIIf_bsp//libhal_bsp.a(altera_avalon_jtag_uart_read.o)
 .debug_info    0x00083fff      0x35e ../demo_board_NiosIIf_bsp//libhal_bsp.a(altera_avalon_jtag_uart_write.o)
 .debug_info    0x0008435d      0x1ba ../demo_board_NiosIIf_bsp//libhal_bsp.a(altera_avalon_performance_counter.o)
 .debug_info    0x00084517      0x221 ../demo_board_NiosIIf_bsp//libhal_bsp.a(altera_avalon_timer_sc.o)
 .debug_info    0x00084738     0x11b2 ../demo_board_NiosIIf_bsp//libhal_bsp.a(altera_ro_zipfs.o)
 .debug_info    0x000858ea      0xbb4 ../demo_board_NiosIIf_bsp//libhal_bsp.a(altera_up_avalon_video_pixel_buffer_dma.o)
 .debug_info    0x0008649e      0x17a ../demo_board_NiosIIf_bsp//libhal_bsp.a(perf_print_formatted_report.o)
 .debug_info    0x00086618      0x2c6 ../demo_board_NiosIIf_bsp//libhal_bsp.a(alt_alarm_start.o)
 .debug_info    0x000868de       0x9f ../demo_board_NiosIIf_bsp//libhal_bsp.a(alt_dcache_flush_all.o)
 .debug_info    0x0008697d      0x1b7 ../demo_board_NiosIIf_bsp//libhal_bsp.a(alt_dev_llist_insert.o)
 .debug_info    0x00086b34       0x8d ../demo_board_NiosIIf_bsp//libhal_bsp.a(alt_do_ctors.o)
 .debug_info    0x00086bc1       0x8d ../demo_board_NiosIIf_bsp//libhal_bsp.a(alt_do_dtors.o)
 .debug_info    0x00086c4e      0x30c ../demo_board_NiosIIf_bsp//libhal_bsp.a(alt_find_dev.o)
 .debug_info    0x00086f5a      0x30e ../demo_board_NiosIIf_bsp//libhal_bsp.a(alt_find_file.o)
 .debug_info    0x00087268      0x3cd ../demo_board_NiosIIf_bsp//libhal_bsp.a(alt_flash_dev.o)
 .debug_info    0x00087635      0x31b ../demo_board_NiosIIf_bsp//libhal_bsp.a(alt_fs_reg.o)
 .debug_info    0x00087950      0x331 ../demo_board_NiosIIf_bsp//libhal_bsp.a(alt_get_fd.o)
 .debug_info    0x00087c81       0x8d ../demo_board_NiosIIf_bsp//libhal_bsp.a(alt_icache_flush_all.o)
 .debug_info    0x00087d0e      0x341 ../demo_board_NiosIIf_bsp//libhal_bsp.a(alt_iic.o)
 .debug_info    0x0008804f      0x1ee ../demo_board_NiosIIf_bsp//libhal_bsp.a(alt_iic_isr_register.o)
 .debug_info    0x0008823d      0x57c ../demo_board_NiosIIf_bsp//libhal_bsp.a(alt_io_redirect.o)
 .debug_info    0x000887b9       0x79 ../demo_board_NiosIIf_bsp//libhal_bsp.a(alt_irq_entry.o)
 .debug_info    0x00088832      0x168 ../demo_board_NiosIIf_bsp//libhal_bsp.a(alt_irq_handler.o)
 .debug_info    0x0008899a       0x92 ../demo_board_NiosIIf_bsp//libhal_bsp.a(alt_irq_vars.o)
 .debug_info    0x00088a2c      0x34e ../demo_board_NiosIIf_bsp//libhal_bsp.a(alt_tick.o)
 .debug_info    0x00088d7a       0x8d ../demo_board_NiosIIf_bsp//libhal_bsp.a(altera_nios2_qsys_irq.o)
 .debug_info    0x00088e07      0x679 ../demo_board_NiosIIf_bsp//libhal_bsp.a(altera_avalon_cfi_flash_amd.o)
 .debug_info    0x00089480      0x666 ../demo_board_NiosIIf_bsp//libhal_bsp.a(altera_avalon_cfi_flash_intel.o)
 .debug_info    0x00089ae6       0x7f ../demo_board_NiosIIf_bsp//libhal_bsp.a(alt_exception_entry.o)
 .debug_info    0x00089b65       0xd5 ../demo_board_NiosIIf_bsp//libhal_bsp.a(alt_icache_flush.o)
 .debug_info    0x00089c3a       0xab ../demo_board_NiosIIf_bsp//libhal_bsp.a(alt_usleep.o)
 .debug_info    0x00089ce5       0xd0 ../demo_board_NiosIIf_bsp//libhal_bsp.a(alt_busy_sleep.o)
 .debug_info    0x00089db5      0x181 /package/eda/altera/altera13.0sp1/nios2eds/bin/gnu/H-i686-pc-linux-gnu/bin/../lib/gcc/nios2-elf/4.1.2/../../../../nios2-elf/lib/libc.a(lib_a-atexit.o)
 .debug_info    0x00089f36      0x115 /package/eda/altera/altera13.0sp1/nios2eds/bin/gnu/H-i686-pc-linux-gnu/bin/../lib/gcc/nios2-elf/4.1.2/../../../../nios2-elf/lib/libc.a(lib_a-memcmp.o)
 .debug_info    0x0008a04b      0x99c /package/eda/altera/altera13.0sp1/nios2eds/bin/gnu/H-i686-pc-linux-gnu/bin/../lib/gcc/nios2-elf/4.1.2/../../../../nios2-elf/lib/libc.a(lib_a-__atexit.o)
 .debug_info    0x0008a9e7       0xdc /package/eda/altera/altera13.0sp1/nios2eds/bin/gnu/H-i686-pc-linux-gnu/bin/../lib/gcc/nios2-elf/4.1.2/libgcc.a(_floatundidf.o)

.debug_abbrev   0x00000000    0x15603
 *(.debug_abbrev)
 .debug_abbrev  0x00000000       0x12 ../demo_board_NiosIIf_bsp//obj/HAL/src/crt0.o
 .debug_abbrev  0x00000012      0x1d1 obj/default/cdjpeg.o
 .debug_abbrev  0x000001e3      0x312 obj/default/djpeg.o
 .debug_abbrev  0x000004f5      0x1d9 obj/default/jcapimin.o
 .debug_abbrev  0x000006ce      0x19d obj/default/jcapistd.o
 .debug_abbrev  0x0000086b      0x2f4 obj/default/jccoefct.o
 .debug_abbrev  0x00000b5f      0x248 obj/default/jccolor.o
 .debug_abbrev  0x00000da7      0x27e obj/default/jcdctmgr.o
 .debug_abbrev  0x00001025      0x36a obj/default/jchuff.o
 .debug_abbrev  0x0000138f      0x168 obj/default/jcinit.o
 .debug_abbrev  0x000014f7      0x1bd obj/default/jcmainct.o
 .debug_abbrev  0x000016b4      0x30a obj/default/jcmarker.o
 .debug_abbrev  0x000019be      0x273 obj/default/jcmaster.o
 .debug_abbrev  0x00001c31      0x171 obj/default/jcomapi.o
 .debug_abbrev  0x00001da2      0x316 obj/default/jcparam.o
 .debug_abbrev  0x000020b8      0x2f8 obj/default/jcphuff.o
 .debug_abbrev  0x000023b0      0x2c6 obj/default/jcprepct.o
 .debug_abbrev  0x00002676      0x2e4 obj/default/jcsample.o
 .debug_abbrev  0x0000295a      0x2a7 obj/default/jctrans.o
 .debug_abbrev  0x00002c01      0x262 obj/default/jdapimin.o
 .debug_abbrev  0x00002e63      0x1b9 obj/default/jdapistd.o
 .debug_abbrev  0x0000301c      0x200 obj/default/jdatadst.o
 .debug_abbrev  0x0000321c      0x259 obj/default/jdatasrc.o
 .debug_abbrev  0x00003475      0x321 obj/default/jdcoefct.o
 .debug_abbrev  0x00003796      0x248 obj/default/jdcolor.o
 .debug_abbrev  0x000039de      0x1e0 obj/default/jddctmgr.o
 .debug_abbrev  0x00003bbe      0x37f obj/default/jdhuff.o
 .debug_abbrev  0x00003f3d      0x279 obj/default/jdinput.o
 .debug_abbrev  0x000041b6      0x25f obj/default/jdmainct.o
 .debug_abbrev  0x00004415      0x326 obj/default/jdmarker.o
 .debug_abbrev  0x0000473b      0x2b8 obj/default/jdmaster.o
 .debug_abbrev  0x000049f3      0x27e obj/default/jdmerge.o
 .debug_abbrev  0x00004c71      0x2d1 obj/default/jdphuff.o
 .debug_abbrev  0x00004f42      0x1b7 obj/default/jdpostct.o
 .debug_abbrev  0x000050f9      0x24e obj/default/jdsample.o
 .debug_abbrev  0x00005347      0x1d8 obj/default/jdtrans.o
 .debug_abbrev  0x0000551f      0x219 obj/default/jerror.o
 .debug_abbrev  0x00005738       0x8f obj/default/jfdctflt.o
 .debug_abbrev  0x000057c7       0x8f obj/default/jfdctfst.o
 .debug_abbrev  0x00005856       0x82 obj/default/jfdctint.o
 .debug_abbrev  0x000058d8      0x1d0 obj/default/jidctflt.o
 .debug_abbrev  0x00005aa8      0x1b6 obj/default/jidctfst.o
 .debug_abbrev  0x00005c5e      0x1c3 obj/default/jidctint.o
 .debug_abbrev  0x00005e21      0x245 obj/default/jidctred.o
 .debug_abbrev  0x00006066      0x311 obj/default/jmemmgr.o
 .debug_abbrev  0x00006377      0x1b2 obj/default/jmemnobs.o
 .debug_abbrev  0x00006529      0x307 obj/default/jquant1.o
 .debug_abbrev  0x00006830      0x350 obj/default/jquant2.o
 .debug_abbrev  0x00006b80      0x101 obj/default/jutils.o
 .debug_abbrev  0x00006c81      0x276 obj/default/rdcolmap.o
 .debug_abbrev  0x00006ef7      0x2e6 obj/default/wrbmp.o
 .debug_abbrev  0x000071dd      0x30d obj/default/wrgif.o
 .debug_abbrev  0x000074ea      0x265 obj/default/wrppm.o
 .debug_abbrev  0x0000774f       0x2a obj/default/wrrle.o
 .debug_abbrev  0x00007779      0x273 obj/default/wrtarga.o
 .debug_abbrev  0x000079ec      0x1e1 /package/eda/altera/altera13.0sp1/nios2eds/bin/gnu/H-i686-pc-linux-gnu/bin/../lib/gcc/nios2-elf/4.1.2/libgcc.a(_addsub_sf.o)
 .debug_abbrev  0x00007bcd      0x206 /package/eda/altera/altera13.0sp1/nios2eds/bin/gnu/H-i686-pc-linux-gnu/bin/../lib/gcc/nios2-elf/4.1.2/libgcc.a(_mul_sf.o)
 .debug_abbrev  0x00007dd3      0x13d /package/eda/altera/altera13.0sp1/nios2eds/bin/gnu/H-i686-pc-linux-gnu/bin/../lib/gcc/nios2-elf/4.1.2/libgcc.a(_si_to_sf.o)
 .debug_abbrev  0x00007f10      0x176 /package/eda/altera/altera13.0sp1/nios2eds/bin/gnu/H-i686-pc-linux-gnu/bin/../lib/gcc/nios2-elf/4.1.2/libgcc.a(_sf_to_si.o)
 .debug_abbrev  0x00008086       0xba /package/eda/altera/altera13.0sp1/nios2eds/bin/gnu/H-i686-pc-linux-gnu/bin/../lib/gcc/nios2-elf/4.1.2/libgcc.a(_thenan_sf.o)
 .debug_abbrev  0x00008140      0x204 /package/eda/altera/altera13.0sp1/nios2eds/bin/gnu/H-i686-pc-linux-gnu/bin/../lib/gcc/nios2-elf/4.1.2/libgcc.a(_mul_df.o)
 .debug_abbrev  0x00008344      0x1e3 /package/eda/altera/altera13.0sp1/nios2eds/bin/gnu/H-i686-pc-linux-gnu/bin/../lib/gcc/nios2-elf/4.1.2/libgcc.a(_div_df.o)
 .debug_abbrev  0x00008527      0x137 /package/eda/altera/altera13.0sp1/nios2eds/bin/gnu/H-i686-pc-linux-gnu/bin/../lib/gcc/nios2-elf/4.1.2/libgcc.a(_df_to_sf.o)
 .debug_abbrev  0x0000865e       0xba /package/eda/altera/altera13.0sp1/nios2eds/bin/gnu/H-i686-pc-linux-gnu/bin/../lib/gcc/nios2-elf/4.1.2/libgcc.a(_thenan_df.o)
 .debug_abbrev  0x00008718      0x155 /package/eda/altera/altera13.0sp1/nios2eds/bin/gnu/H-i686-pc-linux-gnu/bin/../lib/gcc/nios2-elf/4.1.2/libgcc.a(_usi_to_df.o)
 .debug_abbrev  0x0000886d       0xe0 /package/eda/altera/altera13.0sp1/nios2eds/bin/gnu/H-i686-pc-linux-gnu/bin/../lib/gcc/nios2-elf/4.1.2/libgcc.a(lib2-divmod.o)
 .debug_abbrev  0x0000894d       0x5a /package/eda/altera/altera13.0sp1/nios2eds/bin/gnu/H-i686-pc-linux-gnu/bin/../lib/gcc/nios2-elf/4.1.2/libgcc.a(lib2-divtable.o)
 .debug_abbrev  0x000089a7       0xee /package/eda/altera/altera13.0sp1/nios2eds/bin/gnu/H-i686-pc-linux-gnu/bin/../lib/gcc/nios2-elf/4.1.2/libgcc.a(_muldi3.o)
 .debug_abbrev  0x00008a95       0xb9 /package/eda/altera/altera13.0sp1/nios2eds/bin/gnu/H-i686-pc-linux-gnu/bin/../lib/gcc/nios2-elf/4.1.2/libgcc.a(_clzsi2.o)
 .debug_abbrev  0x00008b4e      0x1aa /package/eda/altera/altera13.0sp1/nios2eds/bin/gnu/H-i686-pc-linux-gnu/bin/../lib/gcc/nios2-elf/4.1.2/libgcc.a(_pack_sf.o)
 .debug_abbrev  0x00008cf8      0x158 /package/eda/altera/altera13.0sp1/nios2eds/bin/gnu/H-i686-pc-linux-gnu/bin/../lib/gcc/nios2-elf/4.1.2/libgcc.a(_unpack_sf.o)
 .debug_abbrev  0x00008e50      0x100 /package/eda/altera/altera13.0sp1/nios2eds/bin/gnu/H-i686-pc-linux-gnu/bin/../lib/gcc/nios2-elf/4.1.2/libgcc.a(_make_sf.o)
 .debug_abbrev  0x00008f50      0x1b1 /package/eda/altera/altera13.0sp1/nios2eds/bin/gnu/H-i686-pc-linux-gnu/bin/../lib/gcc/nios2-elf/4.1.2/libgcc.a(_pack_df.o)
 .debug_abbrev  0x00009101      0x149 /package/eda/altera/altera13.0sp1/nios2eds/bin/gnu/H-i686-pc-linux-gnu/bin/../lib/gcc/nios2-elf/4.1.2/libgcc.a(_unpack_df.o)
 .debug_abbrev  0x0000924a       0x61 /package/eda/altera/altera13.0sp1/nios2eds/bin/gnu/H-i686-pc-linux-gnu/bin/../lib/gcc/nios2-elf/4.1.2/libgcc.a(_clz.o)
 .debug_abbrev  0x000092ab       0x61 /package/eda/altera/altera13.0sp1/nios2eds/bin/gnu/H-i686-pc-linux-gnu/bin/../lib/gcc/nios2-elf/4.1.2/../../../../nios2-elf/lib/libc.a(lib_a-ctype_.o)
 .debug_abbrev  0x0000930c      0x16e /package/eda/altera/altera13.0sp1/nios2eds/bin/gnu/H-i686-pc-linux-gnu/bin/../lib/gcc/nios2-elf/4.1.2/../../../../nios2-elf/lib/libc.a(lib_a-exit.o)
 .debug_abbrev  0x0000947a      0x1a7 /package/eda/altera/altera13.0sp1/nios2eds/bin/gnu/H-i686-pc-linux-gnu/bin/../lib/gcc/nios2-elf/4.1.2/../../../../nios2-elf/lib/libc.a(lib_a-fclose.o)
 .debug_abbrev  0x00009621      0x1c6 /package/eda/altera/altera13.0sp1/nios2eds/bin/gnu/H-i686-pc-linux-gnu/bin/../lib/gcc/nios2-elf/4.1.2/../../../../nios2-elf/lib/libc.a(lib_a-fflush.o)
 .debug_abbrev  0x000097e7      0x24c /package/eda/altera/altera13.0sp1/nios2eds/bin/gnu/H-i686-pc-linux-gnu/bin/../lib/gcc/nios2-elf/4.1.2/../../../../nios2-elf/lib/libc.a(lib_a-findfp.o)
 .debug_abbrev  0x00009a33      0x1b6 /package/eda/altera/altera13.0sp1/nios2eds/bin/gnu/H-i686-pc-linux-gnu/bin/../lib/gcc/nios2-elf/4.1.2/../../../../nios2-elf/lib/libc.a(lib_a-fopen.o)
 .debug_abbrev  0x00009be9      0x197 /package/eda/altera/altera13.0sp1/nios2eds/bin/gnu/H-i686-pc-linux-gnu/bin/../lib/gcc/nios2-elf/4.1.2/../../../../nios2-elf/lib/libc.a(lib_a-fprintf.o)
 .debug_abbrev  0x00009d80      0x18c /package/eda/altera/altera13.0sp1/nios2eds/bin/gnu/H-i686-pc-linux-gnu/bin/../lib/gcc/nios2-elf/4.1.2/../../../../nios2-elf/lib/libc.a(lib_a-fputc.o)
 .debug_abbrev  0x00009f0c      0x20d /package/eda/altera/altera13.0sp1/nios2eds/bin/gnu/H-i686-pc-linux-gnu/bin/../lib/gcc/nios2-elf/4.1.2/../../../../nios2-elf/lib/libc.a(lib_a-fread.o)
 .debug_abbrev  0x0000a119      0x1d9 /package/eda/altera/altera13.0sp1/nios2eds/bin/gnu/H-i686-pc-linux-gnu/bin/../lib/gcc/nios2-elf/4.1.2/../../../../nios2-elf/lib/libc.a(lib_a-freer.o)
 .debug_abbrev  0x0000a2f2      0x208 /package/eda/altera/altera13.0sp1/nios2eds/bin/gnu/H-i686-pc-linux-gnu/bin/../lib/gcc/nios2-elf/4.1.2/../../../../nios2-elf/lib/libc.a(lib_a-fseek.o)
 .debug_abbrev  0x0000a4fa      0x18e /package/eda/altera/altera13.0sp1/nios2eds/bin/gnu/H-i686-pc-linux-gnu/bin/../lib/gcc/nios2-elf/4.1.2/../../../../nios2-elf/lib/libc.a(lib_a-fstatr.o)
 .debug_abbrev  0x0000a688      0x1e3 /package/eda/altera/altera13.0sp1/nios2eds/bin/gnu/H-i686-pc-linux-gnu/bin/../lib/gcc/nios2-elf/4.1.2/../../../../nios2-elf/lib/libc.a(lib_a-fwalk.o)
 .debug_abbrev  0x0000a86b      0x1b1 /package/eda/altera/altera13.0sp1/nios2eds/bin/gnu/H-i686-pc-linux-gnu/bin/../lib/gcc/nios2-elf/4.1.2/../../../../nios2-elf/lib/libc.a(lib_a-fwrite.o)
 .debug_abbrev  0x0000aa1c      0x17f /package/eda/altera/altera13.0sp1/nios2eds/bin/gnu/H-i686-pc-linux-gnu/bin/../lib/gcc/nios2-elf/4.1.2/../../../../nios2-elf/lib/libc.a(lib_a-getc.o)
 .debug_abbrev  0x0000ab9b      0x198 /package/eda/altera/altera13.0sp1/nios2eds/bin/gnu/H-i686-pc-linux-gnu/bin/../lib/gcc/nios2-elf/4.1.2/../../../../nios2-elf/lib/libc.a(lib_a-getenv.o)
 .debug_abbrev  0x0000ad33      0x19b /package/eda/altera/altera13.0sp1/nios2eds/bin/gnu/H-i686-pc-linux-gnu/bin/../lib/gcc/nios2-elf/4.1.2/../../../../nios2-elf/lib/libc.a(lib_a-getenv_r.o)
 .debug_abbrev  0x0000aece      0x157 /package/eda/altera/altera13.0sp1/nios2eds/bin/gnu/H-i686-pc-linux-gnu/bin/../lib/gcc/nios2-elf/4.1.2/../../../../nios2-elf/lib/libc.a(lib_a-impure.o)
 .debug_abbrev  0x0000b025       0x3b /package/eda/altera/altera13.0sp1/nios2eds/bin/gnu/H-i686-pc-linux-gnu/bin/../lib/gcc/nios2-elf/4.1.2/../../../../nios2-elf/lib/libc.a(lib_a-int_errno.o)
 .debug_abbrev  0x0000b060      0x197 /package/eda/altera/altera13.0sp1/nios2eds/bin/gnu/H-i686-pc-linux-gnu/bin/../lib/gcc/nios2-elf/4.1.2/../../../../nios2-elf/lib/libc.a(lib_a-makebuf.o)
 .debug_abbrev  0x0000b1f7      0x187 /package/eda/altera/altera13.0sp1/nios2eds/bin/gnu/H-i686-pc-linux-gnu/bin/../lib/gcc/nios2-elf/4.1.2/../../../../nios2-elf/lib/libc.a(lib_a-malloc.o)
 .debug_abbrev  0x0000b37e      0x216 /package/eda/altera/altera13.0sp1/nios2eds/bin/gnu/H-i686-pc-linux-gnu/bin/../lib/gcc/nios2-elf/4.1.2/../../../../nios2-elf/lib/libc.a(lib_a-mallocr.o)
 .debug_abbrev  0x0000b594       0xb5 /package/eda/altera/altera13.0sp1/nios2eds/bin/gnu/H-i686-pc-linux-gnu/bin/../lib/gcc/nios2-elf/4.1.2/../../../../nios2-elf/lib/libc.a(lib_a-memcpy.o)
 .debug_abbrev  0x0000b649       0xb8 /package/eda/altera/altera13.0sp1/nios2eds/bin/gnu/H-i686-pc-linux-gnu/bin/../lib/gcc/nios2-elf/4.1.2/../../../../nios2-elf/lib/libc.a(lib_a-memset.o)
 .debug_abbrev  0x0000b701      0x18e /package/eda/altera/altera13.0sp1/nios2eds/bin/gnu/H-i686-pc-linux-gnu/bin/../lib/gcc/nios2-elf/4.1.2/../../../../nios2-elf/lib/libc.a(lib_a-openr.o)
 .debug_abbrev  0x0000b88f      0x191 /package/eda/altera/altera13.0sp1/nios2eds/bin/gnu/H-i686-pc-linux-gnu/bin/../lib/gcc/nios2-elf/4.1.2/../../../../nios2-elf/lib/libc.a(lib_a-printf.o)
 .debug_abbrev  0x0000ba20      0x17f /package/eda/altera/altera13.0sp1/nios2eds/bin/gnu/H-i686-pc-linux-gnu/bin/../lib/gcc/nios2-elf/4.1.2/../../../../nios2-elf/lib/libc.a(lib_a-putc.o)
 .debug_abbrev  0x0000bb9f      0x1ac /package/eda/altera/altera13.0sp1/nios2eds/bin/gnu/H-i686-pc-linux-gnu/bin/../lib/gcc/nios2-elf/4.1.2/../../../../nios2-elf/lib/libc.a(lib_a-puts.o)
 .debug_abbrev  0x0000bd4b      0x187 /package/eda/altera/altera13.0sp1/nios2eds/bin/gnu/H-i686-pc-linux-gnu/bin/../lib/gcc/nios2-elf/4.1.2/../../../../nios2-elf/lib/libc.a(lib_a-refill.o)
 .debug_abbrev  0x0000bed2      0x189 /package/eda/altera/altera13.0sp1/nios2eds/bin/gnu/H-i686-pc-linux-gnu/bin/../lib/gcc/nios2-elf/4.1.2/../../../../nios2-elf/lib/libc.a(lib_a-rget.o)
 .debug_abbrev  0x0000c05b      0x18c /package/eda/altera/altera13.0sp1/nios2eds/bin/gnu/H-i686-pc-linux-gnu/bin/../lib/gcc/nios2-elf/4.1.2/../../../../nios2-elf/lib/libc.a(lib_a-sbrkr.o)
 .debug_abbrev  0x0000c1e7      0x191 /package/eda/altera/altera13.0sp1/nios2eds/bin/gnu/H-i686-pc-linux-gnu/bin/../lib/gcc/nios2-elf/4.1.2/../../../../nios2-elf/lib/libc.a(lib_a-sprintf.o)
 .debug_abbrev  0x0000c378      0x1c6 /package/eda/altera/altera13.0sp1/nios2eds/bin/gnu/H-i686-pc-linux-gnu/bin/../lib/gcc/nios2-elf/4.1.2/../../../../nios2-elf/lib/libc.a(lib_a-sscanf.o)
 .debug_abbrev  0x0000c53e      0x1c9 /package/eda/altera/altera13.0sp1/nios2eds/bin/gnu/H-i686-pc-linux-gnu/bin/../lib/gcc/nios2-elf/4.1.2/../../../../nios2-elf/lib/libc.a(lib_a-stdio.o)
 .debug_abbrev  0x0000c707      0x170 /package/eda/altera/altera13.0sp1/nios2eds/bin/gnu/H-i686-pc-linux-gnu/bin/../lib/gcc/nios2-elf/4.1.2/../../../../nios2-elf/lib/libc.a(lib_a-strdup.o)
 .debug_abbrev  0x0000c877      0x18a /package/eda/altera/altera13.0sp1/nios2eds/bin/gnu/H-i686-pc-linux-gnu/bin/../lib/gcc/nios2-elf/4.1.2/../../../../nios2-elf/lib/libc.a(lib_a-strdup_r.o)
 .debug_abbrev  0x0000ca01       0x8b /package/eda/altera/altera13.0sp1/nios2eds/bin/gnu/H-i686-pc-linux-gnu/bin/../lib/gcc/nios2-elf/4.1.2/../../../../nios2-elf/lib/libc.a(lib_a-strlen.o)
 .debug_abbrev  0x0000ca8c       0x8d /package/eda/altera/altera13.0sp1/nios2eds/bin/gnu/H-i686-pc-linux-gnu/bin/../lib/gcc/nios2-elf/4.1.2/../../../../nios2-elf/lib/libc.a(lib_a-strncmp.o)
 .debug_abbrev  0x0000cb19      0x30a /package/eda/altera/altera13.0sp1/nios2eds/bin/gnu/H-i686-pc-linux-gnu/bin/../lib/gcc/nios2-elf/4.1.2/../../../../nios2-elf/lib/libc.a(lib_a-vfprintf.o)
 .debug_abbrev  0x0000ce23      0x286 /package/eda/altera/altera13.0sp1/nios2eds/bin/gnu/H-i686-pc-linux-gnu/bin/../lib/gcc/nios2-elf/4.1.2/../../../../nios2-elf/lib/libc.a(lib_a-vfscanf.o)
 .debug_abbrev  0x0000d0a9      0x198 /package/eda/altera/altera13.0sp1/nios2eds/bin/gnu/H-i686-pc-linux-gnu/bin/../lib/gcc/nios2-elf/4.1.2/../../../../nios2-elf/lib/libc.a(lib_a-wbuf.o)
 .debug_abbrev  0x0000d241      0x184 /package/eda/altera/altera13.0sp1/nios2eds/bin/gnu/H-i686-pc-linux-gnu/bin/../lib/gcc/nios2-elf/4.1.2/../../../../nios2-elf/lib/libc.a(lib_a-writer.o)
 .debug_abbrev  0x0000d3c5      0x170 /package/eda/altera/altera13.0sp1/nios2eds/bin/gnu/H-i686-pc-linux-gnu/bin/../lib/gcc/nios2-elf/4.1.2/../../../../nios2-elf/lib/libc.a(lib_a-wsetup.o)
 .debug_abbrev  0x0000d535      0x1de /package/eda/altera/altera13.0sp1/nios2eds/bin/gnu/H-i686-pc-linux-gnu/bin/../lib/gcc/nios2-elf/4.1.2/../../../../nios2-elf/lib/libc.a(lib_a-__call_atexit.o)
 .debug_abbrev  0x0000d713      0x17f /package/eda/altera/altera13.0sp1/nios2eds/bin/gnu/H-i686-pc-linux-gnu/bin/../lib/gcc/nios2-elf/4.1.2/../../../../nios2-elf/lib/libc.a(lib_a-closer.o)
 .debug_abbrev  0x0000d892      0x232 /package/eda/altera/altera13.0sp1/nios2eds/bin/gnu/H-i686-pc-linux-gnu/bin/../lib/gcc/nios2-elf/4.1.2/../../../../nios2-elf/lib/libc.a(lib_a-dtoa.o)
 .debug_abbrev  0x0000dac4       0x5a /package/eda/altera/altera13.0sp1/nios2eds/bin/gnu/H-i686-pc-linux-gnu/bin/../lib/gcc/nios2-elf/4.1.2/../../../../nios2-elf/lib/libc.a(lib_a-environ.o)
 .debug_abbrev  0x0000db1e      0x17d /package/eda/altera/altera13.0sp1/nios2eds/bin/gnu/H-i686-pc-linux-gnu/bin/../lib/gcc/nios2-elf/4.1.2/../../../../nios2-elf/lib/libc.a(lib_a-flags.o)
 .debug_abbrev  0x0000dc9b      0x1a3 /package/eda/altera/altera13.0sp1/nios2eds/bin/gnu/H-i686-pc-linux-gnu/bin/../lib/gcc/nios2-elf/4.1.2/../../../../nios2-elf/lib/libc.a(lib_a-fvwrite.o)
 .debug_abbrev  0x0000de3e      0x17f /package/eda/altera/altera13.0sp1/nios2eds/bin/gnu/H-i686-pc-linux-gnu/bin/../lib/gcc/nios2-elf/4.1.2/../../../../nios2-elf/lib/libc.a(lib_a-isattyr.o)
 .debug_abbrev  0x0000dfbd       0x9f /package/eda/altera/altera13.0sp1/nios2eds/bin/gnu/H-i686-pc-linux-gnu/bin/../lib/gcc/nios2-elf/4.1.2/../../../../nios2-elf/lib/libc.a(lib_a-iswspace.o)
 .debug_abbrev  0x0000e05c      0x1ed /package/eda/altera/altera13.0sp1/nios2eds/bin/gnu/H-i686-pc-linux-gnu/bin/../lib/gcc/nios2-elf/4.1.2/../../../../nios2-elf/lib/libc.a(lib_a-locale.o)
 .debug_abbrev  0x0000e249      0x18e /package/eda/altera/altera13.0sp1/nios2eds/bin/gnu/H-i686-pc-linux-gnu/bin/../lib/gcc/nios2-elf/4.1.2/../../../../nios2-elf/lib/libc.a(lib_a-lseekr.o)
 .debug_abbrev  0x0000e3d7      0x17f /package/eda/altera/altera13.0sp1/nios2eds/bin/gnu/H-i686-pc-linux-gnu/bin/../lib/gcc/nios2-elf/4.1.2/../../../../nios2-elf/lib/libc.a(lib_a-mbrtowc.o)
 .debug_abbrev  0x0000e556      0x18a /package/eda/altera/altera13.0sp1/nios2eds/bin/gnu/H-i686-pc-linux-gnu/bin/../lib/gcc/nios2-elf/4.1.2/../../../../nios2-elf/lib/libc.a(lib_a-mbtowc_r.o)
 .debug_abbrev  0x0000e6e0       0xb5 /package/eda/altera/altera13.0sp1/nios2eds/bin/gnu/H-i686-pc-linux-gnu/bin/../lib/gcc/nios2-elf/4.1.2/../../../../nios2-elf/lib/libc.a(lib_a-memchr.o)
 .debug_abbrev  0x0000e795       0xb5 /package/eda/altera/altera13.0sp1/nios2eds/bin/gnu/H-i686-pc-linux-gnu/bin/../lib/gcc/nios2-elf/4.1.2/../../../../nios2-elf/lib/libc.a(lib_a-memmove.o)
 .debug_abbrev  0x0000e84a      0x297 /package/eda/altera/altera13.0sp1/nios2eds/bin/gnu/H-i686-pc-linux-gnu/bin/../lib/gcc/nios2-elf/4.1.2/../../../../nios2-elf/lib/libc.a(lib_a-mprec.o)
 .debug_abbrev  0x0000eae1      0x17f /package/eda/altera/altera13.0sp1/nios2eds/bin/gnu/H-i686-pc-linux-gnu/bin/../lib/gcc/nios2-elf/4.1.2/../../../../nios2-elf/lib/libc.a(lib_a-readr.o)
 .debug_abbrev  0x0000ec60      0x1c3 /package/eda/altera/altera13.0sp1/nios2eds/bin/gnu/H-i686-pc-linux-gnu/bin/../lib/gcc/nios2-elf/4.1.2/../../../../nios2-elf/lib/libc.a(lib_a-reallocr.o)
 .debug_abbrev  0x0000ee23       0x79 /package/eda/altera/altera13.0sp1/nios2eds/bin/gnu/H-i686-pc-linux-gnu/bin/../lib/gcc/nios2-elf/4.1.2/../../../../nios2-elf/lib/libc.a(lib_a-s_isinfd.o)
 .debug_abbrev  0x0000ee9c       0x79 /package/eda/altera/altera13.0sp1/nios2eds/bin/gnu/H-i686-pc-linux-gnu/bin/../lib/gcc/nios2-elf/4.1.2/../../../../nios2-elf/lib/libc.a(lib_a-s_isnand.o)
 .debug_abbrev  0x0000ef15       0x93 /package/eda/altera/altera13.0sp1/nios2eds/bin/gnu/H-i686-pc-linux-gnu/bin/../lib/gcc/nios2-elf/4.1.2/../../../../nios2-elf/lib/libc.a(lib_a-sccl.o)
 .debug_abbrev  0x0000efa8       0x6d /package/eda/altera/altera13.0sp1/nios2eds/bin/gnu/H-i686-pc-linux-gnu/bin/../lib/gcc/nios2-elf/4.1.2/../../../../nios2-elf/lib/libc.a(lib_a-sf_nan.o)
 .debug_abbrev  0x0000f015       0x80 /package/eda/altera/altera13.0sp1/nios2eds/bin/gnu/H-i686-pc-linux-gnu/bin/../lib/gcc/nios2-elf/4.1.2/../../../../nios2-elf/lib/libc.a(lib_a-strcmp.o)
 .debug_abbrev  0x0000f095      0x2e8 /package/eda/altera/altera13.0sp1/nios2eds/bin/gnu/H-i686-pc-linux-gnu/bin/../lib/gcc/nios2-elf/4.1.2/../../../../nios2-elf/lib/libc.a(lib_a-strtod.o)
 .debug_abbrev  0x0000f37d      0x1c7 /package/eda/altera/altera13.0sp1/nios2eds/bin/gnu/H-i686-pc-linux-gnu/bin/../lib/gcc/nios2-elf/4.1.2/../../../../nios2-elf/lib/libc.a(lib_a-strtol.o)
 .debug_abbrev  0x0000f544      0x18e /package/eda/altera/altera13.0sp1/nios2eds/bin/gnu/H-i686-pc-linux-gnu/bin/../lib/gcc/nios2-elf/4.1.2/../../../../nios2-elf/lib/libc.a(lib_a-strtoll_r.o)
 .debug_abbrev  0x0000f6d2      0x1c5 /package/eda/altera/altera13.0sp1/nios2eds/bin/gnu/H-i686-pc-linux-gnu/bin/../lib/gcc/nios2-elf/4.1.2/../../../../nios2-elf/lib/libc.a(lib_a-strtoul.o)
 .debug_abbrev  0x0000f897      0x18c /package/eda/altera/altera13.0sp1/nios2eds/bin/gnu/H-i686-pc-linux-gnu/bin/../lib/gcc/nios2-elf/4.1.2/../../../../nios2-elf/lib/libc.a(lib_a-strtoull_r.o)
 .debug_abbrev  0x0000fa23      0x1a7 /package/eda/altera/altera13.0sp1/nios2eds/bin/gnu/H-i686-pc-linux-gnu/bin/../lib/gcc/nios2-elf/4.1.2/../../../../nios2-elf/lib/libc.a(lib_a-ungetc.o)
 .debug_abbrev  0x0000fbca      0x1b8 /package/eda/altera/altera13.0sp1/nios2eds/bin/gnu/H-i686-pc-linux-gnu/bin/../lib/gcc/nios2-elf/4.1.2/../../../../nios2-elf/lib/libc.a(lib_a-callocr.o)
 .debug_abbrev  0x0000fd82      0x273 /package/eda/altera/altera13.0sp1/nios2eds/bin/gnu/H-i686-pc-linux-gnu/bin/../lib/gcc/nios2-elf/4.1.2/../../../../nios2-elf/lib/libc.a(lib_a-gdtoa-gethex.o)
 .debug_abbrev  0x0000fff5      0x117 /package/eda/altera/altera13.0sp1/nios2eds/bin/gnu/H-i686-pc-linux-gnu/bin/../lib/gcc/nios2-elf/4.1.2/../../../../nios2-elf/lib/libc.a(lib_a-gdtoa-hexnan.o)
 .debug_abbrev  0x0001010c       0x5d /package/eda/altera/altera13.0sp1/nios2eds/bin/gnu/H-i686-pc-linux-gnu/bin/../lib/gcc/nios2-elf/4.1.2/libgcc.a(_fixunsdfsi.o)
 .debug_abbrev  0x00010169      0x16b /package/eda/altera/altera13.0sp1/nios2eds/bin/gnu/H-i686-pc-linux-gnu/bin/../lib/gcc/nios2-elf/4.1.2/libgcc.a(_udivdi3.o)
 .debug_abbrev  0x000102d4      0x18e /package/eda/altera/altera13.0sp1/nios2eds/bin/gnu/H-i686-pc-linux-gnu/bin/../lib/gcc/nios2-elf/4.1.2/libgcc.a(_umoddi3.o)
 .debug_abbrev  0x00010462      0x151 /package/eda/altera/altera13.0sp1/nios2eds/bin/gnu/H-i686-pc-linux-gnu/bin/../lib/gcc/nios2-elf/4.1.2/libgcc.a(_ne_sf.o)
 .debug_abbrev  0x000105b3      0x151 /package/eda/altera/altera13.0sp1/nios2eds/bin/gnu/H-i686-pc-linux-gnu/bin/../lib/gcc/nios2-elf/4.1.2/libgcc.a(_gt_sf.o)
 .debug_abbrev  0x00010704      0x151 /package/eda/altera/altera13.0sp1/nios2eds/bin/gnu/H-i686-pc-linux-gnu/bin/../lib/gcc/nios2-elf/4.1.2/libgcc.a(_lt_sf.o)
 .debug_abbrev  0x00010855      0x1d2 /package/eda/altera/altera13.0sp1/nios2eds/bin/gnu/H-i686-pc-linux-gnu/bin/../lib/gcc/nios2-elf/4.1.2/libgcc.a(_addsub_df.o)
 .debug_abbrev  0x00010a27      0x151 /package/eda/altera/altera13.0sp1/nios2eds/bin/gnu/H-i686-pc-linux-gnu/bin/../lib/gcc/nios2-elf/4.1.2/libgcc.a(_eq_df.o)
 .debug_abbrev  0x00010b78      0x151 /package/eda/altera/altera13.0sp1/nios2eds/bin/gnu/H-i686-pc-linux-gnu/bin/../lib/gcc/nios2-elf/4.1.2/libgcc.a(_ne_df.o)
 .debug_abbrev  0x00010cc9      0x151 /package/eda/altera/altera13.0sp1/nios2eds/bin/gnu/H-i686-pc-linux-gnu/bin/../lib/gcc/nios2-elf/4.1.2/libgcc.a(_gt_df.o)
 .debug_abbrev  0x00010e1a      0x151 /package/eda/altera/altera13.0sp1/nios2eds/bin/gnu/H-i686-pc-linux-gnu/bin/../lib/gcc/nios2-elf/4.1.2/libgcc.a(_ge_df.o)
 .debug_abbrev  0x00010f6b      0x151 /package/eda/altera/altera13.0sp1/nios2eds/bin/gnu/H-i686-pc-linux-gnu/bin/../lib/gcc/nios2-elf/4.1.2/libgcc.a(_lt_df.o)
 .debug_abbrev  0x000110bc      0x151 /package/eda/altera/altera13.0sp1/nios2eds/bin/gnu/H-i686-pc-linux-gnu/bin/../lib/gcc/nios2-elf/4.1.2/libgcc.a(_le_df.o)
 .debug_abbrev  0x0001120d      0x13f /package/eda/altera/altera13.0sp1/nios2eds/bin/gnu/H-i686-pc-linux-gnu/bin/../lib/gcc/nios2-elf/4.1.2/libgcc.a(_si_to_df.o)
 .debug_abbrev  0x0001134c      0x176 /package/eda/altera/altera13.0sp1/nios2eds/bin/gnu/H-i686-pc-linux-gnu/bin/../lib/gcc/nios2-elf/4.1.2/libgcc.a(_df_to_si.o)
 .debug_abbrev  0x000114c2      0x132 /package/eda/altera/altera13.0sp1/nios2eds/bin/gnu/H-i686-pc-linux-gnu/bin/../lib/gcc/nios2-elf/4.1.2/libgcc.a(_fpcmp_parts_sf.o)
 .debug_abbrev  0x000115f4      0x132 /package/eda/altera/altera13.0sp1/nios2eds/bin/gnu/H-i686-pc-linux-gnu/bin/../lib/gcc/nios2-elf/4.1.2/libgcc.a(_fpcmp_parts_df.o)
 .debug_abbrev  0x00011726      0x122 ../demo_board_NiosIIf_bsp//libhal_bsp.a(alt_close.o)
 .debug_abbrev  0x00011848       0x89 ../demo_board_NiosIIf_bsp//libhal_bsp.a(alt_dcache_flush.o)
 .debug_abbrev  0x000118d1       0xd6 ../demo_board_NiosIIf_bsp//libhal_bsp.a(alt_dev.o)
 .debug_abbrev  0x000119a7      0x172 ../demo_board_NiosIIf_bsp//libhal_bsp.a(alt_env_lock.o)
 .debug_abbrev  0x00011b19       0x5e ../demo_board_NiosIIf_bsp//libhal_bsp.a(alt_errno.o)
 .debug_abbrev  0x00011b77       0x9f ../demo_board_NiosIIf_bsp//libhal_bsp.a(alt_exit.o)
 .debug_abbrev  0x00011c16      0x124 ../demo_board_NiosIIf_bsp//libhal_bsp.a(alt_fstat.o)
 .debug_abbrev  0x00011d3a      0x124 ../demo_board_NiosIIf_bsp//libhal_bsp.a(alt_isatty.o)
 .debug_abbrev  0x00011e5e       0xb6 ../demo_board_NiosIIf_bsp//libhal_bsp.a(alt_load.o)
 .debug_abbrev  0x00011f14      0x122 ../demo_board_NiosIIf_bsp//libhal_bsp.a(alt_lseek.o)
 .debug_abbrev  0x00012036       0xb7 ../demo_board_NiosIIf_bsp//libhal_bsp.a(alt_main.o)
 .debug_abbrev  0x000120ed      0x172 ../demo_board_NiosIIf_bsp//libhal_bsp.a(alt_malloc_lock.o)
 .debug_abbrev  0x0001225f      0x179 ../demo_board_NiosIIf_bsp//libhal_bsp.a(alt_open.o)
 .debug_abbrev  0x000123d8      0x131 ../demo_board_NiosIIf_bsp//libhal_bsp.a(alt_read.o)
 .debug_abbrev  0x00012509       0xdb ../demo_board_NiosIIf_bsp//libhal_bsp.a(alt_release_fd.o)
 .debug_abbrev  0x000125e4      0x10b ../demo_board_NiosIIf_bsp//libhal_bsp.a(alt_sbrk.o)
 .debug_abbrev  0x000126ef      0x136 ../demo_board_NiosIIf_bsp//libhal_bsp.a(alt_write.o)
 .debug_abbrev  0x00012825      0x19f ../demo_board_NiosIIf_bsp//libhal_bsp.a(alt_sys_init.o)
 .debug_abbrev  0x000129c4      0x213 ../demo_board_NiosIIf_bsp//libhal_bsp.a(altera_avalon_cfi_flash.o)
 .debug_abbrev  0x00012bd7      0x286 ../demo_board_NiosIIf_bsp//libhal_bsp.a(altera_avalon_cfi_flash_table.o)
 .debug_abbrev  0x00012e5d      0x113 ../demo_board_NiosIIf_bsp//libhal_bsp.a(altera_avalon_jtag_uart_fd.o)
 .debug_abbrev  0x00012f70      0x1a5 ../demo_board_NiosIIf_bsp//libhal_bsp.a(altera_avalon_jtag_uart_init.o)
 .debug_abbrev  0x00013115      0x10a ../demo_board_NiosIIf_bsp//libhal_bsp.a(altera_avalon_jtag_uart_ioctl.o)
 .debug_abbrev  0x0001321f      0x194 ../demo_board_NiosIIf_bsp//libhal_bsp.a(altera_avalon_jtag_uart_read.o)
 .debug_abbrev  0x000133b3      0x18c ../demo_board_NiosIIf_bsp//libhal_bsp.a(altera_avalon_jtag_uart_write.o)
 .debug_abbrev  0x0001353f      0x11d ../demo_board_NiosIIf_bsp//libhal_bsp.a(altera_avalon_performance_counter.o)
 .debug_abbrev  0x0001365c      0x158 ../demo_board_NiosIIf_bsp//libhal_bsp.a(altera_avalon_timer_sc.o)
 .debug_abbrev  0x000137b4      0x2ec ../demo_board_NiosIIf_bsp//libhal_bsp.a(altera_ro_zipfs.o)
 .debug_abbrev  0x00013aa0      0x2a2 ../demo_board_NiosIIf_bsp//libhal_bsp.a(altera_up_avalon_video_pixel_buffer_dma.o)
 .debug_abbrev  0x00013d42       0xa6 ../demo_board_NiosIIf_bsp//libhal_bsp.a(perf_print_formatted_report.o)
 .debug_abbrev  0x00013de8      0x179 ../demo_board_NiosIIf_bsp//libhal_bsp.a(alt_alarm_start.o)
 .debug_abbrev  0x00013f61       0x57 ../demo_board_NiosIIf_bsp//libhal_bsp.a(alt_dcache_flush_all.o)
 .debug_abbrev  0x00013fb8      0x117 ../demo_board_NiosIIf_bsp//libhal_bsp.a(alt_dev_llist_insert.o)
 .debug_abbrev  0x000140cf       0x76 ../demo_board_NiosIIf_bsp//libhal_bsp.a(alt_do_ctors.o)
 .debug_abbrev  0x00014145       0x76 ../demo_board_NiosIIf_bsp//libhal_bsp.a(alt_do_dtors.o)
 .debug_abbrev  0x000141bb       0xeb ../demo_board_NiosIIf_bsp//libhal_bsp.a(alt_find_dev.o)
 .debug_abbrev  0x000142a6       0xed ../demo_board_NiosIIf_bsp//libhal_bsp.a(alt_find_file.o)
 .debug_abbrev  0x00014393      0x114 ../demo_board_NiosIIf_bsp//libhal_bsp.a(alt_flash_dev.o)
 .debug_abbrev  0x000144a7      0x101 ../demo_board_NiosIIf_bsp//libhal_bsp.a(alt_fs_reg.o)
 .debug_abbrev  0x000145a8      0x117 ../demo_board_NiosIIf_bsp//libhal_bsp.a(alt_get_fd.o)
 .debug_abbrev  0x000146bf       0x3f ../demo_board_NiosIIf_bsp//libhal_bsp.a(alt_icache_flush_all.o)
 .debug_abbrev  0x000146fe      0x160 ../demo_board_NiosIIf_bsp//libhal_bsp.a(alt_iic.o)
 .debug_abbrev  0x0001485e      0x17c ../demo_board_NiosIIf_bsp//libhal_bsp.a(alt_iic_isr_register.o)
 .debug_abbrev  0x000149da      0x16b ../demo_board_NiosIIf_bsp//libhal_bsp.a(alt_io_redirect.o)
 .debug_abbrev  0x00014b45       0x12 ../demo_board_NiosIIf_bsp//libhal_bsp.a(alt_irq_entry.o)
 .debug_abbrev  0x00014b57      0x115 ../demo_board_NiosIIf_bsp//libhal_bsp.a(alt_irq_handler.o)
 .debug_abbrev  0x00014c6c       0x44 ../demo_board_NiosIIf_bsp//libhal_bsp.a(alt_irq_vars.o)
 .debug_abbrev  0x00014cb0      0x173 ../demo_board_NiosIIf_bsp//libhal_bsp.a(alt_tick.o)
 .debug_abbrev  0x00014e23       0x3f ../demo_board_NiosIIf_bsp//libhal_bsp.a(altera_nios2_qsys_irq.o)
 .debug_abbrev  0x00014e62      0x1b4 ../demo_board_NiosIIf_bsp//libhal_bsp.a(altera_avalon_cfi_flash_amd.o)
 .debug_abbrev  0x00015016      0x12f ../demo_board_NiosIIf_bsp//libhal_bsp.a(altera_avalon_cfi_flash_intel.o)
 .debug_abbrev  0x00015145       0x12 ../demo_board_NiosIIf_bsp//libhal_bsp.a(alt_exception_entry.o)
 .debug_abbrev  0x00015157       0x89 ../demo_board_NiosIIf_bsp//libhal_bsp.a(alt_icache_flush.o)
 .debug_abbrev  0x000151e0       0x5d ../demo_board_NiosIIf_bsp//libhal_bsp.a(alt_usleep.o)
 .debug_abbrev  0x0001523d       0x79 ../demo_board_NiosIIf_bsp//libhal_bsp.a(alt_busy_sleep.o)
 .debug_abbrev  0x000152b6       0xb7 /package/eda/altera/altera13.0sp1/nios2eds/bin/gnu/H-i686-pc-linux-gnu/bin/../lib/gcc/nios2-elf/4.1.2/../../../../nios2-elf/lib/libc.a(lib_a-atexit.o)
 .debug_abbrev  0x0001536d       0x7c /package/eda/altera/altera13.0sp1/nios2eds/bin/gnu/H-i686-pc-linux-gnu/bin/../lib/gcc/nios2-elf/4.1.2/../../../../nios2-elf/lib/libc.a(lib_a-memcmp.o)
 .debug_abbrev  0x000153e9      0x1ae /package/eda/altera/altera13.0sp1/nios2eds/bin/gnu/H-i686-pc-linux-gnu/bin/../lib/gcc/nios2-elf/4.1.2/../../../../nios2-elf/lib/libc.a(lib_a-__atexit.o)
 .debug_abbrev  0x00015597       0x6c /package/eda/altera/altera13.0sp1/nios2eds/bin/gnu/H-i686-pc-linux-gnu/bin/../lib/gcc/nios2-elf/4.1.2/libgcc.a(_floatundidf.o)

.debug_line     0x00000000    0x4e018
 *(.debug_line)
 .debug_line    0x00000000       0x72 ../demo_board_NiosIIf_bsp//obj/HAL/src/crt0.o
 .debug_line    0x00000072      0x2f5 obj/default/cdjpeg.o
 .debug_line    0x00000367      0xc8e obj/default/djpeg.o
 .debug_line    0x00000ff5      0x602 obj/default/jcapimin.o
 .debug_line    0x000015f7      0x45c obj/default/jcapistd.o
 .debug_line    0x00001a53      0xb68 obj/default/jccoefct.o
 .debug_line    0x000025bb      0x94f obj/default/jccolor.o
 .debug_line    0x00002f0a      0xcca obj/default/jcdctmgr.o
 .debug_line    0x00003bd4     0x1a6b obj/default/jchuff.o
 .debug_line    0x0000563f      0x2c3 obj/default/jcinit.o
 .debug_line    0x00005902      0x433 obj/default/jcmainct.o
 .debug_line    0x00005d35     0x1fea obj/default/jcmarker.o
 .debug_line    0x00007d1f      0xee3 obj/default/jcmaster.o
 .debug_line    0x00008c02      0x308 obj/default/jcomapi.o
 .debug_line    0x00008f0a     0x156a obj/default/jcparam.o
 .debug_line    0x0000a474     0x4894 obj/default/jcphuff.o
 .debug_line    0x0000ed08      0x775 obj/default/jcprepct.o
 .debug_line    0x0000f47d      0xf2a obj/default/jcsample.o
 .debug_line    0x000103a7      0x8b2 obj/default/jctrans.o
 .debug_line    0x00010c59      0x7ee obj/default/jdapimin.o
 .debug_line    0x00011447      0x700 obj/default/jdapistd.o
 .debug_line    0x00011b47      0x413 obj/default/jdatadst.o
 .debug_line    0x00011f5a      0x4b2 obj/default/jdatasrc.o
 .debug_line    0x0001240c     0x1116 obj/default/jdcoefct.o
 .debug_line    0x00013522      0x877 obj/default/jdcolor.o
 .debug_line    0x00013d99      0x40e obj/default/jddctmgr.o
 .debug_line    0x000141a7     0x2e1c obj/default/jdhuff.o
 .debug_line    0x00016fc3      0x7f3 obj/default/jdinput.o
 .debug_line    0x000177b6      0x9c3 obj/default/jdmainct.o
 .debug_line    0x00018179     0x168b obj/default/jdmarker.o
 .debug_line    0x00019804      0x9dc obj/default/jdmaster.o
 .debug_line    0x0001a1e0      0xb67 obj/default/jdmerge.o
 .debug_line    0x0001ad47      0xfb3 obj/default/jdphuff.o
 .debug_line    0x0001bcfa      0x5b1 obj/default/jdpostct.o
 .debug_line    0x0001c2ab      0xaa5 obj/default/jdsample.o
 .debug_line    0x0001cd50      0x375 obj/default/jdtrans.o
 .debug_line    0x0001d0c5      0x479 obj/default/jerror.o
 .debug_line    0x0001d53e     0x2e27 obj/default/jfdctflt.o
 .debug_line    0x00020365      0x5ef obj/default/jfdctfst.o
 .debug_line    0x00020954      0x713 obj/default/jfdctint.o
 .debug_line    0x00021067      0x973 obj/default/jidctflt.o
 .debug_line    0x000219da      0x90c obj/default/jidctfst.o
 .debug_line    0x000222e6      0xa55 obj/default/jidctint.o
 .debug_line    0x00022d3b      0xdfa obj/default/jidctred.o
 .debug_line    0x00023b35     0x147f obj/default/jmemmgr.o
 .debug_line    0x00024fb4      0x2f4 obj/default/jmemnobs.o
 .debug_line    0x000252a8     0x1134 obj/default/jquant1.o
 .debug_line    0x000263dc     0x19df obj/default/jquant2.o
 .debug_line    0x00027dbb      0x375 obj/default/jutils.o
 .debug_line    0x00028130      0x738 obj/default/rdcolmap.o
 .debug_line    0x00028868      0xb8a obj/default/wrbmp.o
 .debug_line    0x000293f2     0x1014 obj/default/wrgif.o
 .debug_line    0x0002a406      0x68d obj/default/wrppm.o
 .debug_line    0x0002aa93      0x21a obj/default/wrrle.o
 .debug_line    0x0002acad      0x870 obj/default/wrtarga.o
 .debug_line    0x0002b51d      0x3af /package/eda/altera/altera13.0sp1/nios2eds/bin/gnu/H-i686-pc-linux-gnu/bin/../lib/gcc/nios2-elf/4.1.2/libgcc.a(_addsub_sf.o)
 .debug_line    0x0002b8cc      0x2c1 /package/eda/altera/altera13.0sp1/nios2eds/bin/gnu/H-i686-pc-linux-gnu/bin/../lib/gcc/nios2-elf/4.1.2/libgcc.a(_mul_sf.o)
 .debug_line    0x0002bb8d      0x187 /package/eda/altera/altera13.0sp1/nios2eds/bin/gnu/H-i686-pc-linux-gnu/bin/../lib/gcc/nios2-elf/4.1.2/libgcc.a(_si_to_sf.o)
 .debug_line    0x0002bd14      0x141 /package/eda/altera/altera13.0sp1/nios2eds/bin/gnu/H-i686-pc-linux-gnu/bin/../lib/gcc/nios2-elf/4.1.2/libgcc.a(_sf_to_si.o)
 .debug_line    0x0002be55       0x94 /package/eda/altera/altera13.0sp1/nios2eds/bin/gnu/H-i686-pc-linux-gnu/bin/../lib/gcc/nios2-elf/4.1.2/libgcc.a(_thenan_sf.o)
 .debug_line    0x0002bee9      0x3e5 /package/eda/altera/altera13.0sp1/nios2eds/bin/gnu/H-i686-pc-linux-gnu/bin/../lib/gcc/nios2-elf/4.1.2/libgcc.a(_mul_df.o)
 .debug_line    0x0002c2ce      0x301 /package/eda/altera/altera13.0sp1/nios2eds/bin/gnu/H-i686-pc-linux-gnu/bin/../lib/gcc/nios2-elf/4.1.2/libgcc.a(_div_df.o)
 .debug_line    0x0002c5cf      0x121 /package/eda/altera/altera13.0sp1/nios2eds/bin/gnu/H-i686-pc-linux-gnu/bin/../lib/gcc/nios2-elf/4.1.2/libgcc.a(_df_to_sf.o)
 .debug_line    0x0002c6f0       0x94 /package/eda/altera/altera13.0sp1/nios2eds/bin/gnu/H-i686-pc-linux-gnu/bin/../lib/gcc/nios2-elf/4.1.2/libgcc.a(_thenan_df.o)
 .debug_line    0x0002c784      0x189 /package/eda/altera/altera13.0sp1/nios2eds/bin/gnu/H-i686-pc-linux-gnu/bin/../lib/gcc/nios2-elf/4.1.2/libgcc.a(_usi_to_df.o)
 .debug_line    0x0002c90d      0x2c6 /package/eda/altera/altera13.0sp1/nios2eds/bin/gnu/H-i686-pc-linux-gnu/bin/../lib/gcc/nios2-elf/4.1.2/libgcc.a(lib2-divmod.o)
 .debug_line    0x0002cbd3      0x134 /package/eda/altera/altera13.0sp1/nios2eds/bin/gnu/H-i686-pc-linux-gnu/bin/../lib/gcc/nios2-elf/4.1.2/libgcc.a(lib2-divtable.o)
 .debug_line    0x0002cd07      0x196 /package/eda/altera/altera13.0sp1/nios2eds/bin/gnu/H-i686-pc-linux-gnu/bin/../lib/gcc/nios2-elf/4.1.2/libgcc.a(_muldi3.o)
 .debug_line    0x0002ce9d      0x17c /package/eda/altera/altera13.0sp1/nios2eds/bin/gnu/H-i686-pc-linux-gnu/bin/../lib/gcc/nios2-elf/4.1.2/libgcc.a(_clzsi2.o)
 .debug_line    0x0002d019      0x1ca /package/eda/altera/altera13.0sp1/nios2eds/bin/gnu/H-i686-pc-linux-gnu/bin/../lib/gcc/nios2-elf/4.1.2/libgcc.a(_pack_sf.o)
 .debug_line    0x0002d1e3      0x197 /package/eda/altera/altera13.0sp1/nios2eds/bin/gnu/H-i686-pc-linux-gnu/bin/../lib/gcc/nios2-elf/4.1.2/libgcc.a(_unpack_sf.o)
 .debug_line    0x0002d37a       0xe1 /package/eda/altera/altera13.0sp1/nios2eds/bin/gnu/H-i686-pc-linux-gnu/bin/../lib/gcc/nios2-elf/4.1.2/libgcc.a(_make_sf.o)
 .debug_line    0x0002d45b      0x222 /package/eda/altera/altera13.0sp1/nios2eds/bin/gnu/H-i686-pc-linux-gnu/bin/../lib/gcc/nios2-elf/4.1.2/libgcc.a(_pack_df.o)
 .debug_line    0x0002d67d      0x1e4 /package/eda/altera/altera13.0sp1/nios2eds/bin/gnu/H-i686-pc-linux-gnu/bin/../lib/gcc/nios2-elf/4.1.2/libgcc.a(_unpack_df.o)
 .debug_line    0x0002d861      0x121 /package/eda/altera/altera13.0sp1/nios2eds/bin/gnu/H-i686-pc-linux-gnu/bin/../lib/gcc/nios2-elf/4.1.2/libgcc.a(_clz.o)
 .debug_line    0x0002d982       0x7e /package/eda/altera/altera13.0sp1/nios2eds/bin/gnu/H-i686-pc-linux-gnu/bin/../lib/gcc/nios2-elf/4.1.2/../../../../nios2-elf/lib/libc.a(lib_a-ctype_.o)
 .debug_line    0x0002da00      0x238 /package/eda/altera/altera13.0sp1/nios2eds/bin/gnu/H-i686-pc-linux-gnu/bin/../lib/gcc/nios2-elf/4.1.2/../../../../nios2-elf/lib/libc.a(lib_a-exit.o)
 .debug_line    0x0002dc38      0x2e8 /package/eda/altera/altera13.0sp1/nios2eds/bin/gnu/H-i686-pc-linux-gnu/bin/../lib/gcc/nios2-elf/4.1.2/../../../../nios2-elf/lib/libc.a(lib_a-fclose.o)
 .debug_line    0x0002df20      0x40d /package/eda/altera/altera13.0sp1/nios2eds/bin/gnu/H-i686-pc-linux-gnu/bin/../lib/gcc/nios2-elf/4.1.2/../../../../nios2-elf/lib/libc.a(lib_a-fflush.o)
 .debug_line    0x0002e32d      0x601 /package/eda/altera/altera13.0sp1/nios2eds/bin/gnu/H-i686-pc-linux-gnu/bin/../lib/gcc/nios2-elf/4.1.2/../../../../nios2-elf/lib/libc.a(lib_a-findfp.o)
 .debug_line    0x0002e92e      0x342 /package/eda/altera/altera13.0sp1/nios2eds/bin/gnu/H-i686-pc-linux-gnu/bin/../lib/gcc/nios2-elf/4.1.2/../../../../nios2-elf/lib/libc.a(lib_a-fopen.o)
 .debug_line    0x0002ec70      0x284 /package/eda/altera/altera13.0sp1/nios2eds/bin/gnu/H-i686-pc-linux-gnu/bin/../lib/gcc/nios2-elf/4.1.2/../../../../nios2-elf/lib/libc.a(lib_a-fprintf.o)
 .debug_line    0x0002eef4      0x285 /package/eda/altera/altera13.0sp1/nios2eds/bin/gnu/H-i686-pc-linux-gnu/bin/../lib/gcc/nios2-elf/4.1.2/../../../../nios2-elf/lib/libc.a(lib_a-fputc.o)
 .debug_line    0x0002f179      0x456 /package/eda/altera/altera13.0sp1/nios2eds/bin/gnu/H-i686-pc-linux-gnu/bin/../lib/gcc/nios2-elf/4.1.2/../../../../nios2-elf/lib/libc.a(lib_a-fread.o)
 .debug_line    0x0002f5cf      0x5eb /package/eda/altera/altera13.0sp1/nios2eds/bin/gnu/H-i686-pc-linux-gnu/bin/../lib/gcc/nios2-elf/4.1.2/../../../../nios2-elf/lib/libc.a(lib_a-freer.o)
 .debug_line    0x0002fbba      0x5ab /package/eda/altera/altera13.0sp1/nios2eds/bin/gnu/H-i686-pc-linux-gnu/bin/../lib/gcc/nios2-elf/4.1.2/../../../../nios2-elf/lib/libc.a(lib_a-fseek.o)
 .debug_line    0x00030165      0x264 /package/eda/altera/altera13.0sp1/nios2eds/bin/gnu/H-i686-pc-linux-gnu/bin/../lib/gcc/nios2-elf/4.1.2/../../../../nios2-elf/lib/libc.a(lib_a-fstatr.o)
 .debug_line    0x000303c9      0x34a /package/eda/altera/altera13.0sp1/nios2eds/bin/gnu/H-i686-pc-linux-gnu/bin/../lib/gcc/nios2-elf/4.1.2/../../../../nios2-elf/lib/libc.a(lib_a-fwalk.o)
 .debug_line    0x00030713      0x2d9 /package/eda/altera/altera13.0sp1/nios2eds/bin/gnu/H-i686-pc-linux-gnu/bin/../lib/gcc/nios2-elf/4.1.2/../../../../nios2-elf/lib/libc.a(lib_a-fwrite.o)
 .debug_line    0x000309ec      0x2a4 /package/eda/altera/altera13.0sp1/nios2eds/bin/gnu/H-i686-pc-linux-gnu/bin/../lib/gcc/nios2-elf/4.1.2/../../../../nios2-elf/lib/libc.a(lib_a-getc.o)
 .debug_line    0x00030c90      0x256 /package/eda/altera/altera13.0sp1/nios2eds/bin/gnu/H-i686-pc-linux-gnu/bin/../lib/gcc/nios2-elf/4.1.2/../../../../nios2-elf/lib/libc.a(lib_a-getenv.o)
 .debug_line    0x00030ee6      0x2b0 /package/eda/altera/altera13.0sp1/nios2eds/bin/gnu/H-i686-pc-linux-gnu/bin/../lib/gcc/nios2-elf/4.1.2/../../../../nios2-elf/lib/libc.a(lib_a-getenv_r.o)
 .debug_line    0x00031196      0x22d /package/eda/altera/altera13.0sp1/nios2eds/bin/gnu/H-i686-pc-linux-gnu/bin/../lib/gcc/nios2-elf/4.1.2/../../../../nios2-elf/lib/libc.a(lib_a-impure.o)
 .debug_line    0x000313c3      0x1df /package/eda/altera/altera13.0sp1/nios2eds/bin/gnu/H-i686-pc-linux-gnu/bin/../lib/gcc/nios2-elf/4.1.2/../../../../nios2-elf/lib/libc.a(lib_a-int_errno.o)
 .debug_line    0x000315a2      0x3c3 /package/eda/altera/altera13.0sp1/nios2eds/bin/gnu/H-i686-pc-linux-gnu/bin/../lib/gcc/nios2-elf/4.1.2/../../../../nios2-elf/lib/libc.a(lib_a-makebuf.o)
 .debug_line    0x00031965      0x24b /package/eda/altera/altera13.0sp1/nios2eds/bin/gnu/H-i686-pc-linux-gnu/bin/../lib/gcc/nios2-elf/4.1.2/../../../../nios2-elf/lib/libc.a(lib_a-malloc.o)
 .debug_line    0x00031bb0      0x80a /package/eda/altera/altera13.0sp1/nios2eds/bin/gnu/H-i686-pc-linux-gnu/bin/../lib/gcc/nios2-elf/4.1.2/../../../../nios2-elf/lib/libc.a(lib_a-mallocr.o)
 .debug_line    0x000323ba      0x1ac /package/eda/altera/altera13.0sp1/nios2eds/bin/gnu/H-i686-pc-linux-gnu/bin/../lib/gcc/nios2-elf/4.1.2/../../../../nios2-elf/lib/libc.a(lib_a-memcpy.o)
 .debug_line    0x00032566      0x301 /package/eda/altera/altera13.0sp1/nios2eds/bin/gnu/H-i686-pc-linux-gnu/bin/../lib/gcc/nios2-elf/4.1.2/../../../../nios2-elf/lib/libc.a(lib_a-memset.o)
 .debug_line    0x00032867      0x27b /package/eda/altera/altera13.0sp1/nios2eds/bin/gnu/H-i686-pc-linux-gnu/bin/../lib/gcc/nios2-elf/4.1.2/../../../../nios2-elf/lib/libc.a(lib_a-openr.o)
 .debug_line    0x00032ae2      0x29b /package/eda/altera/altera13.0sp1/nios2eds/bin/gnu/H-i686-pc-linux-gnu/bin/../lib/gcc/nios2-elf/4.1.2/../../../../nios2-elf/lib/libc.a(lib_a-printf.o)
 .debug_line    0x00032d7d      0x2c4 /package/eda/altera/altera13.0sp1/nios2eds/bin/gnu/H-i686-pc-linux-gnu/bin/../lib/gcc/nios2-elf/4.1.2/../../../../nios2-elf/lib/libc.a(lib_a-putc.o)
 .debug_line    0x00033041      0x2f7 /package/eda/altera/altera13.0sp1/nios2eds/bin/gnu/H-i686-pc-linux-gnu/bin/../lib/gcc/nios2-elf/4.1.2/../../../../nios2-elf/lib/libc.a(lib_a-puts.o)
 .debug_line    0x00033338      0x3c4 /package/eda/altera/altera13.0sp1/nios2eds/bin/gnu/H-i686-pc-linux-gnu/bin/../lib/gcc/nios2-elf/4.1.2/../../../../nios2-elf/lib/libc.a(lib_a-refill.o)
 .debug_line    0x000336fc      0x28d /package/eda/altera/altera13.0sp1/nios2eds/bin/gnu/H-i686-pc-linux-gnu/bin/../lib/gcc/nios2-elf/4.1.2/../../../../nios2-elf/lib/libc.a(lib_a-rget.o)
 .debug_line    0x00033989      0x299 /package/eda/altera/altera13.0sp1/nios2eds/bin/gnu/H-i686-pc-linux-gnu/bin/../lib/gcc/nios2-elf/4.1.2/../../../../nios2-elf/lib/libc.a(lib_a-sbrkr.o)
 .debug_line    0x00033c22      0x322 /package/eda/altera/altera13.0sp1/nios2eds/bin/gnu/H-i686-pc-linux-gnu/bin/../lib/gcc/nios2-elf/4.1.2/../../../../nios2-elf/lib/libc.a(lib_a-sprintf.o)
 .debug_line    0x00033f44      0x361 /package/eda/altera/altera13.0sp1/nios2eds/bin/gnu/H-i686-pc-linux-gnu/bin/../lib/gcc/nios2-elf/4.1.2/../../../../nios2-elf/lib/libc.a(lib_a-sscanf.o)
 .debug_line    0x000342a5      0x38c /package/eda/altera/altera13.0sp1/nios2eds/bin/gnu/H-i686-pc-linux-gnu/bin/../lib/gcc/nios2-elf/4.1.2/../../../../nios2-elf/lib/libc.a(lib_a-stdio.o)
 .debug_line    0x00034631      0x20f /package/eda/altera/altera13.0sp1/nios2eds/bin/gnu/H-i686-pc-linux-gnu/bin/../lib/gcc/nios2-elf/4.1.2/../../../../nios2-elf/lib/libc.a(lib_a-strdup.o)
 .debug_line    0x00034840      0x231 /package/eda/altera/altera13.0sp1/nios2eds/bin/gnu/H-i686-pc-linux-gnu/bin/../lib/gcc/nios2-elf/4.1.2/../../../../nios2-elf/lib/libc.a(lib_a-strdup_r.o)
 .debug_line    0x00034a71      0x26d /package/eda/altera/altera13.0sp1/nios2eds/bin/gnu/H-i686-pc-linux-gnu/bin/../lib/gcc/nios2-elf/4.1.2/../../../../nios2-elf/lib/libc.a(lib_a-strlen.o)
 .debug_line    0x00034cde      0x2fe /package/eda/altera/altera13.0sp1/nios2eds/bin/gnu/H-i686-pc-linux-gnu/bin/../lib/gcc/nios2-elf/4.1.2/../../../../nios2-elf/lib/libc.a(lib_a-strncmp.o)
 .debug_line    0x00034fdc     0x110c /package/eda/altera/altera13.0sp1/nios2eds/bin/gnu/H-i686-pc-linux-gnu/bin/../lib/gcc/nios2-elf/4.1.2/../../../../nios2-elf/lib/libc.a(lib_a-vfprintf.o)
 .debug_line    0x000360e8     0x103d /package/eda/altera/altera13.0sp1/nios2eds/bin/gnu/H-i686-pc-linux-gnu/bin/../lib/gcc/nios2-elf/4.1.2/../../../../nios2-elf/lib/libc.a(lib_a-vfscanf.o)
 .debug_line    0x00037125      0x350 /package/eda/altera/altera13.0sp1/nios2eds/bin/gnu/H-i686-pc-linux-gnu/bin/../lib/gcc/nios2-elf/4.1.2/../../../../nios2-elf/lib/libc.a(lib_a-wbuf.o)
 .debug_line    0x00037475      0x29a /package/eda/altera/altera13.0sp1/nios2eds/bin/gnu/H-i686-pc-linux-gnu/bin/../lib/gcc/nios2-elf/4.1.2/../../../../nios2-elf/lib/libc.a(lib_a-writer.o)
 .debug_line    0x0003770f      0x2f0 /package/eda/altera/altera13.0sp1/nios2eds/bin/gnu/H-i686-pc-linux-gnu/bin/../lib/gcc/nios2-elf/4.1.2/../../../../nios2-elf/lib/libc.a(lib_a-wsetup.o)
 .debug_line    0x000379ff      0x367 /package/eda/altera/altera13.0sp1/nios2eds/bin/gnu/H-i686-pc-linux-gnu/bin/../lib/gcc/nios2-elf/4.1.2/../../../../nios2-elf/lib/libc.a(lib_a-__call_atexit.o)
 .debug_line    0x00037d66      0x29a /package/eda/altera/altera13.0sp1/nios2eds/bin/gnu/H-i686-pc-linux-gnu/bin/../lib/gcc/nios2-elf/4.1.2/../../../../nios2-elf/lib/libc.a(lib_a-closer.o)
 .debug_line    0x00038000     0x12c6 /package/eda/altera/altera13.0sp1/nios2eds/bin/gnu/H-i686-pc-linux-gnu/bin/../lib/gcc/nios2-elf/4.1.2/../../../../nios2-elf/lib/libc.a(lib_a-dtoa.o)
 .debug_line    0x000392c6       0x80 /package/eda/altera/altera13.0sp1/nios2eds/bin/gnu/H-i686-pc-linux-gnu/bin/../lib/gcc/nios2-elf/4.1.2/../../../../nios2-elf/lib/libc.a(lib_a-environ.o)
 .debug_line    0x00039346      0x296 /package/eda/altera/altera13.0sp1/nios2eds/bin/gnu/H-i686-pc-linux-gnu/bin/../lib/gcc/nios2-elf/4.1.2/../../../../nios2-elf/lib/libc.a(lib_a-flags.o)
 .debug_line    0x000395dc      0x641 /package/eda/altera/altera13.0sp1/nios2eds/bin/gnu/H-i686-pc-linux-gnu/bin/../lib/gcc/nios2-elf/4.1.2/../../../../nios2-elf/lib/libc.a(lib_a-fvwrite.o)
 .debug_line    0x00039c1d      0x29b /package/eda/altera/altera13.0sp1/nios2eds/bin/gnu/H-i686-pc-linux-gnu/bin/../lib/gcc/nios2-elf/4.1.2/../../../../nios2-elf/lib/libc.a(lib_a-isattyr.o)
 .debug_line    0x00039eb8      0x1fb /package/eda/altera/altera13.0sp1/nios2eds/bin/gnu/H-i686-pc-linux-gnu/bin/../lib/gcc/nios2-elf/4.1.2/../../../../nios2-elf/lib/libc.a(lib_a-iswspace.o)
 .debug_line    0x0003a0b3      0x2c8 /package/eda/altera/altera13.0sp1/nios2eds/bin/gnu/H-i686-pc-linux-gnu/bin/../lib/gcc/nios2-elf/4.1.2/../../../../nios2-elf/lib/libc.a(lib_a-locale.o)
 .debug_line    0x0003a37b      0x29a /package/eda/altera/altera13.0sp1/nios2eds/bin/gnu/H-i686-pc-linux-gnu/bin/../lib/gcc/nios2-elf/4.1.2/../../../../nios2-elf/lib/libc.a(lib_a-lseekr.o)
 .debug_line    0x0003a615      0x2c6 /package/eda/altera/altera13.0sp1/nios2eds/bin/gnu/H-i686-pc-linux-gnu/bin/../lib/gcc/nios2-elf/4.1.2/../../../../nios2-elf/lib/libc.a(lib_a-mbrtowc.o)
 .debug_line    0x0003a8db      0x236 /package/eda/altera/altera13.0sp1/nios2eds/bin/gnu/H-i686-pc-linux-gnu/bin/../lib/gcc/nios2-elf/4.1.2/../../../../nios2-elf/lib/libc.a(lib_a-mbtowc_r.o)
 .debug_line    0x0003ab11      0x303 /package/eda/altera/altera13.0sp1/nios2eds/bin/gnu/H-i686-pc-linux-gnu/bin/../lib/gcc/nios2-elf/4.1.2/../../../../nios2-elf/lib/libc.a(lib_a-memchr.o)
 .debug_line    0x0003ae14      0x30a /package/eda/altera/altera13.0sp1/nios2eds/bin/gnu/H-i686-pc-linux-gnu/bin/../lib/gcc/nios2-elf/4.1.2/../../../../nios2-elf/lib/libc.a(lib_a-memmove.o)
 .debug_line    0x0003b11e     0x1243 /package/eda/altera/altera13.0sp1/nios2eds/bin/gnu/H-i686-pc-linux-gnu/bin/../lib/gcc/nios2-elf/4.1.2/../../../../nios2-elf/lib/libc.a(lib_a-mprec.o)
 .debug_line    0x0003c361      0x299 /package/eda/altera/altera13.0sp1/nios2eds/bin/gnu/H-i686-pc-linux-gnu/bin/../lib/gcc/nios2-elf/4.1.2/../../../../nios2-elf/lib/libc.a(lib_a-readr.o)
 .debug_line    0x0003c5fa      0x58a /package/eda/altera/altera13.0sp1/nios2eds/bin/gnu/H-i686-pc-linux-gnu/bin/../lib/gcc/nios2-elf/4.1.2/../../../../nios2-elf/lib/libc.a(lib_a-reallocr.o)
 .debug_line    0x0003cb84      0x222 /package/eda/altera/altera13.0sp1/nios2eds/bin/gnu/H-i686-pc-linux-gnu/bin/../lib/gcc/nios2-elf/4.1.2/../../../../nios2-elf/lib/libc.a(lib_a-s_isinfd.o)
 .debug_line    0x0003cda6      0x21a /package/eda/altera/altera13.0sp1/nios2eds/bin/gnu/H-i686-pc-linux-gnu/bin/../lib/gcc/nios2-elf/4.1.2/../../../../nios2-elf/lib/libc.a(lib_a-s_isnand.o)
 .debug_line    0x0003cfc0      0x2c9 /package/eda/altera/altera13.0sp1/nios2eds/bin/gnu/H-i686-pc-linux-gnu/bin/../lib/gcc/nios2-elf/4.1.2/../../../../nios2-elf/lib/libc.a(lib_a-sccl.o)
 .debug_line    0x0003d289      0x208 /package/eda/altera/altera13.0sp1/nios2eds/bin/gnu/H-i686-pc-linux-gnu/bin/../lib/gcc/nios2-elf/4.1.2/../../../../nios2-elf/lib/libc.a(lib_a-sf_nan.o)
 .debug_line    0x0003d491      0x2d5 /package/eda/altera/altera13.0sp1/nios2eds/bin/gnu/H-i686-pc-linux-gnu/bin/../lib/gcc/nios2-elf/4.1.2/../../../../nios2-elf/lib/libc.a(lib_a-strcmp.o)
 .debug_line    0x0003d766      0xfe4 /package/eda/altera/altera13.0sp1/nios2eds/bin/gnu/H-i686-pc-linux-gnu/bin/../lib/gcc/nios2-elf/4.1.2/../../../../nios2-elf/lib/libc.a(lib_a-strtod.o)
 .debug_line    0x0003e74a      0x403 /package/eda/altera/altera13.0sp1/nios2eds/bin/gnu/H-i686-pc-linux-gnu/bin/../lib/gcc/nios2-elf/4.1.2/../../../../nios2-elf/lib/libc.a(lib_a-strtol.o)
 .debug_line    0x0003eb4d      0x406 /package/eda/altera/altera13.0sp1/nios2eds/bin/gnu/H-i686-pc-linux-gnu/bin/../lib/gcc/nios2-elf/4.1.2/../../../../nios2-elf/lib/libc.a(lib_a-strtoll_r.o)
 .debug_line    0x0003ef53      0x3ba /package/eda/altera/altera13.0sp1/nios2eds/bin/gnu/H-i686-pc-linux-gnu/bin/../lib/gcc/nios2-elf/4.1.2/../../../../nios2-elf/lib/libc.a(lib_a-strtoul.o)
 .debug_line    0x0003f30d      0x3af /package/eda/altera/altera13.0sp1/nios2eds/bin/gnu/H-i686-pc-linux-gnu/bin/../lib/gcc/nios2-elf/4.1.2/../../../../nios2-elf/lib/libc.a(lib_a-strtoull_r.o)
 .debug_line    0x0003f6bc      0x49f /package/eda/altera/altera13.0sp1/nios2eds/bin/gnu/H-i686-pc-linux-gnu/bin/../lib/gcc/nios2-elf/4.1.2/../../../../nios2-elf/lib/libc.a(lib_a-ungetc.o)
 .debug_line    0x0003fb5b      0x25c /package/eda/altera/altera13.0sp1/nios2eds/bin/gnu/H-i686-pc-linux-gnu/bin/../lib/gcc/nios2-elf/4.1.2/../../../../nios2-elf/lib/libc.a(lib_a-callocr.o)
 .debug_line    0x0003fdb7      0x8c5 /package/eda/altera/altera13.0sp1/nios2eds/bin/gnu/H-i686-pc-linux-gnu/bin/../lib/gcc/nios2-elf/4.1.2/../../../../nios2-elf/lib/libc.a(lib_a-gdtoa-gethex.o)
 .debug_line    0x0004067c      0x47b /package/eda/altera/altera13.0sp1/nios2eds/bin/gnu/H-i686-pc-linux-gnu/bin/../lib/gcc/nios2-elf/4.1.2/../../../../nios2-elf/lib/libc.a(lib_a-gdtoa-hexnan.o)
 .debug_line    0x00040af7      0x176 /package/eda/altera/altera13.0sp1/nios2eds/bin/gnu/H-i686-pc-linux-gnu/bin/../lib/gcc/nios2-elf/4.1.2/libgcc.a(_fixunsdfsi.o)
 .debug_line    0x00040c6d      0x369 /package/eda/altera/altera13.0sp1/nios2eds/bin/gnu/H-i686-pc-linux-gnu/bin/../lib/gcc/nios2-elf/4.1.2/libgcc.a(_udivdi3.o)
 .debug_line    0x00040fd6      0x3f4 /package/eda/altera/altera13.0sp1/nios2eds/bin/gnu/H-i686-pc-linux-gnu/bin/../lib/gcc/nios2-elf/4.1.2/libgcc.a(_umoddi3.o)
 .debug_line    0x000413ca      0x121 /package/eda/altera/altera13.0sp1/nios2eds/bin/gnu/H-i686-pc-linux-gnu/bin/../lib/gcc/nios2-elf/4.1.2/libgcc.a(_ne_sf.o)
 .debug_line    0x000414eb      0x121 /package/eda/altera/altera13.0sp1/nios2eds/bin/gnu/H-i686-pc-linux-gnu/bin/../lib/gcc/nios2-elf/4.1.2/libgcc.a(_gt_sf.o)
 .debug_line    0x0004160c      0x121 /package/eda/altera/altera13.0sp1/nios2eds/bin/gnu/H-i686-pc-linux-gnu/bin/../lib/gcc/nios2-elf/4.1.2/libgcc.a(_lt_sf.o)
 .debug_line    0x0004172d      0x430 /package/eda/altera/altera13.0sp1/nios2eds/bin/gnu/H-i686-pc-linux-gnu/bin/../lib/gcc/nios2-elf/4.1.2/libgcc.a(_addsub_df.o)
 .debug_line    0x00041b5d      0x129 /package/eda/altera/altera13.0sp1/nios2eds/bin/gnu/H-i686-pc-linux-gnu/bin/../lib/gcc/nios2-elf/4.1.2/libgcc.a(_eq_df.o)
 .debug_line    0x00041c86      0x129 /package/eda/altera/altera13.0sp1/nios2eds/bin/gnu/H-i686-pc-linux-gnu/bin/../lib/gcc/nios2-elf/4.1.2/libgcc.a(_ne_df.o)
 .debug_line    0x00041daf      0x129 /package/eda/altera/altera13.0sp1/nios2eds/bin/gnu/H-i686-pc-linux-gnu/bin/../lib/gcc/nios2-elf/4.1.2/libgcc.a(_gt_df.o)
 .debug_line    0x00041ed8      0x129 /package/eda/altera/altera13.0sp1/nios2eds/bin/gnu/H-i686-pc-linux-gnu/bin/../lib/gcc/nios2-elf/4.1.2/libgcc.a(_ge_df.o)
 .debug_line    0x00042001      0x129 /package/eda/altera/altera13.0sp1/nios2eds/bin/gnu/H-i686-pc-linux-gnu/bin/../lib/gcc/nios2-elf/4.1.2/libgcc.a(_lt_df.o)
 .debug_line    0x0004212a      0x129 /package/eda/altera/altera13.0sp1/nios2eds/bin/gnu/H-i686-pc-linux-gnu/bin/../lib/gcc/nios2-elf/4.1.2/libgcc.a(_le_df.o)
 .debug_line    0x00042253      0x175 /package/eda/altera/altera13.0sp1/nios2eds/bin/gnu/H-i686-pc-linux-gnu/bin/../lib/gcc/nios2-elf/4.1.2/libgcc.a(_si_to_df.o)
 .debug_line    0x000423c8      0x149 /package/eda/altera/altera13.0sp1/nios2eds/bin/gnu/H-i686-pc-linux-gnu/bin/../lib/gcc/nios2-elf/4.1.2/libgcc.a(_df_to_si.o)
 .debug_line    0x00042511      0x177 /package/eda/altera/altera13.0sp1/nios2eds/bin/gnu/H-i686-pc-linux-gnu/bin/../lib/gcc/nios2-elf/4.1.2/libgcc.a(_fpcmp_parts_sf.o)
 .debug_line    0x00042688      0x187 /package/eda/altera/altera13.0sp1/nios2eds/bin/gnu/H-i686-pc-linux-gnu/bin/../lib/gcc/nios2-elf/4.1.2/libgcc.a(_fpcmp_parts_df.o)
 .debug_line    0x0004280f      0x2d5 ../demo_board_NiosIIf_bsp//libhal_bsp.a(alt_close.o)
 .debug_line    0x00042ae4      0x203 ../demo_board_NiosIIf_bsp//libhal_bsp.a(alt_dcache_flush.o)
 .debug_line    0x00042ce7      0x276 ../demo_board_NiosIIf_bsp//libhal_bsp.a(alt_dev.o)
 .debug_line    0x00042f5d      0x24b ../demo_board_NiosIIf_bsp//libhal_bsp.a(alt_env_lock.o)
 .debug_line    0x000431a8      0x1d4 ../demo_board_NiosIIf_bsp//libhal_bsp.a(alt_errno.o)
 .debug_line    0x0004337c      0x206 ../demo_board_NiosIIf_bsp//libhal_bsp.a(alt_exit.o)
 .debug_line    0x00043582      0x2d1 ../demo_board_NiosIIf_bsp//libhal_bsp.a(alt_fstat.o)
 .debug_line    0x00043853      0x2c8 ../demo_board_NiosIIf_bsp//libhal_bsp.a(alt_isatty.o)
 .debug_line    0x00043b1b      0x2a5 ../demo_board_NiosIIf_bsp//libhal_bsp.a(alt_load.o)
 .debug_line    0x00043dc0      0x2cd ../demo_board_NiosIIf_bsp//libhal_bsp.a(alt_lseek.o)
 .debug_line    0x0004408d      0x304 ../demo_board_NiosIIf_bsp//libhal_bsp.a(alt_main.o)
 .debug_line    0x00044391      0x24e ../demo_board_NiosIIf_bsp//libhal_bsp.a(alt_malloc_lock.o)
 .debug_line    0x000445df      0x358 ../demo_board_NiosIIf_bsp//libhal_bsp.a(alt_open.o)
 .debug_line    0x00044937      0x304 ../demo_board_NiosIIf_bsp//libhal_bsp.a(alt_read.o)
 .debug_line    0x00044c3b       0xfd ../demo_board_NiosIIf_bsp//libhal_bsp.a(alt_release_fd.o)
 .debug_line    0x00044d38      0x27e ../demo_board_NiosIIf_bsp//libhal_bsp.a(alt_sbrk.o)
 .debug_line    0x00044fb6      0x305 ../demo_board_NiosIIf_bsp//libhal_bsp.a(alt_write.o)
 .debug_line    0x000452bb      0x3ca ../demo_board_NiosIIf_bsp//libhal_bsp.a(alt_sys_init.o)
 .debug_line    0x00045685      0x67d ../demo_board_NiosIIf_bsp//libhal_bsp.a(altera_avalon_cfi_flash.o)
 .debug_line    0x00045d02      0xbef ../demo_board_NiosIIf_bsp//libhal_bsp.a(altera_avalon_cfi_flash_table.o)
 .debug_line    0x000468f1      0x232 ../demo_board_NiosIIf_bsp//libhal_bsp.a(altera_avalon_jtag_uart_fd.o)
 .debug_line    0x00046b23      0x51d ../demo_board_NiosIIf_bsp//libhal_bsp.a(altera_avalon_jtag_uart_init.o)
 .debug_line    0x00047040      0x337 ../demo_board_NiosIIf_bsp//libhal_bsp.a(altera_avalon_jtag_uart_ioctl.o)
 .debug_line    0x00047377      0x460 ../demo_board_NiosIIf_bsp//libhal_bsp.a(altera_avalon_jtag_uart_read.o)
 .debug_line    0x000477d7      0x479 ../demo_board_NiosIIf_bsp//libhal_bsp.a(altera_avalon_jtag_uart_write.o)
 .debug_line    0x00047c50      0x119 ../demo_board_NiosIIf_bsp//libhal_bsp.a(altera_avalon_performance_counter.o)
 .debug_line    0x00047d69      0x2e3 ../demo_board_NiosIIf_bsp//libhal_bsp.a(altera_avalon_timer_sc.o)
 .debug_line    0x0004804c      0xc3f ../demo_board_NiosIIf_bsp//libhal_bsp.a(altera_ro_zipfs.o)
 .debug_line    0x00048c8b      0xc8b ../demo_board_NiosIIf_bsp//libhal_bsp.a(altera_up_avalon_video_pixel_buffer_dma.o)
 .debug_line    0x00049916      0x2dd ../demo_board_NiosIIf_bsp//libhal_bsp.a(perf_print_formatted_report.o)
 .debug_line    0x00049bf3      0x2e8 ../demo_board_NiosIIf_bsp//libhal_bsp.a(alt_alarm_start.o)
 .debug_line    0x00049edb      0x1f7 ../demo_board_NiosIIf_bsp//libhal_bsp.a(alt_dcache_flush_all.o)
 .debug_line    0x0004a0d2      0x28e ../demo_board_NiosIIf_bsp//libhal_bsp.a(alt_dev_llist_insert.o)
 .debug_line    0x0004a360       0xa3 ../demo_board_NiosIIf_bsp//libhal_bsp.a(alt_do_ctors.o)
 .debug_line    0x0004a403       0xa3 ../demo_board_NiosIIf_bsp//libhal_bsp.a(alt_do_dtors.o)
 .debug_line    0x0004a4a6      0x2a7 ../demo_board_NiosIIf_bsp//libhal_bsp.a(alt_find_dev.o)
 .debug_line    0x0004a74d      0x2d6 ../demo_board_NiosIIf_bsp//libhal_bsp.a(alt_find_file.o)
 .debug_line    0x0004aa23      0x2bc ../demo_board_NiosIIf_bsp//libhal_bsp.a(alt_flash_dev.o)
 .debug_line    0x0004acdf      0x27f ../demo_board_NiosIIf_bsp//libhal_bsp.a(alt_fs_reg.o)
 .debug_line    0x0004af5e      0x2c9 ../demo_board_NiosIIf_bsp//libhal_bsp.a(alt_get_fd.o)
 .debug_line    0x0004b227      0x1ef ../demo_board_NiosIIf_bsp//libhal_bsp.a(alt_icache_flush_all.o)
 .debug_line    0x0004b416      0x2a9 ../demo_board_NiosIIf_bsp//libhal_bsp.a(alt_iic.o)
 .debug_line    0x0004b6bf      0x27d ../demo_board_NiosIIf_bsp//libhal_bsp.a(alt_iic_isr_register.o)
 .debug_line    0x0004b93c      0x3c4 ../demo_board_NiosIIf_bsp//libhal_bsp.a(alt_io_redirect.o)
 .debug_line    0x0004bd00       0x6b ../demo_board_NiosIIf_bsp//libhal_bsp.a(alt_irq_entry.o)
 .debug_line    0x0004bd6b      0x28f ../demo_board_NiosIIf_bsp//libhal_bsp.a(alt_irq_handler.o)
 .debug_line    0x0004bffa       0x72 ../demo_board_NiosIIf_bsp//libhal_bsp.a(alt_irq_vars.o)
 .debug_line    0x0004c06c      0x384 ../demo_board_NiosIIf_bsp//libhal_bsp.a(alt_tick.o)
 .debug_line    0x0004c3f0      0x1f8 ../demo_board_NiosIIf_bsp//libhal_bsp.a(altera_nios2_qsys_irq.o)
 .debug_line    0x0004c5e8      0x4b0 ../demo_board_NiosIIf_bsp//libhal_bsp.a(altera_avalon_cfi_flash_amd.o)
 .debug_line    0x0004ca98      0x4d4 ../demo_board_NiosIIf_bsp//libhal_bsp.a(altera_avalon_cfi_flash_intel.o)
 .debug_line    0x0004cf6c       0xab ../demo_board_NiosIIf_bsp//libhal_bsp.a(alt_exception_entry.o)
 .debug_line    0x0004d017      0x213 ../demo_board_NiosIIf_bsp//libhal_bsp.a(alt_icache_flush.o)
 .debug_line    0x0004d22a      0x241 ../demo_board_NiosIIf_bsp//libhal_bsp.a(alt_usleep.o)
 .debug_line    0x0004d46b      0x2a5 ../demo_board_NiosIIf_bsp//libhal_bsp.a(alt_busy_sleep.o)
 .debug_line    0x0004d710      0x200 /package/eda/altera/altera13.0sp1/nios2eds/bin/gnu/H-i686-pc-linux-gnu/bin/../lib/gcc/nios2-elf/4.1.2/../../../../nios2-elf/lib/libc.a(lib_a-atexit.o)
 .debug_line    0x0004d910      0x29f /package/eda/altera/altera13.0sp1/nios2eds/bin/gnu/H-i686-pc-linux-gnu/bin/../lib/gcc/nios2-elf/4.1.2/../../../../nios2-elf/lib/libc.a(lib_a-memcmp.o)
 .debug_line    0x0004dbaf      0x313 /package/eda/altera/altera13.0sp1/nios2eds/bin/gnu/H-i686-pc-linux-gnu/bin/../lib/gcc/nios2-elf/4.1.2/../../../../nios2-elf/lib/libc.a(lib_a-__atexit.o)
 .debug_line    0x0004dec2      0x156 /package/eda/altera/altera13.0sp1/nios2eds/bin/gnu/H-i686-pc-linux-gnu/bin/../lib/gcc/nios2-elf/4.1.2/libgcc.a(_floatundidf.o)

.debug_frame    0x00000000     0x4ca4
 *(.debug_frame)
 .debug_frame   0x00000000       0x40 obj/default/cdjpeg.o
 .debug_frame   0x00000040       0xd0 obj/default/djpeg.o
 .debug_frame   0x00000110       0xb0 obj/default/jcapimin.o
 .debug_frame   0x000001c0       0x68 obj/default/jcapistd.o
 .debug_frame   0x00000228       0xc8 obj/default/jccoefct.o
 .debug_frame   0x000002f0       0xec obj/default/jccolor.o
 .debug_frame   0x000003dc       0xb4 obj/default/jcdctmgr.o
 .debug_frame   0x00000490      0x13c obj/default/jchuff.o
 .debug_frame   0x000005cc       0x2c obj/default/jcinit.o
 .debug_frame   0x000005f8       0x68 obj/default/jcmainct.o
 .debug_frame   0x00000660      0x13c obj/default/jcmarker.o
 .debug_frame   0x0000079c       0xb4 obj/default/jcmaster.o
 .debug_frame   0x00000850       0x74 obj/default/jcomapi.o
 .debug_frame   0x000008c4       0xfc obj/default/jcparam.o
 .debug_frame   0x000009c0      0x184 obj/default/jcphuff.o
 .debug_frame   0x00000b44       0xac obj/default/jcprepct.o
 .debug_frame   0x00000bf0      0x134 obj/default/jcsample.o
 .debug_frame   0x00000d24       0x9c obj/default/jctrans.o
 .debug_frame   0x00000dc0       0xdc obj/default/jdapimin.o
 .debug_frame   0x00000e9c       0xb4 obj/default/jdapistd.o
 .debug_frame   0x00000f50       0x88 obj/default/jdatadst.o
 .debug_frame   0x00000fd8       0x94 obj/default/jdatasrc.o
 .debug_frame   0x0000106c      0x11c obj/default/jdcoefct.o
 .debug_frame   0x00001188       0xd0 obj/default/jdcolor.o
 .debug_frame   0x00001258       0x5c obj/default/jddctmgr.o
 .debug_frame   0x000012b4       0xec obj/default/jdhuff.o
 .debug_frame   0x000013a0       0x9c obj/default/jdinput.o
 .debug_frame   0x0000143c       0xd0 obj/default/jdmainct.o
 .debug_frame   0x0000150c      0x160 obj/default/jdmarker.o
 .debug_frame   0x0000166c       0x9c obj/default/jdmaster.o
 .debug_frame   0x00001708       0xc8 obj/default/jdmerge.o
 .debug_frame   0x000017d0       0xf4 obj/default/jdphuff.o
 .debug_frame   0x000018c4       0xac obj/default/jdpostct.o
 .debug_frame   0x00001970      0x12c obj/default/jdsample.o
 .debug_frame   0x00001a9c       0x28 obj/default/jdtrans.o
 .debug_frame   0x00001ac4       0x90 obj/default/jerror.o
 .debug_frame   0x00001b54       0x3c obj/default/jfdctflt.o
 .debug_frame   0x00001b90       0x28 obj/default/jfdctfst.o
 .debug_frame   0x00001bb8       0x34 obj/default/jfdctint.o
 .debug_frame   0x00001bec       0x3c obj/default/jidctflt.o
 .debug_frame   0x00001c28       0x38 obj/default/jidctfst.o
 .debug_frame   0x00001c60       0x3c obj/default/jidctint.o
 .debug_frame   0x00001c9c       0x68 obj/default/jidctred.o
 .debug_frame   0x00001d04      0x1cc obj/default/jmemmgr.o
 .debug_frame   0x00001ed0       0x90 obj/default/jmemnobs.o
 .debug_frame   0x00001f60      0x168 obj/default/jquant1.o
 .debug_frame   0x000020c8      0x150 obj/default/jquant2.o
 .debug_frame   0x00002218       0x80 obj/default/jutils.o
 .debug_frame   0x00002298       0x5c obj/default/rdcolmap.o
 .debug_frame   0x000022f4       0xcc obj/default/wrbmp.o
 .debug_frame   0x000023c0       0xb0 obj/default/wrgif.o
 .debug_frame   0x00002470       0x98 obj/default/wrppm.o
 .debug_frame   0x00002508       0xa0 obj/default/wrtarga.o
 .debug_frame   0x000025a8       0x58 /package/eda/altera/altera13.0sp1/nios2eds/bin/gnu/H-i686-pc-linux-gnu/bin/../lib/gcc/nios2-elf/4.1.2/libgcc.a(_addsub_sf.o)
 .debug_frame   0x00002600       0x2c /package/eda/altera/altera13.0sp1/nios2eds/bin/gnu/H-i686-pc-linux-gnu/bin/../lib/gcc/nios2-elf/4.1.2/libgcc.a(_mul_sf.o)
 .debug_frame   0x0000262c       0x28 /package/eda/altera/altera13.0sp1/nios2eds/bin/gnu/H-i686-pc-linux-gnu/bin/../lib/gcc/nios2-elf/4.1.2/libgcc.a(_si_to_sf.o)
 .debug_frame   0x00002654       0x28 /package/eda/altera/altera13.0sp1/nios2eds/bin/gnu/H-i686-pc-linux-gnu/bin/../lib/gcc/nios2-elf/4.1.2/libgcc.a(_sf_to_si.o)
 .debug_frame   0x0000267c       0x3c /package/eda/altera/altera13.0sp1/nios2eds/bin/gnu/H-i686-pc-linux-gnu/bin/../lib/gcc/nios2-elf/4.1.2/libgcc.a(_mul_df.o)
 .debug_frame   0x000026b8       0x30 /package/eda/altera/altera13.0sp1/nios2eds/bin/gnu/H-i686-pc-linux-gnu/bin/../lib/gcc/nios2-elf/4.1.2/libgcc.a(_div_df.o)
 .debug_frame   0x000026e8       0x28 /package/eda/altera/altera13.0sp1/nios2eds/bin/gnu/H-i686-pc-linux-gnu/bin/../lib/gcc/nios2-elf/4.1.2/libgcc.a(_df_to_sf.o)
 .debug_frame   0x00002710       0x38 /package/eda/altera/altera13.0sp1/nios2eds/bin/gnu/H-i686-pc-linux-gnu/bin/../lib/gcc/nios2-elf/4.1.2/libgcc.a(_usi_to_df.o)
 .debug_frame   0x00002748       0x70 /package/eda/altera/altera13.0sp1/nios2eds/bin/gnu/H-i686-pc-linux-gnu/bin/../lib/gcc/nios2-elf/4.1.2/libgcc.a(lib2-divmod.o)
 .debug_frame   0x000027b8       0x2c /package/eda/altera/altera13.0sp1/nios2eds/bin/gnu/H-i686-pc-linux-gnu/bin/../lib/gcc/nios2-elf/4.1.2/libgcc.a(_muldi3.o)
 .debug_frame   0x000027e4       0x20 /package/eda/altera/altera13.0sp1/nios2eds/bin/gnu/H-i686-pc-linux-gnu/bin/../lib/gcc/nios2-elf/4.1.2/libgcc.a(_clzsi2.o)
 .debug_frame   0x00002804       0x20 /package/eda/altera/altera13.0sp1/nios2eds/bin/gnu/H-i686-pc-linux-gnu/bin/../lib/gcc/nios2-elf/4.1.2/libgcc.a(_pack_sf.o)
 .debug_frame   0x00002824       0x20 /package/eda/altera/altera13.0sp1/nios2eds/bin/gnu/H-i686-pc-linux-gnu/bin/../lib/gcc/nios2-elf/4.1.2/libgcc.a(_unpack_sf.o)
 .debug_frame   0x00002844       0x28 /package/eda/altera/altera13.0sp1/nios2eds/bin/gnu/H-i686-pc-linux-gnu/bin/../lib/gcc/nios2-elf/4.1.2/libgcc.a(_make_sf.o)
 .debug_frame   0x0000286c       0x2c /package/eda/altera/altera13.0sp1/nios2eds/bin/gnu/H-i686-pc-linux-gnu/bin/../lib/gcc/nios2-elf/4.1.2/libgcc.a(_pack_df.o)
 .debug_frame   0x00002898       0x20 /package/eda/altera/altera13.0sp1/nios2eds/bin/gnu/H-i686-pc-linux-gnu/bin/../lib/gcc/nios2-elf/4.1.2/libgcc.a(_unpack_df.o)
 .debug_frame   0x000028b8       0x28 /package/eda/altera/altera13.0sp1/nios2eds/bin/gnu/H-i686-pc-linux-gnu/bin/../lib/gcc/nios2-elf/4.1.2/../../../../nios2-elf/lib/libc.a(lib_a-exit.o)
 .debug_frame   0x000028e0       0x3c /package/eda/altera/altera13.0sp1/nios2eds/bin/gnu/H-i686-pc-linux-gnu/bin/../lib/gcc/nios2-elf/4.1.2/../../../../nios2-elf/lib/libc.a(lib_a-fclose.o)
 .debug_frame   0x0000291c       0x40 /package/eda/altera/altera13.0sp1/nios2eds/bin/gnu/H-i686-pc-linux-gnu/bin/../lib/gcc/nios2-elf/4.1.2/../../../../nios2-elf/lib/libc.a(lib_a-fflush.o)
 .debug_frame   0x0000295c      0x118 /package/eda/altera/altera13.0sp1/nios2eds/bin/gnu/H-i686-pc-linux-gnu/bin/../lib/gcc/nios2-elf/4.1.2/../../../../nios2-elf/lib/libc.a(lib_a-findfp.o)
 .debug_frame   0x00002a74       0x40 /package/eda/altera/altera13.0sp1/nios2eds/bin/gnu/H-i686-pc-linux-gnu/bin/../lib/gcc/nios2-elf/4.1.2/../../../../nios2-elf/lib/libc.a(lib_a-fopen.o)
 .debug_frame   0x00002ab4       0x40 /package/eda/altera/altera13.0sp1/nios2eds/bin/gnu/H-i686-pc-linux-gnu/bin/../lib/gcc/nios2-elf/4.1.2/../../../../nios2-elf/lib/libc.a(lib_a-fprintf.o)
 .debug_frame   0x00002af4       0x4c /package/eda/altera/altera13.0sp1/nios2eds/bin/gnu/H-i686-pc-linux-gnu/bin/../lib/gcc/nios2-elf/4.1.2/../../../../nios2-elf/lib/libc.a(lib_a-fputc.o)
 .debug_frame   0x00002b40       0x54 /package/eda/altera/altera13.0sp1/nios2eds/bin/gnu/H-i686-pc-linux-gnu/bin/../lib/gcc/nios2-elf/4.1.2/../../../../nios2-elf/lib/libc.a(lib_a-fread.o)
 .debug_frame   0x00002b94       0x4c /package/eda/altera/altera13.0sp1/nios2eds/bin/gnu/H-i686-pc-linux-gnu/bin/../lib/gcc/nios2-elf/4.1.2/../../../../nios2-elf/lib/libc.a(lib_a-freer.o)
 .debug_frame   0x00002be0       0x48 /package/eda/altera/altera13.0sp1/nios2eds/bin/gnu/H-i686-pc-linux-gnu/bin/../lib/gcc/nios2-elf/4.1.2/../../../../nios2-elf/lib/libc.a(lib_a-fseek.o)
 .debug_frame   0x00002c28       0x2c /package/eda/altera/altera13.0sp1/nios2eds/bin/gnu/H-i686-pc-linux-gnu/bin/../lib/gcc/nios2-elf/4.1.2/../../../../nios2-elf/lib/libc.a(lib_a-fstatr.o)
 .debug_frame   0x00002c54       0x60 /package/eda/altera/altera13.0sp1/nios2eds/bin/gnu/H-i686-pc-linux-gnu/bin/../lib/gcc/nios2-elf/4.1.2/../../../../nios2-elf/lib/libc.a(lib_a-fwalk.o)
 .debug_frame   0x00002cb4       0x48 /package/eda/altera/altera13.0sp1/nios2eds/bin/gnu/H-i686-pc-linux-gnu/bin/../lib/gcc/nios2-elf/4.1.2/../../../../nios2-elf/lib/libc.a(lib_a-fwrite.o)
 .debug_frame   0x00002cfc       0x48 /package/eda/altera/altera13.0sp1/nios2eds/bin/gnu/H-i686-pc-linux-gnu/bin/../lib/gcc/nios2-elf/4.1.2/../../../../nios2-elf/lib/libc.a(lib_a-getc.o)
 .debug_frame   0x00002d44       0x38 /package/eda/altera/altera13.0sp1/nios2eds/bin/gnu/H-i686-pc-linux-gnu/bin/../lib/gcc/nios2-elf/4.1.2/../../../../nios2-elf/lib/libc.a(lib_a-getenv.o)
 .debug_frame   0x00002d7c       0x50 /package/eda/altera/altera13.0sp1/nios2eds/bin/gnu/H-i686-pc-linux-gnu/bin/../lib/gcc/nios2-elf/4.1.2/../../../../nios2-elf/lib/libc.a(lib_a-getenv_r.o)
 .debug_frame   0x00002dcc       0x2c /package/eda/altera/altera13.0sp1/nios2eds/bin/gnu/H-i686-pc-linux-gnu/bin/../lib/gcc/nios2-elf/4.1.2/../../../../nios2-elf/lib/libc.a(lib_a-makebuf.o)
 .debug_frame   0x00002df8       0x30 /package/eda/altera/altera13.0sp1/nios2eds/bin/gnu/H-i686-pc-linux-gnu/bin/../lib/gcc/nios2-elf/4.1.2/../../../../nios2-elf/lib/libc.a(lib_a-malloc.o)
 .debug_frame   0x00002e28       0x38 /package/eda/altera/altera13.0sp1/nios2eds/bin/gnu/H-i686-pc-linux-gnu/bin/../lib/gcc/nios2-elf/4.1.2/../../../../nios2-elf/lib/libc.a(lib_a-mallocr.o)
 .debug_frame   0x00002e60       0x20 /package/eda/altera/altera13.0sp1/nios2eds/bin/gnu/H-i686-pc-linux-gnu/bin/../lib/gcc/nios2-elf/4.1.2/../../../../nios2-elf/lib/libc.a(lib_a-memcpy.o)
 .debug_frame   0x00002e80       0x20 /package/eda/altera/altera13.0sp1/nios2eds/bin/gnu/H-i686-pc-linux-gnu/bin/../lib/gcc/nios2-elf/4.1.2/../../../../nios2-elf/lib/libc.a(lib_a-memset.o)
 .debug_frame   0x00002ea0       0x2c /package/eda/altera/altera13.0sp1/nios2eds/bin/gnu/H-i686-pc-linux-gnu/bin/../lib/gcc/nios2-elf/4.1.2/../../../../nios2-elf/lib/libc.a(lib_a-openr.o)
 .debug_frame   0x00002ecc       0x40 /package/eda/altera/altera13.0sp1/nios2eds/bin/gnu/H-i686-pc-linux-gnu/bin/../lib/gcc/nios2-elf/4.1.2/../../../../nios2-elf/lib/libc.a(lib_a-printf.o)
 .debug_frame   0x00002f0c       0x4c /package/eda/altera/altera13.0sp1/nios2eds/bin/gnu/H-i686-pc-linux-gnu/bin/../lib/gcc/nios2-elf/4.1.2/../../../../nios2-elf/lib/libc.a(lib_a-putc.o)
 .debug_frame   0x00002f58       0x3c /package/eda/altera/altera13.0sp1/nios2eds/bin/gnu/H-i686-pc-linux-gnu/bin/../lib/gcc/nios2-elf/4.1.2/../../../../nios2-elf/lib/libc.a(lib_a-puts.o)
 .debug_frame   0x00002f94       0x3c /package/eda/altera/altera13.0sp1/nios2eds/bin/gnu/H-i686-pc-linux-gnu/bin/../lib/gcc/nios2-elf/4.1.2/../../../../nios2-elf/lib/libc.a(lib_a-refill.o)
 .debug_frame   0x00002fd0       0x38 /package/eda/altera/altera13.0sp1/nios2eds/bin/gnu/H-i686-pc-linux-gnu/bin/../lib/gcc/nios2-elf/4.1.2/../../../../nios2-elf/lib/libc.a(lib_a-rget.o)
 .debug_frame   0x00003008       0x2c /package/eda/altera/altera13.0sp1/nios2eds/bin/gnu/H-i686-pc-linux-gnu/bin/../lib/gcc/nios2-elf/4.1.2/../../../../nios2-elf/lib/libc.a(lib_a-sbrkr.o)
 .debug_frame   0x00003034       0x40 /package/eda/altera/altera13.0sp1/nios2eds/bin/gnu/H-i686-pc-linux-gnu/bin/../lib/gcc/nios2-elf/4.1.2/../../../../nios2-elf/lib/libc.a(lib_a-sprintf.o)
 .debug_frame   0x00003074       0x54 /package/eda/altera/altera13.0sp1/nios2eds/bin/gnu/H-i686-pc-linux-gnu/bin/../lib/gcc/nios2-elf/4.1.2/../../../../nios2-elf/lib/libc.a(lib_a-sscanf.o)
 .debug_frame   0x000030c8       0x78 /package/eda/altera/altera13.0sp1/nios2eds/bin/gnu/H-i686-pc-linux-gnu/bin/../lib/gcc/nios2-elf/4.1.2/../../../../nios2-elf/lib/libc.a(lib_a-stdio.o)
 .debug_frame   0x00003140       0x20 /package/eda/altera/altera13.0sp1/nios2eds/bin/gnu/H-i686-pc-linux-gnu/bin/../lib/gcc/nios2-elf/4.1.2/../../../../nios2-elf/lib/libc.a(lib_a-strdup.o)
 .debug_frame   0x00003160       0x30 /package/eda/altera/altera13.0sp1/nios2eds/bin/gnu/H-i686-pc-linux-gnu/bin/../lib/gcc/nios2-elf/4.1.2/../../../../nios2-elf/lib/libc.a(lib_a-strdup_r.o)
 .debug_frame   0x00003190       0x20 /package/eda/altera/altera13.0sp1/nios2eds/bin/gnu/H-i686-pc-linux-gnu/bin/../lib/gcc/nios2-elf/4.1.2/../../../../nios2-elf/lib/libc.a(lib_a-strlen.o)
 .debug_frame   0x000031b0       0x20 /package/eda/altera/altera13.0sp1/nios2eds/bin/gnu/H-i686-pc-linux-gnu/bin/../lib/gcc/nios2-elf/4.1.2/../../../../nios2-elf/lib/libc.a(lib_a-strncmp.o)
 .debug_frame   0x000031d0       0x64 /package/eda/altera/altera13.0sp1/nios2eds/bin/gnu/H-i686-pc-linux-gnu/bin/../lib/gcc/nios2-elf/4.1.2/../../../../nios2-elf/lib/libc.a(lib_a-vfprintf.o)
 .debug_frame   0x00003234       0x8c /package/eda/altera/altera13.0sp1/nios2eds/bin/gnu/H-i686-pc-linux-gnu/bin/../lib/gcc/nios2-elf/4.1.2/../../../../nios2-elf/lib/libc.a(lib_a-vfscanf.o)
 .debug_frame   0x000032c0       0x3c /package/eda/altera/altera13.0sp1/nios2eds/bin/gnu/H-i686-pc-linux-gnu/bin/../lib/gcc/nios2-elf/4.1.2/../../../../nios2-elf/lib/libc.a(lib_a-wbuf.o)
 .debug_frame   0x000032fc       0x2c /package/eda/altera/altera13.0sp1/nios2eds/bin/gnu/H-i686-pc-linux-gnu/bin/../lib/gcc/nios2-elf/4.1.2/../../../../nios2-elf/lib/libc.a(lib_a-writer.o)
 .debug_frame   0x00003328       0x2c /package/eda/altera/altera13.0sp1/nios2eds/bin/gnu/H-i686-pc-linux-gnu/bin/../lib/gcc/nios2-elf/4.1.2/../../../../nios2-elf/lib/libc.a(lib_a-wsetup.o)
 .debug_frame   0x00003354       0x4c /package/eda/altera/altera13.0sp1/nios2eds/bin/gnu/H-i686-pc-linux-gnu/bin/../lib/gcc/nios2-elf/4.1.2/../../../../nios2-elf/lib/libc.a(lib_a-__call_atexit.o)
 .debug_frame   0x000033a0       0x2c /package/eda/altera/altera13.0sp1/nios2eds/bin/gnu/H-i686-pc-linux-gnu/bin/../lib/gcc/nios2-elf/4.1.2/../../../../nios2-elf/lib/libc.a(lib_a-closer.o)
 .debug_frame   0x000033cc       0x64 /package/eda/altera/altera13.0sp1/nios2eds/bin/gnu/H-i686-pc-linux-gnu/bin/../lib/gcc/nios2-elf/4.1.2/../../../../nios2-elf/lib/libc.a(lib_a-dtoa.o)
 .debug_frame   0x00003430       0x20 /package/eda/altera/altera13.0sp1/nios2eds/bin/gnu/H-i686-pc-linux-gnu/bin/../lib/gcc/nios2-elf/4.1.2/../../../../nios2-elf/lib/libc.a(lib_a-flags.o)
 .debug_frame   0x00003450       0x38 /package/eda/altera/altera13.0sp1/nios2eds/bin/gnu/H-i686-pc-linux-gnu/bin/../lib/gcc/nios2-elf/4.1.2/../../../../nios2-elf/lib/libc.a(lib_a-fvwrite.o)
 .debug_frame   0x00003488       0x2c /package/eda/altera/altera13.0sp1/nios2eds/bin/gnu/H-i686-pc-linux-gnu/bin/../lib/gcc/nios2-elf/4.1.2/../../../../nios2-elf/lib/libc.a(lib_a-isattyr.o)
 .debug_frame   0x000034b4       0x20 /package/eda/altera/altera13.0sp1/nios2eds/bin/gnu/H-i686-pc-linux-gnu/bin/../lib/gcc/nios2-elf/4.1.2/../../../../nios2-elf/lib/libc.a(lib_a-iswspace.o)
 .debug_frame   0x000034d4       0x70 /package/eda/altera/altera13.0sp1/nios2eds/bin/gnu/H-i686-pc-linux-gnu/bin/../lib/gcc/nios2-elf/4.1.2/../../../../nios2-elf/lib/libc.a(lib_a-locale.o)
 .debug_frame   0x00003544       0x2c /package/eda/altera/altera13.0sp1/nios2eds/bin/gnu/H-i686-pc-linux-gnu/bin/../lib/gcc/nios2-elf/4.1.2/../../../../nios2-elf/lib/libc.a(lib_a-lseekr.o)
 .debug_frame   0x00003570       0x44 /package/eda/altera/altera13.0sp1/nios2eds/bin/gnu/H-i686-pc-linux-gnu/bin/../lib/gcc/nios2-elf/4.1.2/../../../../nios2-elf/lib/libc.a(lib_a-mbrtowc.o)
 .debug_frame   0x000035b4       0x24 /package/eda/altera/altera13.0sp1/nios2eds/bin/gnu/H-i686-pc-linux-gnu/bin/../lib/gcc/nios2-elf/4.1.2/../../../../nios2-elf/lib/libc.a(lib_a-mbtowc_r.o)
 .debug_frame   0x000035d8       0x20 /package/eda/altera/altera13.0sp1/nios2eds/bin/gnu/H-i686-pc-linux-gnu/bin/../lib/gcc/nios2-elf/4.1.2/../../../../nios2-elf/lib/libc.a(lib_a-memchr.o)
 .debug_frame   0x000035f8       0x20 /package/eda/altera/altera13.0sp1/nios2eds/bin/gnu/H-i686-pc-linux-gnu/bin/../lib/gcc/nios2-elf/4.1.2/../../../../nios2-elf/lib/libc.a(lib_a-memmove.o)
 .debug_frame   0x00003618      0x218 /package/eda/altera/altera13.0sp1/nios2eds/bin/gnu/H-i686-pc-linux-gnu/bin/../lib/gcc/nios2-elf/4.1.2/../../../../nios2-elf/lib/libc.a(lib_a-mprec.o)
 .debug_frame   0x00003830       0x2c /package/eda/altera/altera13.0sp1/nios2eds/bin/gnu/H-i686-pc-linux-gnu/bin/../lib/gcc/nios2-elf/4.1.2/../../../../nios2-elf/lib/libc.a(lib_a-readr.o)
 .debug_frame   0x0000385c       0x38 /package/eda/altera/altera13.0sp1/nios2eds/bin/gnu/H-i686-pc-linux-gnu/bin/../lib/gcc/nios2-elf/4.1.2/../../../../nios2-elf/lib/libc.a(lib_a-reallocr.o)
 .debug_frame   0x00003894       0x20 /package/eda/altera/altera13.0sp1/nios2eds/bin/gnu/H-i686-pc-linux-gnu/bin/../lib/gcc/nios2-elf/4.1.2/../../../../nios2-elf/lib/libc.a(lib_a-s_isinfd.o)
 .debug_frame   0x000038b4       0x20 /package/eda/altera/altera13.0sp1/nios2eds/bin/gnu/H-i686-pc-linux-gnu/bin/../lib/gcc/nios2-elf/4.1.2/../../../../nios2-elf/lib/libc.a(lib_a-s_isnand.o)
 .debug_frame   0x000038d4       0x20 /package/eda/altera/altera13.0sp1/nios2eds/bin/gnu/H-i686-pc-linux-gnu/bin/../lib/gcc/nios2-elf/4.1.2/../../../../nios2-elf/lib/libc.a(lib_a-sccl.o)
 .debug_frame   0x000038f4       0x20 /package/eda/altera/altera13.0sp1/nios2eds/bin/gnu/H-i686-pc-linux-gnu/bin/../lib/gcc/nios2-elf/4.1.2/../../../../nios2-elf/lib/libc.a(lib_a-sf_nan.o)
 .debug_frame   0x00003914       0x20 /package/eda/altera/altera13.0sp1/nios2eds/bin/gnu/H-i686-pc-linux-gnu/bin/../lib/gcc/nios2-elf/4.1.2/../../../../nios2-elf/lib/libc.a(lib_a-strcmp.o)
 .debug_frame   0x00003934       0x80 /package/eda/altera/altera13.0sp1/nios2eds/bin/gnu/H-i686-pc-linux-gnu/bin/../lib/gcc/nios2-elf/4.1.2/../../../../nios2-elf/lib/libc.a(lib_a-strtod.o)
 .debug_frame   0x000039b4       0x4c /package/eda/altera/altera13.0sp1/nios2eds/bin/gnu/H-i686-pc-linux-gnu/bin/../lib/gcc/nios2-elf/4.1.2/../../../../nios2-elf/lib/libc.a(lib_a-strtol.o)
 .debug_frame   0x00003a00       0x3c /package/eda/altera/altera13.0sp1/nios2eds/bin/gnu/H-i686-pc-linux-gnu/bin/../lib/gcc/nios2-elf/4.1.2/../../../../nios2-elf/lib/libc.a(lib_a-strtoll_r.o)
 .debug_frame   0x00003a3c       0x4c /package/eda/altera/altera13.0sp1/nios2eds/bin/gnu/H-i686-pc-linux-gnu/bin/../lib/gcc/nios2-elf/4.1.2/../../../../nios2-elf/lib/libc.a(lib_a-strtoul.o)
 .debug_frame   0x00003a88       0x3c /package/eda/altera/altera13.0sp1/nios2eds/bin/gnu/H-i686-pc-linux-gnu/bin/../lib/gcc/nios2-elf/4.1.2/../../../../nios2-elf/lib/libc.a(lib_a-strtoull_r.o)
 .debug_frame   0x00003ac4       0x60 /package/eda/altera/altera13.0sp1/nios2eds/bin/gnu/H-i686-pc-linux-gnu/bin/../lib/gcc/nios2-elf/4.1.2/../../../../nios2-elf/lib/libc.a(lib_a-ungetc.o)
 .debug_frame   0x00003b24       0x28 /package/eda/altera/altera13.0sp1/nios2eds/bin/gnu/H-i686-pc-linux-gnu/bin/../lib/gcc/nios2-elf/4.1.2/../../../../nios2-elf/lib/libc.a(lib_a-callocr.o)
 .debug_frame   0x00003b4c       0x74 /package/eda/altera/altera13.0sp1/nios2eds/bin/gnu/H-i686-pc-linux-gnu/bin/../lib/gcc/nios2-elf/4.1.2/../../../../nios2-elf/lib/libc.a(lib_a-gdtoa-gethex.o)
 .debug_frame   0x00003bc0       0x4c /package/eda/altera/altera13.0sp1/nios2eds/bin/gnu/H-i686-pc-linux-gnu/bin/../lib/gcc/nios2-elf/4.1.2/../../../../nios2-elf/lib/libc.a(lib_a-gdtoa-hexnan.o)
 .debug_frame   0x00003c0c       0x30 /package/eda/altera/altera13.0sp1/nios2eds/bin/gnu/H-i686-pc-linux-gnu/bin/../lib/gcc/nios2-elf/4.1.2/libgcc.a(_fixunsdfsi.o)
 .debug_frame   0x00003c3c       0x38 /package/eda/altera/altera13.0sp1/nios2eds/bin/gnu/H-i686-pc-linux-gnu/bin/../lib/gcc/nios2-elf/4.1.2/libgcc.a(_udivdi3.o)
 .debug_frame   0x00003c74       0x38 /package/eda/altera/altera13.0sp1/nios2eds/bin/gnu/H-i686-pc-linux-gnu/bin/../lib/gcc/nios2-elf/4.1.2/libgcc.a(_umoddi3.o)
 .debug_frame   0x00003cac       0x2c /package/eda/altera/altera13.0sp1/nios2eds/bin/gnu/H-i686-pc-linux-gnu/bin/../lib/gcc/nios2-elf/4.1.2/libgcc.a(_ne_sf.o)
 .debug_frame   0x00003cd8       0x2c /package/eda/altera/altera13.0sp1/nios2eds/bin/gnu/H-i686-pc-linux-gnu/bin/../lib/gcc/nios2-elf/4.1.2/libgcc.a(_gt_sf.o)
 .debug_frame   0x00003d04       0x2c /package/eda/altera/altera13.0sp1/nios2eds/bin/gnu/H-i686-pc-linux-gnu/bin/../lib/gcc/nios2-elf/4.1.2/libgcc.a(_lt_sf.o)
 .debug_frame   0x00003d30       0x70 /package/eda/altera/altera13.0sp1/nios2eds/bin/gnu/H-i686-pc-linux-gnu/bin/../lib/gcc/nios2-elf/4.1.2/libgcc.a(_addsub_df.o)
 .debug_frame   0x00003da0       0x2c /package/eda/altera/altera13.0sp1/nios2eds/bin/gnu/H-i686-pc-linux-gnu/bin/../lib/gcc/nios2-elf/4.1.2/libgcc.a(_eq_df.o)
 .debug_frame   0x00003dcc       0x2c /package/eda/altera/altera13.0sp1/nios2eds/bin/gnu/H-i686-pc-linux-gnu/bin/../lib/gcc/nios2-elf/4.1.2/libgcc.a(_ne_df.o)
 .debug_frame   0x00003df8       0x2c /package/eda/altera/altera13.0sp1/nios2eds/bin/gnu/H-i686-pc-linux-gnu/bin/../lib/gcc/nios2-elf/4.1.2/libgcc.a(_gt_df.o)
 .debug_frame   0x00003e24       0x2c /package/eda/altera/altera13.0sp1/nios2eds/bin/gnu/H-i686-pc-linux-gnu/bin/../lib/gcc/nios2-elf/4.1.2/libgcc.a(_ge_df.o)
 .debug_frame   0x00003e50       0x2c /package/eda/altera/altera13.0sp1/nios2eds/bin/gnu/H-i686-pc-linux-gnu/bin/../lib/gcc/nios2-elf/4.1.2/libgcc.a(_lt_df.o)
 .debug_frame   0x00003e7c       0x2c /package/eda/altera/altera13.0sp1/nios2eds/bin/gnu/H-i686-pc-linux-gnu/bin/../lib/gcc/nios2-elf/4.1.2/libgcc.a(_le_df.o)
 .debug_frame   0x00003ea8       0x30 /package/eda/altera/altera13.0sp1/nios2eds/bin/gnu/H-i686-pc-linux-gnu/bin/../lib/gcc/nios2-elf/4.1.2/libgcc.a(_si_to_df.o)
 .debug_frame   0x00003ed8       0x28 /package/eda/altera/altera13.0sp1/nios2eds/bin/gnu/H-i686-pc-linux-gnu/bin/../lib/gcc/nios2-elf/4.1.2/libgcc.a(_df_to_si.o)
 .debug_frame   0x00003f00       0x20 /package/eda/altera/altera13.0sp1/nios2eds/bin/gnu/H-i686-pc-linux-gnu/bin/../lib/gcc/nios2-elf/4.1.2/libgcc.a(_fpcmp_parts_sf.o)
 .debug_frame   0x00003f20       0x20 /package/eda/altera/altera13.0sp1/nios2eds/bin/gnu/H-i686-pc-linux-gnu/bin/../lib/gcc/nios2-elf/4.1.2/libgcc.a(_fpcmp_parts_df.o)
 .debug_frame   0x00003f40       0x2c ../demo_board_NiosIIf_bsp//libhal_bsp.a(alt_close.o)
 .debug_frame   0x00003f6c       0x20 ../demo_board_NiosIIf_bsp//libhal_bsp.a(alt_dcache_flush.o)
 .debug_frame   0x00003f8c       0x20 ../demo_board_NiosIIf_bsp//libhal_bsp.a(alt_dev.o)
 .debug_frame   0x00003fac       0x30 ../demo_board_NiosIIf_bsp//libhal_bsp.a(alt_env_lock.o)
 .debug_frame   0x00003fdc       0x20 ../demo_board_NiosIIf_bsp//libhal_bsp.a(alt_exit.o)
 .debug_frame   0x00003ffc       0x28 ../demo_board_NiosIIf_bsp//libhal_bsp.a(alt_fstat.o)
 .debug_frame   0x00004024       0x28 ../demo_board_NiosIIf_bsp//libhal_bsp.a(alt_isatty.o)
 .debug_frame   0x0000404c       0x28 ../demo_board_NiosIIf_bsp//libhal_bsp.a(alt_load.o)
 .debug_frame   0x00004074       0x28 ../demo_board_NiosIIf_bsp//libhal_bsp.a(alt_lseek.o)
 .debug_frame   0x0000409c       0x28 ../demo_board_NiosIIf_bsp//libhal_bsp.a(alt_main.o)
 .debug_frame   0x000040c4       0x30 ../demo_board_NiosIIf_bsp//libhal_bsp.a(alt_malloc_lock.o)
 .debug_frame   0x000040f4       0x34 ../demo_board_NiosIIf_bsp//libhal_bsp.a(alt_open.o)
 .debug_frame   0x00004128       0x28 ../demo_board_NiosIIf_bsp//libhal_bsp.a(alt_read.o)
 .debug_frame   0x00004150       0x20 ../demo_board_NiosIIf_bsp//libhal_bsp.a(alt_release_fd.o)
 .debug_frame   0x00004170       0x20 ../demo_board_NiosIIf_bsp//libhal_bsp.a(alt_sbrk.o)
 .debug_frame   0x00004190       0x28 ../demo_board_NiosIIf_bsp//libhal_bsp.a(alt_write.o)
 .debug_frame   0x000041b8       0x44 ../demo_board_NiosIIf_bsp//libhal_bsp.a(alt_sys_init.o)
 .debug_frame   0x000041fc       0xb8 ../demo_board_NiosIIf_bsp//libhal_bsp.a(altera_avalon_cfi_flash.o)
 .debug_frame   0x000042b4      0x148 ../demo_board_NiosIIf_bsp//libhal_bsp.a(altera_avalon_cfi_flash_table.o)
 .debug_frame   0x000043fc       0x50 ../demo_board_NiosIIf_bsp//libhal_bsp.a(altera_avalon_jtag_uart_fd.o)
 .debug_frame   0x0000444c       0x5c ../demo_board_NiosIIf_bsp//libhal_bsp.a(altera_avalon_jtag_uart_init.o)
 .debug_frame   0x000044a8       0x20 ../demo_board_NiosIIf_bsp//libhal_bsp.a(altera_avalon_jtag_uart_ioctl.o)
 .debug_frame   0x000044c8       0x38 ../demo_board_NiosIIf_bsp//libhal_bsp.a(altera_avalon_jtag_uart_read.o)
 .debug_frame   0x00004500       0x38 ../demo_board_NiosIIf_bsp//libhal_bsp.a(altera_avalon_jtag_uart_write.o)
 .debug_frame   0x00004538       0x60 ../demo_board_NiosIIf_bsp//libhal_bsp.a(altera_avalon_performance_counter.o)
 .debug_frame   0x00004598       0x40 ../demo_board_NiosIIf_bsp//libhal_bsp.a(altera_avalon_timer_sc.o)
 .debug_frame   0x000045d8       0xb4 ../demo_board_NiosIIf_bsp//libhal_bsp.a(altera_ro_zipfs.o)
 .debug_frame   0x0000468c       0xf4 ../demo_board_NiosIIf_bsp//libhal_bsp.a(altera_up_avalon_video_pixel_buffer_dma.o)
 .debug_frame   0x00004780       0x3c ../demo_board_NiosIIf_bsp//libhal_bsp.a(perf_print_formatted_report.o)
 .debug_frame   0x000047bc       0x20 ../demo_board_NiosIIf_bsp//libhal_bsp.a(alt_alarm_start.o)
 .debug_frame   0x000047dc       0x20 ../demo_board_NiosIIf_bsp//libhal_bsp.a(alt_dcache_flush_all.o)
 .debug_frame   0x000047fc       0x28 ../demo_board_NiosIIf_bsp//libhal_bsp.a(alt_dev_llist_insert.o)
 .debug_frame   0x00004824       0x2c ../demo_board_NiosIIf_bsp//libhal_bsp.a(alt_do_ctors.o)
 .debug_frame   0x00004850       0x2c ../demo_board_NiosIIf_bsp//libhal_bsp.a(alt_do_dtors.o)
 .debug_frame   0x0000487c       0x30 ../demo_board_NiosIIf_bsp//libhal_bsp.a(alt_find_dev.o)
 .debug_frame   0x000048ac       0x34 ../demo_board_NiosIIf_bsp//libhal_bsp.a(alt_find_file.o)
 .debug_frame   0x000048e0       0x38 ../demo_board_NiosIIf_bsp//libhal_bsp.a(alt_flash_dev.o)
 .debug_frame   0x00004918       0x20 ../demo_board_NiosIIf_bsp//libhal_bsp.a(alt_fs_reg.o)
 .debug_frame   0x00004938       0x20 ../demo_board_NiosIIf_bsp//libhal_bsp.a(alt_get_fd.o)
 .debug_frame   0x00004958       0x20 ../demo_board_NiosIIf_bsp//libhal_bsp.a(alt_icache_flush_all.o)
 .debug_frame   0x00004978       0x50 ../demo_board_NiosIIf_bsp//libhal_bsp.a(alt_iic.o)
 .debug_frame   0x000049c8       0x28 ../demo_board_NiosIIf_bsp//libhal_bsp.a(alt_iic_isr_register.o)
 .debug_frame   0x000049f0       0x2c ../demo_board_NiosIIf_bsp//libhal_bsp.a(alt_io_redirect.o)
 .debug_frame   0x00004a1c       0x28 ../demo_board_NiosIIf_bsp//libhal_bsp.a(alt_irq_handler.o)
 .debug_frame   0x00004a44       0x40 ../demo_board_NiosIIf_bsp//libhal_bsp.a(alt_tick.o)
 .debug_frame   0x00004a84       0x20 ../demo_board_NiosIIf_bsp//libhal_bsp.a(altera_nios2_qsys_irq.o)
 .debug_frame   0x00004aa4       0x60 ../demo_board_NiosIIf_bsp//libhal_bsp.a(altera_avalon_cfi_flash_amd.o)
 .debug_frame   0x00004b04       0x94 ../demo_board_NiosIIf_bsp//libhal_bsp.a(altera_avalon_cfi_flash_intel.o)
 .debug_frame   0x00004b98       0x20 ../demo_board_NiosIIf_bsp//libhal_bsp.a(alt_icache_flush.o)
 .debug_frame   0x00004bb8       0x20 ../demo_board_NiosIIf_bsp//libhal_bsp.a(alt_usleep.o)
 .debug_frame   0x00004bd8       0x28 ../demo_board_NiosIIf_bsp//libhal_bsp.a(alt_busy_sleep.o)
 .debug_frame   0x00004c00       0x20 /package/eda/altera/altera13.0sp1/nios2eds/bin/gnu/H-i686-pc-linux-gnu/bin/../lib/gcc/nios2-elf/4.1.2/../../../../nios2-elf/lib/libc.a(lib_a-atexit.o)
 .debug_frame   0x00004c20       0x20 /package/eda/altera/altera13.0sp1/nios2eds/bin/gnu/H-i686-pc-linux-gnu/bin/../lib/gcc/nios2-elf/4.1.2/../../../../nios2-elf/lib/libc.a(lib_a-memcmp.o)
 .debug_frame   0x00004c40       0x34 /package/eda/altera/altera13.0sp1/nios2eds/bin/gnu/H-i686-pc-linux-gnu/bin/../lib/gcc/nios2-elf/4.1.2/../../../../nios2-elf/lib/libc.a(lib_a-__atexit.o)
 .debug_frame   0x00004c74       0x30 /package/eda/altera/altera13.0sp1/nios2eds/bin/gnu/H-i686-pc-linux-gnu/bin/../lib/gcc/nios2-elf/4.1.2/libgcc.a(_floatundidf.o)

.debug_str      0x00000000     0x8ccb
 *(.debug_str)
 .debug_str     0x00000000      0x415 obj/default/cdjpeg.o
                                0x4ec (size before relaxing)
 .debug_str     0x00000415      0xee2 obj/default/djpeg.o
                               0x150b (size before relaxing)
 .debug_str     0x000012f7      0x388 obj/default/jcapimin.o
                                0xc00 (size before relaxing)
 .debug_str     0x0000167f       0x80 obj/default/jcapistd.o
                                0xbc1 (size before relaxing)
 .debug_str     0x000016ff      0x1c4 obj/default/jccoefct.o
                                0xcff (size before relaxing)
 .debug_str     0x000018c3      0x10d obj/default/jccolor.o
                                0xc58 (size before relaxing)
 .debug_str     0x000019d0      0x12c obj/default/jcdctmgr.o
                                0xca9 (size before relaxing)
 .debug_str     0x00001afc      0x20a obj/default/jchuff.o
                                0xdea (size before relaxing)
 .debug_str     0x00001d06       0x1f obj/default/jcinit.o
                                0xb49 (size before relaxing)
 .debug_str     0x00001d25       0xa8 obj/default/jcmainct.o
                                0xc06 (size before relaxing)
 .debug_str     0x00001dcd      0x22d obj/default/jcmarker.o
                                0xdae (size before relaxing)
 .debug_str     0x00001ffa      0x143 obj/default/jcmaster.o
                                0xca5 (size before relaxing)
 .debug_str     0x0000213d       0x4f obj/default/jcomapi.o
                                0x466 (size before relaxing)
 .debug_str     0x0000218c      0x1cc obj/default/jcparam.o
                                0xd2d (size before relaxing)
 .debug_str     0x00002358      0x12e obj/default/jcphuff.o
                                0xd89 (size before relaxing)
 .debug_str     0x00002486      0x14c obj/default/jcprepct.o
                                0xcdb (size before relaxing)
 .debug_str     0x000025d2      0x21b obj/default/jcsample.o
                                0xda8 (size before relaxing)
 .debug_str     0x000027ed       0xb8 obj/default/jctrans.o
                               0x1307 (size before relaxing)
 .debug_str     0x000028a5      0x122 obj/default/jdapimin.o
                                0xf50 (size before relaxing)
 .debug_str     0x000029c7       0x97 obj/default/jdapistd.o
                                0xef0 (size before relaxing)
 .debug_str     0x00002a5e       0x4c obj/default/jdatadst.o
                                0xf17 (size before relaxing)
 .debug_str     0x00002aaa       0x59 obj/default/jdatasrc.o
                               0x1215 (size before relaxing)
 .debug_str     0x00002b03      0x122 obj/default/jdcoefct.o
                               0x1060 (size before relaxing)
 .debug_str     0x00002c25      0x11e obj/default/jdcolor.o
                                0xfc2 (size before relaxing)
 .debug_str     0x00002d43       0x85 obj/default/jddctmgr.o
                                0xeea (size before relaxing)
 .debug_str     0x00002dc8      0x182 obj/default/jdhuff.o
                               0x1094 (size before relaxing)
 .debug_str     0x00002f4a       0x72 obj/default/jdinput.o
                                0xec6 (size before relaxing)
 .debug_str     0x00002fbc      0x138 obj/default/jdmainct.o
                                0xfe7 (size before relaxing)
 .debug_str     0x000030f4       0xe8 obj/default/jdmarker.o
                                0xf65 (size before relaxing)
 .debug_str     0x000031dc       0xd9 obj/default/jdmaster.o
                                0xf53 (size before relaxing)
 .debug_str     0x000032b5      0x126 obj/default/jdmerge.o
                               0x1017 (size before relaxing)
 .debug_str     0x000033db       0xef obj/default/jdphuff.o
                               0x10a1 (size before relaxing)
 .debug_str     0x000034ca       0xbe obj/default/jdpostct.o
                                0xf6e (size before relaxing)
 .debug_str     0x00003588      0x145 obj/default/jdsample.o
                               0x106e (size before relaxing)
 .debug_str     0x000036cd       0x3e obj/default/jdtrans.o
                                0xe68 (size before relaxing)
 .debug_str     0x0000370b       0x51 obj/default/jerror.o
                                0x7c8 (size before relaxing)
 .debug_str     0x0000375c       0x5b obj/default/jfdctflt.o
                                0x145 (size before relaxing)
 .debug_str     0x000037b7       0x1b obj/default/jfdctfst.o
                                0x14d (size before relaxing)
 .debug_str     0x000037d2       0x1b obj/default/jfdctint.o
                                0x153 (size before relaxing)
 .debug_str     0x000037ed       0x3b obj/default/jidctflt.o
                                0xeed (size before relaxing)
 .debug_str     0x00003828       0x1b obj/default/jidctfst.o
                                0xef5 (size before relaxing)
 .debug_str     0x00003843       0x1b obj/default/jidctint.o
                                0xedf (size before relaxing)
 .debug_str     0x0000385e       0x35 obj/default/jidctred.o
                                0xee3 (size before relaxing)
 .debug_str     0x00003893      0x34a obj/default/jmemmgr.o
                                0xb51 (size before relaxing)
 .debug_str     0x00003bdd       0xd7 obj/default/jmemnobs.o
                                0x8cf (size before relaxing)
 .debug_str     0x00003cb4      0x2d1 obj/default/jquant1.o
                               0x117a (size before relaxing)
 .debug_str     0x00003f85      0x34e obj/default/jquant2.o
                               0x12bc (size before relaxing)
 .debug_str     0x000042d3       0x8d obj/default/jutils.o
                                0x201 (size before relaxing)
 .debug_str     0x00004360       0x6f obj/default/rdcolmap.o
                               0x125e (size before relaxing)
 .debug_str     0x000043cf      0x1b8 obj/default/wrbmp.o
                               0x1418 (size before relaxing)
 .debug_str     0x00004587      0x1ad obj/default/wrgif.o
                               0x1419 (size before relaxing)
 .debug_str     0x00004734      0x119 obj/default/wrppm.o
                               0x1383 (size before relaxing)
 .debug_str     0x0000484d        0x8 obj/default/wrrle.o
                                 0xdf (size before relaxing)
 .debug_str     0x00004855       0x75 obj/default/wrtarga.o
                               0x1310 (size before relaxing)
 .debug_str     0x000048ca      0x1b6 /package/eda/altera/altera13.0sp1/nios2eds/bin/gnu/H-i686-pc-linux-gnu/bin/../lib/gcc/nios2-elf/4.1.2/libgcc.a(_addsub_sf.o)
                                0x26e (size before relaxing)
 .debug_str     0x00004a80       0x2a /package/eda/altera/altera13.0sp1/nios2eds/bin/gnu/H-i686-pc-linux-gnu/bin/../lib/gcc/nios2-elf/4.1.2/libgcc.a(_mul_sf.o)
                                0x225 (size before relaxing)
 .debug_str     0x00004aaa       0x18 /package/eda/altera/altera13.0sp1/nios2eds/bin/gnu/H-i686-pc-linux-gnu/bin/../lib/gcc/nios2-elf/4.1.2/libgcc.a(_si_to_sf.o)
                                0x1e3 (size before relaxing)
 .debug_str     0x00004ac2        0xa /package/eda/altera/altera13.0sp1/nios2eds/bin/gnu/H-i686-pc-linux-gnu/bin/../lib/gcc/nios2-elf/4.1.2/libgcc.a(_sf_to_si.o)
                                0x206 (size before relaxing)
 .debug_str     0x00000000      0x1a8 /package/eda/altera/altera13.0sp1/nios2eds/bin/gnu/H-i686-pc-linux-gnu/bin/../lib/gcc/nios2-elf/4.1.2/libgcc.a(_thenan_sf.o)
 .debug_str     0x00004acc       0x55 /package/eda/altera/altera13.0sp1/nios2eds/bin/gnu/H-i686-pc-linux-gnu/bin/../lib/gcc/nios2-elf/4.1.2/libgcc.a(_mul_df.o)
                                0x246 (size before relaxing)
 .debug_str     0x00004b21       0x35 /package/eda/altera/altera13.0sp1/nios2eds/bin/gnu/H-i686-pc-linux-gnu/bin/../lib/gcc/nios2-elf/4.1.2/libgcc.a(_div_df.o)
                                0x236 (size before relaxing)
 .debug_str     0x00004b56       0x14 /package/eda/altera/altera13.0sp1/nios2eds/bin/gnu/H-i686-pc-linux-gnu/bin/../lib/gcc/nios2-elf/4.1.2/libgcc.a(_df_to_sf.o)
                                0x203 (size before relaxing)
 .debug_str     0x00000000      0x1a8 /package/eda/altera/altera13.0sp1/nios2eds/bin/gnu/H-i686-pc-linux-gnu/bin/../lib/gcc/nios2-elf/4.1.2/libgcc.a(_thenan_df.o)
 .debug_str     0x00004b6a       0x14 /package/eda/altera/altera13.0sp1/nios2eds/bin/gnu/H-i686-pc-linux-gnu/bin/../lib/gcc/nios2-elf/4.1.2/libgcc.a(_usi_to_df.o)
                                0x1df (size before relaxing)
 .debug_str     0x00004b7e       0x93 /package/eda/altera/altera13.0sp1/nios2eds/bin/gnu/H-i686-pc-linux-gnu/bin/../lib/gcc/nios2-elf/4.1.2/libgcc.a(lib2-divmod.o)
                                0x1b9 (size before relaxing)
 .debug_str     0x00004c11       0x4a /package/eda/altera/altera13.0sp1/nios2eds/bin/gnu/H-i686-pc-linux-gnu/bin/../lib/gcc/nios2-elf/4.1.2/libgcc.a(lib2-divtable.o)
                                0x14c (size before relaxing)
 .debug_str     0x00004c5b       0x62 /package/eda/altera/altera13.0sp1/nios2eds/bin/gnu/H-i686-pc-linux-gnu/bin/../lib/gcc/nios2-elf/4.1.2/libgcc.a(_muldi3.o)
                                0x1b1 (size before relaxing)
 .debug_str     0x00004cbd       0x18 /package/eda/altera/altera13.0sp1/nios2eds/bin/gnu/H-i686-pc-linux-gnu/bin/../lib/gcc/nios2-elf/4.1.2/libgcc.a(_clzsi2.o)
                                0x183 (size before relaxing)
 .debug_str     0x00004cd5       0x10 /package/eda/altera/altera13.0sp1/nios2eds/bin/gnu/H-i686-pc-linux-gnu/bin/../lib/gcc/nios2-elf/4.1.2/libgcc.a(_pack_sf.o)
                                0x205 (size before relaxing)
 .debug_str     0x00004ce5        0xb /package/eda/altera/altera13.0sp1/nios2eds/bin/gnu/H-i686-pc-linux-gnu/bin/../lib/gcc/nios2-elf/4.1.2/libgcc.a(_unpack_sf.o)
                                0x1e7 (size before relaxing)
 .debug_str     0x00004cf0        0xa /package/eda/altera/altera13.0sp1/nios2eds/bin/gnu/H-i686-pc-linux-gnu/bin/../lib/gcc/nios2-elf/4.1.2/libgcc.a(_make_sf.o)
                                0x1be (size before relaxing)
 .debug_str     0x00004cfa        0x9 /package/eda/altera/altera13.0sp1/nios2eds/bin/gnu/H-i686-pc-linux-gnu/bin/../lib/gcc/nios2-elf/4.1.2/libgcc.a(_pack_df.o)
                                0x20b (size before relaxing)
 .debug_str     0x00004d03        0xb /package/eda/altera/altera13.0sp1/nios2eds/bin/gnu/H-i686-pc-linux-gnu/bin/../lib/gcc/nios2-elf/4.1.2/libgcc.a(_unpack_df.o)
                                0x1ed (size before relaxing)
 .debug_str     0x00000000      0x166 /package/eda/altera/altera13.0sp1/nios2eds/bin/gnu/H-i686-pc-linux-gnu/bin/../lib/gcc/nios2-elf/4.1.2/libgcc.a(_clz.o)
 .debug_str     0x00004d0e       0xdb /package/eda/altera/altera13.0sp1/nios2eds/bin/gnu/H-i686-pc-linux-gnu/bin/../lib/gcc/nios2-elf/4.1.2/../../../../nios2-elf/lib/libc.a(lib_a-ctype_.o)
                                0x10a (size before relaxing)
 .debug_str     0x00004de9       0xdd /package/eda/altera/altera13.0sp1/nios2eds/bin/gnu/H-i686-pc-linux-gnu/bin/../lib/gcc/nios2-elf/4.1.2/../../../../nios2-elf/lib/libc.a(lib_a-exit.o)
                                0x511 (size before relaxing)
 .debug_str     0x00004ec6       0xdb /package/eda/altera/altera13.0sp1/nios2eds/bin/gnu/H-i686-pc-linux-gnu/bin/../lib/gcc/nios2-elf/4.1.2/../../../../nios2-elf/lib/libc.a(lib_a-fclose.o)
                                0x51b (size before relaxing)
 .debug_str     0x00004fa1       0x52 /package/eda/altera/altera13.0sp1/nios2eds/bin/gnu/H-i686-pc-linux-gnu/bin/../lib/gcc/nios2-elf/4.1.2/../../../../nios2-elf/lib/libc.a(lib_a-fflush.o)
                                0x537 (size before relaxing)
 .debug_str     0x00004ff3       0xfc /package/eda/altera/altera13.0sp1/nios2eds/bin/gnu/H-i686-pc-linux-gnu/bin/../lib/gcc/nios2-elf/4.1.2/../../../../nios2-elf/lib/libc.a(lib_a-findfp.o)
                                0x5f9 (size before relaxing)
 .debug_str     0x000050ef       0x4f /package/eda/altera/altera13.0sp1/nios2eds/bin/gnu/H-i686-pc-linux-gnu/bin/../lib/gcc/nios2-elf/4.1.2/../../../../nios2-elf/lib/libc.a(lib_a-fopen.o)
                                0x52a (size before relaxing)
 .debug_str     0x0000513e       0x5d /package/eda/altera/altera13.0sp1/nios2eds/bin/gnu/H-i686-pc-linux-gnu/bin/../lib/gcc/nios2-elf/4.1.2/../../../../nios2-elf/lib/libc.a(lib_a-fprintf.o)
                                0x524 (size before relaxing)
 .debug_str     0x0000519b       0x48 /package/eda/altera/altera13.0sp1/nios2eds/bin/gnu/H-i686-pc-linux-gnu/bin/../lib/gcc/nios2-elf/4.1.2/../../../../nios2-elf/lib/libc.a(lib_a-fputc.o)
                                0x51f (size before relaxing)
 .debug_str     0x000051e3       0x64 /package/eda/altera/altera13.0sp1/nios2eds/bin/gnu/H-i686-pc-linux-gnu/bin/../lib/gcc/nios2-elf/4.1.2/../../../../nios2-elf/lib/libc.a(lib_a-fread.o)
                                0x553 (size before relaxing)
 .debug_str     0x00005247      0x15b /package/eda/altera/altera13.0sp1/nios2eds/bin/gnu/H-i686-pc-linux-gnu/bin/../lib/gcc/nios2-elf/4.1.2/../../../../nios2-elf/lib/libc.a(lib_a-freer.o)
                                0x648 (size before relaxing)
 .debug_str     0x000053a2      0x133 /package/eda/altera/altera13.0sp1/nios2eds/bin/gnu/H-i686-pc-linux-gnu/bin/../lib/gcc/nios2-elf/4.1.2/../../../../nios2-elf/lib/libc.a(lib_a-fseek.o)
                                0x637 (size before relaxing)
 .debug_str     0x000054d5       0xd9 /package/eda/altera/altera13.0sp1/nios2eds/bin/gnu/H-i686-pc-linux-gnu/bin/../lib/gcc/nios2-elf/4.1.2/../../../../nios2-elf/lib/libc.a(lib_a-fstatr.o)
                                0x5f6 (size before relaxing)
 .debug_str     0x000055ae       0x5e /package/eda/altera/altera13.0sp1/nios2eds/bin/gnu/H-i686-pc-linux-gnu/bin/../lib/gcc/nios2-elf/4.1.2/../../../../nios2-elf/lib/libc.a(lib_a-fwalk.o)
                                0x53a (size before relaxing)
 .debug_str     0x0000560c       0x87 /package/eda/altera/altera13.0sp1/nios2eds/bin/gnu/H-i686-pc-linux-gnu/bin/../lib/gcc/nios2-elf/4.1.2/../../../../nios2-elf/lib/libc.a(lib_a-fwrite.o)
                                0x564 (size before relaxing)
 .debug_str     0x00005693       0x40 /package/eda/altera/altera13.0sp1/nios2eds/bin/gnu/H-i686-pc-linux-gnu/bin/../lib/gcc/nios2-elf/4.1.2/../../../../nios2-elf/lib/libc.a(lib_a-getc.o)
                                0x517 (size before relaxing)
 .debug_str     0x000056d3       0x4b /package/eda/altera/altera13.0sp1/nios2eds/bin/gnu/H-i686-pc-linux-gnu/bin/../lib/gcc/nios2-elf/4.1.2/../../../../nios2-elf/lib/libc.a(lib_a-getenv.o)
                                0x51e (size before relaxing)
 .debug_str     0x0000571e       0x5c /package/eda/altera/altera13.0sp1/nios2eds/bin/gnu/H-i686-pc-linux-gnu/bin/../lib/gcc/nios2-elf/4.1.2/../../../../nios2-elf/lib/libc.a(lib_a-getenv_r.o)
                                0x535 (size before relaxing)
 .debug_str     0x0000577a       0x46 /package/eda/altera/altera13.0sp1/nios2eds/bin/gnu/H-i686-pc-linux-gnu/bin/../lib/gcc/nios2-elf/4.1.2/../../../../nios2-elf/lib/libc.a(lib_a-impure.o)
                                0x51f (size before relaxing)
 .debug_str     0x000057c0       0x3d /package/eda/altera/altera13.0sp1/nios2eds/bin/gnu/H-i686-pc-linux-gnu/bin/../lib/gcc/nios2-elf/4.1.2/../../../../nios2-elf/lib/libc.a(lib_a-int_errno.o)
                                0x168 (size before relaxing)
 .debug_str     0x000057fd       0x53 /package/eda/altera/altera13.0sp1/nios2eds/bin/gnu/H-i686-pc-linux-gnu/bin/../lib/gcc/nios2-elf/4.1.2/../../../../nios2-elf/lib/libc.a(lib_a-makebuf.o)
                                0x60b (size before relaxing)
 .debug_str     0x00005850       0x3b /package/eda/altera/altera13.0sp1/nios2eds/bin/gnu/H-i686-pc-linux-gnu/bin/../lib/gcc/nios2-elf/4.1.2/../../../../nios2-elf/lib/libc.a(lib_a-malloc.o)
                                0x521 (size before relaxing)
 .debug_str     0x0000588b       0xe3 /package/eda/altera/altera13.0sp1/nios2eds/bin/gnu/H-i686-pc-linux-gnu/bin/../lib/gcc/nios2-elf/4.1.2/../../../../nios2-elf/lib/libc.a(lib_a-mallocr.o)
                                0x6f6 (size before relaxing)
 .debug_str     0x0000596e       0xfa /package/eda/altera/altera13.0sp1/nios2eds/bin/gnu/H-i686-pc-linux-gnu/bin/../lib/gcc/nios2-elf/4.1.2/../../../../nios2-elf/lib/libc.a(lib_a-memcpy.o)
                                0x12d (size before relaxing)
 .debug_str     0x00005a68       0x4f /package/eda/altera/altera13.0sp1/nios2eds/bin/gnu/H-i686-pc-linux-gnu/bin/../lib/gcc/nios2-elf/4.1.2/../../../../nios2-elf/lib/libc.a(lib_a-memset.o)
                                0x183 (size before relaxing)
 .debug_str     0x00005ab7       0x41 /package/eda/altera/altera13.0sp1/nios2eds/bin/gnu/H-i686-pc-linux-gnu/bin/../lib/gcc/nios2-elf/4.1.2/../../../../nios2-elf/lib/libc.a(lib_a-openr.o)
                                0x511 (size before relaxing)
 .debug_str     0x00005af8       0x44 /package/eda/altera/altera13.0sp1/nios2eds/bin/gnu/H-i686-pc-linux-gnu/bin/../lib/gcc/nios2-elf/4.1.2/../../../../nios2-elf/lib/libc.a(lib_a-printf.o)
                                0x528 (size before relaxing)
 .debug_str     0x00005b3c       0x40 /package/eda/altera/altera13.0sp1/nios2eds/bin/gnu/H-i686-pc-linux-gnu/bin/../lib/gcc/nios2-elf/4.1.2/../../../../nios2-elf/lib/libc.a(lib_a-putc.o)
                                0x517 (size before relaxing)
 .debug_str     0x00005b7c       0x45 /package/eda/altera/altera13.0sp1/nios2eds/bin/gnu/H-i686-pc-linux-gnu/bin/../lib/gcc/nios2-elf/4.1.2/../../../../nios2-elf/lib/libc.a(lib_a-puts.o)
                                0x54e (size before relaxing)
 .debug_str     0x00005bc1       0x4d /package/eda/altera/altera13.0sp1/nios2eds/bin/gnu/H-i686-pc-linux-gnu/bin/../lib/gcc/nios2-elf/4.1.2/../../../../nios2-elf/lib/libc.a(lib_a-refill.o)
                                0x51f (size before relaxing)
 .debug_str     0x00005c0e       0x4a /package/eda/altera/altera13.0sp1/nios2eds/bin/gnu/H-i686-pc-linux-gnu/bin/../lib/gcc/nios2-elf/4.1.2/../../../../nios2-elf/lib/libc.a(lib_a-rget.o)
                                0x515 (size before relaxing)
 .debug_str     0x00005c58       0x50 /package/eda/altera/altera13.0sp1/nios2eds/bin/gnu/H-i686-pc-linux-gnu/bin/../lib/gcc/nios2-elf/4.1.2/../../../../nios2-elf/lib/libc.a(lib_a-sbrkr.o)
                                0x510 (size before relaxing)
 .debug_str     0x00005ca8       0x4e /package/eda/altera/altera13.0sp1/nios2eds/bin/gnu/H-i686-pc-linux-gnu/bin/../lib/gcc/nios2-elf/4.1.2/../../../../nios2-elf/lib/libc.a(lib_a-sprintf.o)
                                0x530 (size before relaxing)
 .debug_str     0x00005cf6       0x53 /package/eda/altera/altera13.0sp1/nios2eds/bin/gnu/H-i686-pc-linux-gnu/bin/../lib/gcc/nios2-elf/4.1.2/../../../../nios2-elf/lib/libc.a(lib_a-sscanf.o)
                                0x53c (size before relaxing)
 .debug_str     0x00005d49       0x5b /package/eda/altera/altera13.0sp1/nios2eds/bin/gnu/H-i686-pc-linux-gnu/bin/../lib/gcc/nios2-elf/4.1.2/../../../../nios2-elf/lib/libc.a(lib_a-stdio.o)
                                0x536 (size before relaxing)
 .debug_str     0x00005da4       0x42 /package/eda/altera/altera13.0sp1/nios2eds/bin/gnu/H-i686-pc-linux-gnu/bin/../lib/gcc/nios2-elf/4.1.2/../../../../nios2-elf/lib/libc.a(lib_a-strdup.o)
                                0x509 (size before relaxing)
 .debug_str     0x00005de6       0x47 /package/eda/altera/altera13.0sp1/nios2eds/bin/gnu/H-i686-pc-linux-gnu/bin/../lib/gcc/nios2-elf/4.1.2/../../../../nios2-elf/lib/libc.a(lib_a-strdup_r.o)
                                0x518 (size before relaxing)
 .debug_str     0x00005e2d       0x42 /package/eda/altera/altera13.0sp1/nios2eds/bin/gnu/H-i686-pc-linux-gnu/bin/../lib/gcc/nios2-elf/4.1.2/../../../../nios2-elf/lib/libc.a(lib_a-strlen.o)
                                0x182 (size before relaxing)
 .debug_str     0x00005e6f       0x44 /package/eda/altera/altera13.0sp1/nios2eds/bin/gnu/H-i686-pc-linux-gnu/bin/../lib/gcc/nios2-elf/4.1.2/../../../../nios2-elf/lib/libc.a(lib_a-strncmp.o)
                                0x171 (size before relaxing)
 .debug_str     0x00005eb3      0x15a /package/eda/altera/altera13.0sp1/nios2eds/bin/gnu/H-i686-pc-linux-gnu/bin/../lib/gcc/nios2-elf/4.1.2/../../../../nios2-elf/lib/libc.a(lib_a-vfprintf.o)
                                0x6fd (size before relaxing)
 .debug_str     0x0000600d      0x138 /package/eda/altera/altera13.0sp1/nios2eds/bin/gnu/H-i686-pc-linux-gnu/bin/../lib/gcc/nios2-elf/4.1.2/../../../../nios2-elf/lib/libc.a(lib_a-vfscanf.o)
                                0x696 (size before relaxing)
 .debug_str     0x00006145       0x4a /package/eda/altera/altera13.0sp1/nios2eds/bin/gnu/H-i686-pc-linux-gnu/bin/../lib/gcc/nios2-elf/4.1.2/../../../../nios2-elf/lib/libc.a(lib_a-wbuf.o)
                                0x515 (size before relaxing)
 .debug_str     0x0000618f       0x4c /package/eda/altera/altera13.0sp1/nios2eds/bin/gnu/H-i686-pc-linux-gnu/bin/../lib/gcc/nios2-elf/4.1.2/../../../../nios2-elf/lib/libc.a(lib_a-writer.o)
                                0x513 (size before relaxing)
 .debug_str     0x000061db       0x46 /package/eda/altera/altera13.0sp1/nios2eds/bin/gnu/H-i686-pc-linux-gnu/bin/../lib/gcc/nios2-elf/4.1.2/../../../../nios2-elf/lib/libc.a(lib_a-wsetup.o)
                                0x511 (size before relaxing)
 .debug_str     0x00006221       0x6d /package/eda/altera/altera13.0sp1/nios2eds/bin/gnu/H-i686-pc-linux-gnu/bin/../lib/gcc/nios2-elf/4.1.2/../../../../nios2-elf/lib/libc.a(lib_a-__call_atexit.o)
                                0x553 (size before relaxing)
 .debug_str     0x0000628e       0x43 /package/eda/altera/altera13.0sp1/nios2eds/bin/gnu/H-i686-pc-linux-gnu/bin/../lib/gcc/nios2-elf/4.1.2/../../../../nios2-elf/lib/libc.a(lib_a-closer.o)
                                0x503 (size before relaxing)
 .debug_str     0x000062d1       0xf6 /package/eda/altera/altera13.0sp1/nios2eds/bin/gnu/H-i686-pc-linux-gnu/bin/../lib/gcc/nios2-elf/4.1.2/../../../../nios2-elf/lib/libc.a(lib_a-dtoa.o)
                                0x606 (size before relaxing)
 .debug_str     0x000063c7       0x48 /package/eda/altera/altera13.0sp1/nios2eds/bin/gnu/H-i686-pc-linux-gnu/bin/../lib/gcc/nios2-elf/4.1.2/../../../../nios2-elf/lib/libc.a(lib_a-environ.o)
                                0x104 (size before relaxing)
 .debug_str     0x0000640f       0x47 /package/eda/altera/altera13.0sp1/nios2eds/bin/gnu/H-i686-pc-linux-gnu/bin/../lib/gcc/nios2-elf/4.1.2/../../../../nios2-elf/lib/libc.a(lib_a-flags.o)
                                0x506 (size before relaxing)
 .debug_str     0x00006456       0x66 /package/eda/altera/altera13.0sp1/nios2eds/bin/gnu/H-i686-pc-linux-gnu/bin/../lib/gcc/nios2-elf/4.1.2/../../../../nios2-elf/lib/libc.a(lib_a-fvwrite.o)
                                0x568 (size before relaxing)
 .debug_str     0x000064bc       0x45 /package/eda/altera/altera13.0sp1/nios2eds/bin/gnu/H-i686-pc-linux-gnu/bin/../lib/gcc/nios2-elf/4.1.2/../../../../nios2-elf/lib/libc.a(lib_a-isattyr.o)
                                0x505 (size before relaxing)
 .debug_str     0x00006501       0x58 /package/eda/altera/altera13.0sp1/nios2eds/bin/gnu/H-i686-pc-linux-gnu/bin/../lib/gcc/nios2-elf/4.1.2/../../../../nios2-elf/lib/libc.a(lib_a-iswspace.o)
                                0x190 (size before relaxing)
 .debug_str     0x00006559      0x212 /package/eda/altera/altera13.0sp1/nios2eds/bin/gnu/H-i686-pc-linux-gnu/bin/../lib/gcc/nios2-elf/4.1.2/../../../../nios2-elf/lib/libc.a(lib_a-locale.o)
                                0x6ae (size before relaxing)
 .debug_str     0x0000676b       0x43 /package/eda/altera/altera13.0sp1/nios2eds/bin/gnu/H-i686-pc-linux-gnu/bin/../lib/gcc/nios2-elf/4.1.2/../../../../nios2-elf/lib/libc.a(lib_a-lseekr.o)
                                0x511 (size before relaxing)
 .debug_str     0x000067ae       0x56 /package/eda/altera/altera13.0sp1/nios2eds/bin/gnu/H-i686-pc-linux-gnu/bin/../lib/gcc/nios2-elf/4.1.2/../../../../nios2-elf/lib/libc.a(lib_a-mbrtowc.o)
                                0x536 (size before relaxing)
 .debug_str     0x00006804       0x47 /package/eda/altera/altera13.0sp1/nios2eds/bin/gnu/H-i686-pc-linux-gnu/bin/../lib/gcc/nios2-elf/4.1.2/../../../../nios2-elf/lib/libc.a(lib_a-mbtowc_r.o)
                                0x527 (size before relaxing)
 .debug_str     0x0000684b       0x4b /package/eda/altera/altera13.0sp1/nios2eds/bin/gnu/H-i686-pc-linux-gnu/bin/../lib/gcc/nios2-elf/4.1.2/../../../../nios2-elf/lib/libc.a(lib_a-memchr.o)
                                0x190 (size before relaxing)
 .debug_str     0x00006896       0x4d /package/eda/altera/altera13.0sp1/nios2eds/bin/gnu/H-i686-pc-linux-gnu/bin/../lib/gcc/nios2-elf/4.1.2/../../../../nios2-elf/lib/libc.a(lib_a-memmove.o)
                                0x1a2 (size before relaxing)
 .debug_str     0x000068e3       0xf8 /package/eda/altera/altera13.0sp1/nios2eds/bin/gnu/H-i686-pc-linux-gnu/bin/../lib/gcc/nios2-elf/4.1.2/../../../../nios2-elf/lib/libc.a(lib_a-mprec.o)
                                0x613 (size before relaxing)
 .debug_str     0x000069db       0x41 /package/eda/altera/altera13.0sp1/nios2eds/bin/gnu/H-i686-pc-linux-gnu/bin/../lib/gcc/nios2-elf/4.1.2/../../../../nios2-elf/lib/libc.a(lib_a-readr.o)
                                0x511 (size before relaxing)
 .debug_str     0x00006a1c       0x59 /package/eda/altera/altera13.0sp1/nios2eds/bin/gnu/H-i686-pc-linux-gnu/bin/../lib/gcc/nios2-elf/4.1.2/../../../../nios2-elf/lib/libc.a(lib_a-reallocr.o)
                                0x5c8 (size before relaxing)
 .debug_str     0x00006a75       0xe1 /package/eda/altera/altera13.0sp1/nios2eds/bin/gnu/H-i686-pc-linux-gnu/bin/../lib/gcc/nios2-elf/4.1.2/../../../../nios2-elf/lib/libc.a(lib_a-s_isinfd.o)
                                0x18f (size before relaxing)
 .debug_str     0x00006b56       0x46 /package/eda/altera/altera13.0sp1/nios2eds/bin/gnu/H-i686-pc-linux-gnu/bin/../lib/gcc/nios2-elf/4.1.2/../../../../nios2-elf/lib/libc.a(lib_a-s_isnand.o)
                                0x18f (size before relaxing)
 .debug_str     0x00006b9c       0x4f /package/eda/altera/altera13.0sp1/nios2eds/bin/gnu/H-i686-pc-linux-gnu/bin/../lib/gcc/nios2-elf/4.1.2/../../../../nios2-elf/lib/libc.a(lib_a-sccl.o)
                                0x174 (size before relaxing)
 .debug_str     0x00006beb       0x40 /package/eda/altera/altera13.0sp1/nios2eds/bin/gnu/H-i686-pc-linux-gnu/bin/../lib/gcc/nios2-elf/4.1.2/../../../../nios2-elf/lib/libc.a(lib_a-sf_nan.o)
                                0x186 (size before relaxing)
 .debug_str     0x00006c2b       0x42 /package/eda/altera/altera13.0sp1/nios2eds/bin/gnu/H-i686-pc-linux-gnu/bin/../lib/gcc/nios2-elf/4.1.2/../../../../nios2-elf/lib/libc.a(lib_a-strcmp.o)
                                0x168 (size before relaxing)
 .debug_str     0x00006c6d       0xe2 /package/eda/altera/altera13.0sp1/nios2eds/bin/gnu/H-i686-pc-linux-gnu/bin/../lib/gcc/nios2-elf/4.1.2/../../../../nios2-elf/lib/libc.a(lib_a-strtod.o)
                                0x626 (size before relaxing)
 .debug_str     0x00006d4f       0x61 /package/eda/altera/altera13.0sp1/nios2eds/bin/gnu/H-i686-pc-linux-gnu/bin/../lib/gcc/nios2-elf/4.1.2/../../../../nios2-elf/lib/libc.a(lib_a-strtol.o)
                                0x543 (size before relaxing)
 .debug_str     0x00006db0       0x49 /package/eda/altera/altera13.0sp1/nios2eds/bin/gnu/H-i686-pc-linux-gnu/bin/../lib/gcc/nios2-elf/4.1.2/../../../../nios2-elf/lib/libc.a(lib_a-strtoll_r.o)
                                0x534 (size before relaxing)
 .debug_str     0x00006df9       0x4f /package/eda/altera/altera13.0sp1/nios2eds/bin/gnu/H-i686-pc-linux-gnu/bin/../lib/gcc/nios2-elf/4.1.2/../../../../nios2-elf/lib/libc.a(lib_a-strtoul.o)
                                0x546 (size before relaxing)
 .debug_str     0x00006e48       0x4b /package/eda/altera/altera13.0sp1/nios2eds/bin/gnu/H-i686-pc-linux-gnu/bin/../lib/gcc/nios2-elf/4.1.2/../../../../nios2-elf/lib/libc.a(lib_a-strtoull_r.o)
                                0x536 (size before relaxing)
 .debug_str     0x00006e93       0x55 /package/eda/altera/altera13.0sp1/nios2eds/bin/gnu/H-i686-pc-linux-gnu/bin/../lib/gcc/nios2-elf/4.1.2/../../../../nios2-elf/lib/libc.a(lib_a-ungetc.o)
                                0x525 (size before relaxing)
 .debug_str     0x00006ee8       0x19 /package/eda/altera/altera13.0sp1/nios2eds/bin/gnu/H-i686-pc-linux-gnu/bin/../lib/gcc/nios2-elf/4.1.2/../../../../nios2-elf/lib/libc.a(lib_a-callocr.o)
                                0x547 (size before relaxing)
 .debug_str     0x00006f01       0x9e /package/eda/altera/altera13.0sp1/nios2eds/bin/gnu/H-i686-pc-linux-gnu/bin/../lib/gcc/nios2-elf/4.1.2/../../../../nios2-elf/lib/libc.a(lib_a-gdtoa-gethex.o)
                                0x5c1 (size before relaxing)
 .debug_str     0x00006f9f       0x52 /package/eda/altera/altera13.0sp1/nios2eds/bin/gnu/H-i686-pc-linux-gnu/bin/../lib/gcc/nios2-elf/4.1.2/../../../../nios2-elf/lib/libc.a(lib_a-gdtoa-hexnan.o)
                                0x1d4 (size before relaxing)
 .debug_str     0x00006ff1        0xd /package/eda/altera/altera13.0sp1/nios2eds/bin/gnu/H-i686-pc-linux-gnu/bin/../lib/gcc/nios2-elf/4.1.2/libgcc.a(_fixunsdfsi.o)
                                0x170 (size before relaxing)
 .debug_str     0x00006ffe       0x35 /package/eda/altera/altera13.0sp1/nios2eds/bin/gnu/H-i686-pc-linux-gnu/bin/../lib/gcc/nios2-elf/4.1.2/libgcc.a(_udivdi3.o)
                                0x1fc (size before relaxing)
 .debug_str     0x00007033        0xa /package/eda/altera/altera13.0sp1/nios2eds/bin/gnu/H-i686-pc-linux-gnu/bin/../lib/gcc/nios2-elf/4.1.2/libgcc.a(_umoddi3.o)
                                0x1fc (size before relaxing)
 .debug_str     0x0000703d        0x8 /package/eda/altera/altera13.0sp1/nios2eds/bin/gnu/H-i686-pc-linux-gnu/bin/../lib/gcc/nios2-elf/4.1.2/libgcc.a(_ne_sf.o)
                                0x1fd (size before relaxing)
 .debug_str     0x00007045        0x8 /package/eda/altera/altera13.0sp1/nios2eds/bin/gnu/H-i686-pc-linux-gnu/bin/../lib/gcc/nios2-elf/4.1.2/libgcc.a(_gt_sf.o)
                                0x1fd (size before relaxing)
 .debug_str     0x0000704d        0x8 /package/eda/altera/altera13.0sp1/nios2eds/bin/gnu/H-i686-pc-linux-gnu/bin/../lib/gcc/nios2-elf/4.1.2/libgcc.a(_lt_sf.o)
                                0x1fd (size before relaxing)
 .debug_str     0x00007055       0x12 /package/eda/altera/altera13.0sp1/nios2eds/bin/gnu/H-i686-pc-linux-gnu/bin/../lib/gcc/nios2-elf/4.1.2/libgcc.a(_addsub_df.o)
                                0x274 (size before relaxing)
 .debug_str     0x00007067        0x8 /package/eda/altera/altera13.0sp1/nios2eds/bin/gnu/H-i686-pc-linux-gnu/bin/../lib/gcc/nios2-elf/4.1.2/libgcc.a(_eq_df.o)
                                0x203 (size before relaxing)
 .debug_str     0x0000706f        0x8 /package/eda/altera/altera13.0sp1/nios2eds/bin/gnu/H-i686-pc-linux-gnu/bin/../lib/gcc/nios2-elf/4.1.2/libgcc.a(_ne_df.o)
                                0x203 (size before relaxing)
 .debug_str     0x00007077        0x8 /package/eda/altera/altera13.0sp1/nios2eds/bin/gnu/H-i686-pc-linux-gnu/bin/../lib/gcc/nios2-elf/4.1.2/libgcc.a(_gt_df.o)
                                0x203 (size before relaxing)
 .debug_str     0x0000707f        0x8 /package/eda/altera/altera13.0sp1/nios2eds/bin/gnu/H-i686-pc-linux-gnu/bin/../lib/gcc/nios2-elf/4.1.2/libgcc.a(_ge_df.o)
                                0x203 (size before relaxing)
 .debug_str     0x00007087        0x8 /package/eda/altera/altera13.0sp1/nios2eds/bin/gnu/H-i686-pc-linux-gnu/bin/../lib/gcc/nios2-elf/4.1.2/libgcc.a(_lt_df.o)
                                0x203 (size before relaxing)
 .debug_str     0x0000708f        0x8 /package/eda/altera/altera13.0sp1/nios2eds/bin/gnu/H-i686-pc-linux-gnu/bin/../lib/gcc/nios2-elf/4.1.2/libgcc.a(_le_df.o)
                                0x203 (size before relaxing)
 .debug_str     0x00007097        0xc /package/eda/altera/altera13.0sp1/nios2eds/bin/gnu/H-i686-pc-linux-gnu/bin/../lib/gcc/nios2-elf/4.1.2/libgcc.a(_si_to_df.o)
                                0x1e3 (size before relaxing)
 .debug_str     0x000070a3        0xa /package/eda/altera/altera13.0sp1/nios2eds/bin/gnu/H-i686-pc-linux-gnu/bin/../lib/gcc/nios2-elf/4.1.2/libgcc.a(_df_to_si.o)
                                0x20c (size before relaxing)
 .debug_str     0x000070ad       0x10 /package/eda/altera/altera13.0sp1/nios2eds/bin/gnu/H-i686-pc-linux-gnu/bin/../lib/gcc/nios2-elf/4.1.2/libgcc.a(_fpcmp_parts_sf.o)
                                0x1cb (size before relaxing)
 .debug_str     0x000070bd       0x10 /package/eda/altera/altera13.0sp1/nios2eds/bin/gnu/H-i686-pc-linux-gnu/bin/../lib/gcc/nios2-elf/4.1.2/libgcc.a(_fpcmp_parts_df.o)
                                0x1cb (size before relaxing)
 .debug_str     0x000070cd       0x7e ../demo_board_NiosIIf_bsp//libhal_bsp.a(alt_close.o)
                                0x1be (size before relaxing)
 .debug_str     0x0000714b       0x34 ../demo_board_NiosIIf_bsp//libhal_bsp.a(alt_dcache_flush.o)
                                0x10e (size before relaxing)
 .debug_str     0x0000717f       0x50 ../demo_board_NiosIIf_bsp//libhal_bsp.a(alt_dev.o)
                                0x2b8 (size before relaxing)
 .debug_str     0x000071cf       0x2f ../demo_board_NiosIIf_bsp//libhal_bsp.a(alt_env_lock.o)
                                0x498 (size before relaxing)
 .debug_str     0x000071fe       0x14 ../demo_board_NiosIIf_bsp//libhal_bsp.a(alt_errno.o)
                                 0xf8 (size before relaxing)
 .debug_str     0x00007212       0x2a ../demo_board_NiosIIf_bsp//libhal_bsp.a(alt_exit.o)
                                0x104 (size before relaxing)
 .debug_str     0x0000723c       0x14 ../demo_board_NiosIIf_bsp//libhal_bsp.a(alt_fstat.o)
                                0x29f (size before relaxing)
 .debug_str     0x00007250       0x1c ../demo_board_NiosIIf_bsp//libhal_bsp.a(alt_isatty.o)
                                0x2a7 (size before relaxing)
 .debug_str     0x0000726c       0xe9 ../demo_board_NiosIIf_bsp//libhal_bsp.a(alt_load.o)
                                0x1c5 (size before relaxing)
 .debug_str     0x00007355       0x14 ../demo_board_NiosIIf_bsp//libhal_bsp.a(alt_lseek.o)
                                0x1c4 (size before relaxing)
 .debug_str     0x00007369       0x44 ../demo_board_NiosIIf_bsp//libhal_bsp.a(alt_main.o)
                                0x150 (size before relaxing)
 .debug_str     0x000073ad       0x38 ../demo_board_NiosIIf_bsp//libhal_bsp.a(alt_malloc_lock.o)
                                0x4a1 (size before relaxing)
 .debug_str     0x000073e5       0x29 ../demo_board_NiosIIf_bsp//libhal_bsp.a(alt_open.o)
                                0x1fe (size before relaxing)
 .debug_str     0x0000740e       0x13 ../demo_board_NiosIIf_bsp//libhal_bsp.a(alt_read.o)
                                0x2aa (size before relaxing)
 .debug_str     0x00007421       0x28 ../demo_board_NiosIIf_bsp//libhal_bsp.a(alt_release_fd.o)
                                0x19b (size before relaxing)
 .debug_str     0x00007449       0x9d ../demo_board_NiosIIf_bsp//libhal_bsp.a(alt_sbrk.o)
                                0x187 (size before relaxing)
 .debug_str     0x000074e6       0x14 ../demo_board_NiosIIf_bsp//libhal_bsp.a(alt_write.o)
                                0x2ab (size before relaxing)
 .debug_str     0x000074fa      0x3c6 ../demo_board_NiosIIf_bsp//libhal_bsp.a(alt_sys_init.o)
                                0x66a (size before relaxing)
 .debug_str     0x000078c0      0x1a8 ../demo_board_NiosIIf_bsp//libhal_bsp.a(altera_avalon_cfi_flash.o)
                                0x4e2 (size before relaxing)
 .debug_str     0x00007a68      0x2c5 ../demo_board_NiosIIf_bsp//libhal_bsp.a(altera_avalon_cfi_flash_table.o)
                                0x608 (size before relaxing)
 .debug_str     0x00007d2d       0xac ../demo_board_NiosIIf_bsp//libhal_bsp.a(altera_avalon_jtag_uart_fd.o)
                                0x357 (size before relaxing)
 .debug_str     0x00007dd9       0xc9 ../demo_board_NiosIIf_bsp//libhal_bsp.a(altera_avalon_jtag_uart_init.o)
                                0x2eb (size before relaxing)
 .debug_str     0x00007ea2       0x4a ../demo_board_NiosIIf_bsp//libhal_bsp.a(altera_avalon_jtag_uart_ioctl.o)
                                0x246 (size before relaxing)
 .debug_str     0x00007eec       0x48 ../demo_board_NiosIIf_bsp//libhal_bsp.a(altera_avalon_jtag_uart_read.o)
                                0x29b (size before relaxing)
 .debug_str     0x00007f34       0x4a ../demo_board_NiosIIf_bsp//libhal_bsp.a(altera_avalon_jtag_uart_write.o)
                                0x29c (size before relaxing)
 .debug_str     0x00007f7e       0xc6 ../demo_board_NiosIIf_bsp//libhal_bsp.a(altera_avalon_performance_counter.o)
                                0x197 (size before relaxing)
 .debug_str     0x00008044       0x6d ../demo_board_NiosIIf_bsp//libhal_bsp.a(altera_avalon_timer_sc.o)
                                0x1f7 (size before relaxing)
 .debug_str     0x000080b1      0x1aa ../demo_board_NiosIIf_bsp//libhal_bsp.a(altera_ro_zipfs.o)
                                0x4f0 (size before relaxing)
 .debug_str     0x0000825b      0x278 ../demo_board_NiosIIf_bsp//libhal_bsp.a(altera_up_avalon_video_pixel_buffer_dma.o)
                                0x4c4 (size before relaxing)
 .debug_str     0x000084d3       0xcf ../demo_board_NiosIIf_bsp//libhal_bsp.a(perf_print_formatted_report.o)
                                0x1d1 (size before relaxing)
 .debug_str     0x000085a2       0x59 ../demo_board_NiosIIf_bsp//libhal_bsp.a(alt_alarm_start.o)
                                0x231 (size before relaxing)
 .debug_str     0x000085fb       0x34 ../demo_board_NiosIIf_bsp//libhal_bsp.a(alt_dcache_flush_all.o)
                                0x108 (size before relaxing)
 .debug_str     0x0000862f       0x42 ../demo_board_NiosIIf_bsp//libhal_bsp.a(alt_dev_llist_insert.o)
                                0x17f (size before relaxing)
 .debug_str     0x00008671       0x48 ../demo_board_NiosIIf_bsp//libhal_bsp.a(alt_do_ctors.o)
                                 0x98 (size before relaxing)
 .debug_str     0x000086b9       0x4c ../demo_board_NiosIIf_bsp//libhal_bsp.a(alt_do_dtors.o)
                                 0x97 (size before relaxing)
 .debug_str     0x00008705       0x24 ../demo_board_NiosIIf_bsp//libhal_bsp.a(alt_find_dev.o)
                                0x19f (size before relaxing)
 .debug_str     0x00008729       0x26 ../demo_board_NiosIIf_bsp//libhal_bsp.a(alt_find_file.o)
                                0x1ad (size before relaxing)
 .debug_str     0x0000874f       0x3f ../demo_board_NiosIIf_bsp//libhal_bsp.a(alt_flash_dev.o)
                                0x2a2 (size before relaxing)
 .debug_str     0x0000878e       0x20 ../demo_board_NiosIIf_bsp//libhal_bsp.a(alt_fs_reg.o)
                                0x1bc (size before relaxing)
 .debug_str     0x000087ae       0x30 ../demo_board_NiosIIf_bsp//libhal_bsp.a(alt_get_fd.o)
                                0x1cf (size before relaxing)
 .debug_str     0x000087de       0x34 ../demo_board_NiosIIf_bsp//libhal_bsp.a(alt_icache_flush_all.o)
                                0x108 (size before relaxing)
 .debug_str     0x00008812       0xbd ../demo_board_NiosIIf_bsp//libhal_bsp.a(alt_iic.o)
                                0x1f1 (size before relaxing)
 .debug_str     0x000088cf       0x4c ../demo_board_NiosIIf_bsp//libhal_bsp.a(alt_iic_isr_register.o)
                                0x19b (size before relaxing)
 .debug_str     0x0000891b       0x56 ../demo_board_NiosIIf_bsp//libhal_bsp.a(alt_io_redirect.o)
                                0x2c9 (size before relaxing)
 .debug_str     0x00008971       0x3a ../demo_board_NiosIIf_bsp//libhal_bsp.a(alt_irq_handler.o)
                                0x14a (size before relaxing)
 .debug_str     0x000089ab       0x17 ../demo_board_NiosIIf_bsp//libhal_bsp.a(alt_irq_vars.o)
                                0x102 (size before relaxing)
 .debug_str     0x000089c2       0x4a ../demo_board_NiosIIf_bsp//libhal_bsp.a(alt_tick.o)
                                0x205 (size before relaxing)
 .debug_str     0x00008a0c       0x3b ../demo_board_NiosIIf_bsp//libhal_bsp.a(altera_nios2_qsys_irq.o)
                                0x10f (size before relaxing)
 .debug_str     0x00008a47       0x93 ../demo_board_NiosIIf_bsp//libhal_bsp.a(altera_avalon_cfi_flash_amd.o)
                                0x3e2 (size before relaxing)
 .debug_str     0x00008ada       0x80 ../demo_board_NiosIIf_bsp//libhal_bsp.a(altera_avalon_cfi_flash_intel.o)
                                0x3df (size before relaxing)
 .debug_str     0x00008b5a       0x2c ../demo_board_NiosIIf_bsp//libhal_bsp.a(alt_icache_flush.o)
                                0x10e (size before relaxing)
 .debug_str     0x00008b86       0x27 ../demo_board_NiosIIf_bsp//libhal_bsp.a(alt_usleep.o)
                                 0xfb (size before relaxing)
 .debug_str     0x00008bad       0x42 ../demo_board_NiosIIf_bsp//libhal_bsp.a(alt_busy_sleep.o)
                                0x11e (size before relaxing)
 .debug_str     0x00008bef       0x3b /package/eda/altera/altera13.0sp1/nios2eds/bin/gnu/H-i686-pc-linux-gnu/bin/../lib/gcc/nios2-elf/4.1.2/../../../../nios2-elf/lib/libc.a(lib_a-atexit.o)
                                0x1c4 (size before relaxing)
 .debug_str     0x00008c2a       0x42 /package/eda/altera/altera13.0sp1/nios2eds/bin/gnu/H-i686-pc-linux-gnu/bin/../lib/gcc/nios2-elf/4.1.2/../../../../nios2-elf/lib/libc.a(lib_a-memcmp.o)
                                0x16f (size before relaxing)
 .debug_str     0x00008c6c       0x51 /package/eda/altera/altera13.0sp1/nios2eds/bin/gnu/H-i686-pc-linux-gnu/bin/../lib/gcc/nios2-elf/4.1.2/../../../../nios2-elf/lib/libc.a(lib_a-__atexit.o)
                                0x529 (size before relaxing)
 .debug_str     0x00008cbd        0xe /package/eda/altera/altera13.0sp1/nios2eds/bin/gnu/H-i686-pc-linux-gnu/bin/../lib/gcc/nios2-elf/4.1.2/libgcc.a(_floatundidf.o)
                                0x171 (size before relaxing)

.debug_loc      0x00000000    0x3e767
 *(.debug_loc)
 .debug_loc     0x00000000       0x5a obj/default/cdjpeg.o
 .debug_loc     0x0000005a      0x5cc obj/default/djpeg.o
 .debug_loc     0x00000626      0x30c obj/default/jcapimin.o
 .debug_loc     0x00000932      0x22f obj/default/jcapistd.o
 .debug_loc     0x00000b61      0x975 obj/default/jccoefct.o
 .debug_loc     0x000014d6      0x602 obj/default/jccolor.o
 .debug_loc     0x00001ad8      0x50e obj/default/jcdctmgr.o
 .debug_loc     0x00001fe6     0x19dc obj/default/jchuff.o
 .debug_loc     0x000039c2       0x53 obj/default/jcinit.o
 .debug_loc     0x00003a15      0x2b9 obj/default/jcmainct.o
 .debug_loc     0x00003cce     0x1dbd obj/default/jcmarker.o
 .debug_loc     0x00005a8b      0xbc2 obj/default/jcmaster.o
 .debug_loc     0x0000664d       0xf4 obj/default/jcomapi.o
 .debug_loc     0x00006741      0xc44 obj/default/jcparam.o
 .debug_loc     0x00007385     0xa055 obj/default/jcphuff.o
 .debug_loc     0x000113da      0x6bc obj/default/jcprepct.o
 .debug_loc     0x00011a96      0xeac obj/default/jcsample.o
 .debug_loc     0x00012942      0x4c7 obj/default/jctrans.o
 .debug_loc     0x00012e09      0x490 obj/default/jdapimin.o
 .debug_loc     0x00013299      0x46c obj/default/jdapistd.o
 .debug_loc     0x00013705      0x1ed obj/default/jdatadst.o
 .debug_loc     0x000138f2      0x1c6 obj/default/jdatasrc.o
 .debug_loc     0x00013ab8      0xff6 obj/default/jdcoefct.o
 .debug_loc     0x00014aae      0x5c1 obj/default/jdcolor.o
 .debug_loc     0x0001506f      0x147 obj/default/jddctmgr.o
 .debug_loc     0x000151b6     0x21a6 obj/default/jdhuff.o
 .debug_loc     0x0001735c      0x36f obj/default/jdinput.o
 .debug_loc     0x000176cb      0x759 obj/default/jdmainct.o
 .debug_loc     0x00017e24     0x3002 obj/default/jdmarker.o
 .debug_loc     0x0001ae26      0x352 obj/default/jdmaster.o
 .debug_loc     0x0001b178      0x77c obj/default/jdmerge.o
 .debug_loc     0x0001b8f4     0x1246 obj/default/jdphuff.o
 .debug_loc     0x0001cb3a      0x526 obj/default/jdpostct.o
 .debug_loc     0x0001d060      0xa0f obj/default/jdsample.o
 .debug_loc     0x0001da6f      0x134 obj/default/jdtrans.o
 .debug_loc     0x0001dba3      0x206 obj/default/jerror.o
 .debug_loc     0x0001dda9     0x1ced obj/default/jfdctflt.o
 .debug_loc     0x0001fa96      0x295 obj/default/jfdctfst.o
 .debug_loc     0x0001fd2b      0x282 obj/default/jfdctint.o
 .debug_loc     0x0001ffad      0x551 obj/default/jidctflt.o
 .debug_loc     0x000204fe      0x4ae obj/default/jidctfst.o
 .debug_loc     0x000209ac      0x4a7 obj/default/jidctint.o
 .debug_loc     0x00020e53      0x6d5 obj/default/jidctred.o
 .debug_loc     0x00021528     0x1caa obj/default/jmemmgr.o
 .debug_loc     0x000231d2       0xf7 obj/default/jmemnobs.o
 .debug_loc     0x000232c9     0x1148 obj/default/jquant1.o
 .debug_loc     0x00024411     0x1a89 obj/default/jquant2.o
 .debug_loc     0x00025e9a      0x27d obj/default/jutils.o
 .debug_loc     0x00026117      0x773 obj/default/rdcolmap.o
 .debug_loc     0x0002688a      0x77c obj/default/wrbmp.o
 .debug_loc     0x00027006      0x569 obj/default/wrgif.o
 .debug_loc     0x0002756f      0x3ef obj/default/wrppm.o
 .debug_loc     0x0002795e      0x39c obj/default/wrtarga.o
 .debug_loc     0x00027cfa      0x289 /package/eda/altera/altera13.0sp1/nios2eds/bin/gnu/H-i686-pc-linux-gnu/bin/../lib/gcc/nios2-elf/4.1.2/libgcc.a(_addsub_sf.o)
 .debug_loc     0x00027f83      0x103 /package/eda/altera/altera13.0sp1/nios2eds/bin/gnu/H-i686-pc-linux-gnu/bin/../lib/gcc/nios2-elf/4.1.2/libgcc.a(_mul_sf.o)
 .debug_loc     0x00028086       0x8f /package/eda/altera/altera13.0sp1/nios2eds/bin/gnu/H-i686-pc-linux-gnu/bin/../lib/gcc/nios2-elf/4.1.2/libgcc.a(_si_to_sf.o)
 .debug_loc     0x00028115       0x66 /package/eda/altera/altera13.0sp1/nios2eds/bin/gnu/H-i686-pc-linux-gnu/bin/../lib/gcc/nios2-elf/4.1.2/libgcc.a(_sf_to_si.o)
 .debug_loc     0x0002817b      0x3b4 /package/eda/altera/altera13.0sp1/nios2eds/bin/gnu/H-i686-pc-linux-gnu/bin/../lib/gcc/nios2-elf/4.1.2/libgcc.a(_mul_df.o)
 .debug_loc     0x0002852f      0x1df /package/eda/altera/altera13.0sp1/nios2eds/bin/gnu/H-i686-pc-linux-gnu/bin/../lib/gcc/nios2-elf/4.1.2/libgcc.a(_div_df.o)
 .debug_loc     0x0002870e       0x6a /package/eda/altera/altera13.0sp1/nios2eds/bin/gnu/H-i686-pc-linux-gnu/bin/../lib/gcc/nios2-elf/4.1.2/libgcc.a(_df_to_sf.o)
 .debug_loc     0x00028778       0x5b /package/eda/altera/altera13.0sp1/nios2eds/bin/gnu/H-i686-pc-linux-gnu/bin/../lib/gcc/nios2-elf/4.1.2/libgcc.a(_usi_to_df.o)
 .debug_loc     0x000287d3      0x1d2 /package/eda/altera/altera13.0sp1/nios2eds/bin/gnu/H-i686-pc-linux-gnu/bin/../lib/gcc/nios2-elf/4.1.2/libgcc.a(lib2-divmod.o)
 .debug_loc     0x000289a5       0xc4 /package/eda/altera/altera13.0sp1/nios2eds/bin/gnu/H-i686-pc-linux-gnu/bin/../lib/gcc/nios2-elf/4.1.2/libgcc.a(_muldi3.o)
 .debug_loc     0x00028a69       0x1e /package/eda/altera/altera13.0sp1/nios2eds/bin/gnu/H-i686-pc-linux-gnu/bin/../lib/gcc/nios2-elf/4.1.2/libgcc.a(_clzsi2.o)
 .debug_loc     0x00028a87       0xf9 /package/eda/altera/altera13.0sp1/nios2eds/bin/gnu/H-i686-pc-linux-gnu/bin/../lib/gcc/nios2-elf/4.1.2/libgcc.a(_pack_sf.o)
 .debug_loc     0x00028b80       0x31 /package/eda/altera/altera13.0sp1/nios2eds/bin/gnu/H-i686-pc-linux-gnu/bin/../lib/gcc/nios2-elf/4.1.2/libgcc.a(_unpack_sf.o)
 .debug_loc     0x00028bb1       0x6b /package/eda/altera/altera13.0sp1/nios2eds/bin/gnu/H-i686-pc-linux-gnu/bin/../lib/gcc/nios2-elf/4.1.2/libgcc.a(_make_sf.o)
 .debug_loc     0x00028c1c      0x184 /package/eda/altera/altera13.0sp1/nios2eds/bin/gnu/H-i686-pc-linux-gnu/bin/../lib/gcc/nios2-elf/4.1.2/libgcc.a(_pack_df.o)
 .debug_loc     0x00028da0       0xe5 /package/eda/altera/altera13.0sp1/nios2eds/bin/gnu/H-i686-pc-linux-gnu/bin/../lib/gcc/nios2-elf/4.1.2/libgcc.a(_unpack_df.o)
 .debug_loc     0x00028e85       0x3d /package/eda/altera/altera13.0sp1/nios2eds/bin/gnu/H-i686-pc-linux-gnu/bin/../lib/gcc/nios2-elf/4.1.2/../../../../nios2-elf/lib/libc.a(lib_a-exit.o)
 .debug_loc     0x00028ec2       0xe4 /package/eda/altera/altera13.0sp1/nios2eds/bin/gnu/H-i686-pc-linux-gnu/bin/../lib/gcc/nios2-elf/4.1.2/../../../../nios2-elf/lib/libc.a(lib_a-fclose.o)
 .debug_loc     0x00028fa6      0x1f6 /package/eda/altera/altera13.0sp1/nios2eds/bin/gnu/H-i686-pc-linux-gnu/bin/../lib/gcc/nios2-elf/4.1.2/../../../../nios2-elf/lib/libc.a(lib_a-fflush.o)
 .debug_loc     0x0002919c      0x19f /package/eda/altera/altera13.0sp1/nios2eds/bin/gnu/H-i686-pc-linux-gnu/bin/../lib/gcc/nios2-elf/4.1.2/../../../../nios2-elf/lib/libc.a(lib_a-findfp.o)
 .debug_loc     0x0002933b      0x1c9 /package/eda/altera/altera13.0sp1/nios2eds/bin/gnu/H-i686-pc-linux-gnu/bin/../lib/gcc/nios2-elf/4.1.2/../../../../nios2-elf/lib/libc.a(lib_a-fopen.o)
 .debug_loc     0x00029504       0xf1 /package/eda/altera/altera13.0sp1/nios2eds/bin/gnu/H-i686-pc-linux-gnu/bin/../lib/gcc/nios2-elf/4.1.2/../../../../nios2-elf/lib/libc.a(lib_a-fprintf.o)
 .debug_loc     0x000295f5      0x14d /package/eda/altera/altera13.0sp1/nios2eds/bin/gnu/H-i686-pc-linux-gnu/bin/../lib/gcc/nios2-elf/4.1.2/../../../../nios2-elf/lib/libc.a(lib_a-fputc.o)
 .debug_loc     0x00029742      0x303 /package/eda/altera/altera13.0sp1/nios2eds/bin/gnu/H-i686-pc-linux-gnu/bin/../lib/gcc/nios2-elf/4.1.2/../../../../nios2-elf/lib/libc.a(lib_a-fread.o)
 .debug_loc     0x00029a45      0x4a7 /package/eda/altera/altera13.0sp1/nios2eds/bin/gnu/H-i686-pc-linux-gnu/bin/../lib/gcc/nios2-elf/4.1.2/../../../../nios2-elf/lib/libc.a(lib_a-freer.o)
 .debug_loc     0x00029eec      0x348 /package/eda/altera/altera13.0sp1/nios2eds/bin/gnu/H-i686-pc-linux-gnu/bin/../lib/gcc/nios2-elf/4.1.2/../../../../nios2-elf/lib/libc.a(lib_a-fseek.o)
 .debug_loc     0x0002a234       0x79 /package/eda/altera/altera13.0sp1/nios2eds/bin/gnu/H-i686-pc-linux-gnu/bin/../lib/gcc/nios2-elf/4.1.2/../../../../nios2-elf/lib/libc.a(lib_a-fstatr.o)
 .debug_loc     0x0002a2ad      0x1d2 /package/eda/altera/altera13.0sp1/nios2eds/bin/gnu/H-i686-pc-linux-gnu/bin/../lib/gcc/nios2-elf/4.1.2/../../../../nios2-elf/lib/libc.a(lib_a-fwalk.o)
 .debug_loc     0x0002a47f      0x18e /package/eda/altera/altera13.0sp1/nios2eds/bin/gnu/H-i686-pc-linux-gnu/bin/../lib/gcc/nios2-elf/4.1.2/../../../../nios2-elf/lib/libc.a(lib_a-fwrite.o)
 .debug_loc     0x0002a60d      0x10b /package/eda/altera/altera13.0sp1/nios2eds/bin/gnu/H-i686-pc-linux-gnu/bin/../lib/gcc/nios2-elf/4.1.2/../../../../nios2-elf/lib/libc.a(lib_a-getc.o)
 .debug_loc     0x0002a718       0x79 /package/eda/altera/altera13.0sp1/nios2eds/bin/gnu/H-i686-pc-linux-gnu/bin/../lib/gcc/nios2-elf/4.1.2/../../../../nios2-elf/lib/libc.a(lib_a-getenv.o)
 .debug_loc     0x0002a791      0x144 /package/eda/altera/altera13.0sp1/nios2eds/bin/gnu/H-i686-pc-linux-gnu/bin/../lib/gcc/nios2-elf/4.1.2/../../../../nios2-elf/lib/libc.a(lib_a-getenv_r.o)
 .debug_loc     0x0002a8d5      0x11c /package/eda/altera/altera13.0sp1/nios2eds/bin/gnu/H-i686-pc-linux-gnu/bin/../lib/gcc/nios2-elf/4.1.2/../../../../nios2-elf/lib/libc.a(lib_a-makebuf.o)
 .debug_loc     0x0002a9f1       0x3c /package/eda/altera/altera13.0sp1/nios2eds/bin/gnu/H-i686-pc-linux-gnu/bin/../lib/gcc/nios2-elf/4.1.2/../../../../nios2-elf/lib/libc.a(lib_a-malloc.o)
 .debug_loc     0x0002aa2d      0xaeb /package/eda/altera/altera13.0sp1/nios2eds/bin/gnu/H-i686-pc-linux-gnu/bin/../lib/gcc/nios2-elf/4.1.2/../../../../nios2-elf/lib/libc.a(lib_a-mallocr.o)
 .debug_loc     0x0002b518       0xca /package/eda/altera/altera13.0sp1/nios2eds/bin/gnu/H-i686-pc-linux-gnu/bin/../lib/gcc/nios2-elf/4.1.2/../../../../nios2-elf/lib/libc.a(lib_a-memcpy.o)
 .debug_loc     0x0002b5e2       0xa1 /package/eda/altera/altera13.0sp1/nios2eds/bin/gnu/H-i686-pc-linux-gnu/bin/../lib/gcc/nios2-elf/4.1.2/../../../../nios2-elf/lib/libc.a(lib_a-memset.o)
 .debug_loc     0x0002b683       0x97 /package/eda/altera/altera13.0sp1/nios2eds/bin/gnu/H-i686-pc-linux-gnu/bin/../lib/gcc/nios2-elf/4.1.2/../../../../nios2-elf/lib/libc.a(lib_a-openr.o)
 .debug_loc     0x0002b71a       0xcb /package/eda/altera/altera13.0sp1/nios2eds/bin/gnu/H-i686-pc-linux-gnu/bin/../lib/gcc/nios2-elf/4.1.2/../../../../nios2-elf/lib/libc.a(lib_a-printf.o)
 .debug_loc     0x0002b7e5      0x20d /package/eda/altera/altera13.0sp1/nios2eds/bin/gnu/H-i686-pc-linux-gnu/bin/../lib/gcc/nios2-elf/4.1.2/../../../../nios2-elf/lib/libc.a(lib_a-putc.o)
 .debug_loc     0x0002b9f2       0xa2 /package/eda/altera/altera13.0sp1/nios2eds/bin/gnu/H-i686-pc-linux-gnu/bin/../lib/gcc/nios2-elf/4.1.2/../../../../nios2-elf/lib/libc.a(lib_a-puts.o)
 .debug_loc     0x0002ba94       0xd1 /package/eda/altera/altera13.0sp1/nios2eds/bin/gnu/H-i686-pc-linux-gnu/bin/../lib/gcc/nios2-elf/4.1.2/../../../../nios2-elf/lib/libc.a(lib_a-refill.o)
 .debug_loc     0x0002bb65       0x6e /package/eda/altera/altera13.0sp1/nios2eds/bin/gnu/H-i686-pc-linux-gnu/bin/../lib/gcc/nios2-elf/4.1.2/../../../../nios2-elf/lib/libc.a(lib_a-rget.o)
 .debug_loc     0x0002bbd3       0x5b /package/eda/altera/altera13.0sp1/nios2eds/bin/gnu/H-i686-pc-linux-gnu/bin/../lib/gcc/nios2-elf/4.1.2/../../../../nios2-elf/lib/libc.a(lib_a-sbrkr.o)
 .debug_loc     0x0002bc2e       0xc0 /package/eda/altera/altera13.0sp1/nios2eds/bin/gnu/H-i686-pc-linux-gnu/bin/../lib/gcc/nios2-elf/4.1.2/../../../../nios2-elf/lib/libc.a(lib_a-sprintf.o)
 .debug_loc     0x0002bcee       0xc0 /package/eda/altera/altera13.0sp1/nios2eds/bin/gnu/H-i686-pc-linux-gnu/bin/../lib/gcc/nios2-elf/4.1.2/../../../../nios2-elf/lib/libc.a(lib_a-sscanf.o)
 .debug_loc     0x0002bdae      0x21f /package/eda/altera/altera13.0sp1/nios2eds/bin/gnu/H-i686-pc-linux-gnu/bin/../lib/gcc/nios2-elf/4.1.2/../../../../nios2-elf/lib/libc.a(lib_a-stdio.o)
 .debug_loc     0x0002bfcd       0x1e /package/eda/altera/altera13.0sp1/nios2eds/bin/gnu/H-i686-pc-linux-gnu/bin/../lib/gcc/nios2-elf/4.1.2/../../../../nios2-elf/lib/libc.a(lib_a-strdup.o)
 .debug_loc     0x0002bfeb       0xe4 /package/eda/altera/altera13.0sp1/nios2eds/bin/gnu/H-i686-pc-linux-gnu/bin/../lib/gcc/nios2-elf/4.1.2/../../../../nios2-elf/lib/libc.a(lib_a-strdup_r.o)
 .debug_loc     0x0002c0cf       0x3c /package/eda/altera/altera13.0sp1/nios2eds/bin/gnu/H-i686-pc-linux-gnu/bin/../lib/gcc/nios2-elf/4.1.2/../../../../nios2-elf/lib/libc.a(lib_a-strlen.o)
 .debug_loc     0x0002c10b       0x78 /package/eda/altera/altera13.0sp1/nios2eds/bin/gnu/H-i686-pc-linux-gnu/bin/../lib/gcc/nios2-elf/4.1.2/../../../../nios2-elf/lib/libc.a(lib_a-strncmp.o)
 .debug_loc     0x0002c183     0x1e0d /package/eda/altera/altera13.0sp1/nios2eds/bin/gnu/H-i686-pc-linux-gnu/bin/../lib/gcc/nios2-elf/4.1.2/../../../../nios2-elf/lib/libc.a(lib_a-vfprintf.o)
 .debug_loc     0x0002df90     0x13ff /package/eda/altera/altera13.0sp1/nios2eds/bin/gnu/H-i686-pc-linux-gnu/bin/../lib/gcc/nios2-elf/4.1.2/../../../../nios2-elf/lib/libc.a(lib_a-vfscanf.o)
 .debug_loc     0x0002f38f      0x157 /package/eda/altera/altera13.0sp1/nios2eds/bin/gnu/H-i686-pc-linux-gnu/bin/../lib/gcc/nios2-elf/4.1.2/../../../../nios2-elf/lib/libc.a(lib_a-wbuf.o)
 .debug_loc     0x0002f4e6       0x97 /package/eda/altera/altera13.0sp1/nios2eds/bin/gnu/H-i686-pc-linux-gnu/bin/../lib/gcc/nios2-elf/4.1.2/../../../../nios2-elf/lib/libc.a(lib_a-writer.o)
 .debug_loc     0x0002f57d       0x7c /package/eda/altera/altera13.0sp1/nios2eds/bin/gnu/H-i686-pc-linux-gnu/bin/../lib/gcc/nios2-elf/4.1.2/../../../../nios2-elf/lib/libc.a(lib_a-wsetup.o)
 .debug_loc     0x0002f5f9      0x1cb /package/eda/altera/altera13.0sp1/nios2eds/bin/gnu/H-i686-pc-linux-gnu/bin/../lib/gcc/nios2-elf/4.1.2/../../../../nios2-elf/lib/libc.a(lib_a-__call_atexit.o)
 .debug_loc     0x0002f7c4       0x5b /package/eda/altera/altera13.0sp1/nios2eds/bin/gnu/H-i686-pc-linux-gnu/bin/../lib/gcc/nios2-elf/4.1.2/../../../../nios2-elf/lib/libc.a(lib_a-closer.o)
 .debug_loc     0x0002f81f     0x1dfa /package/eda/altera/altera13.0sp1/nios2eds/bin/gnu/H-i686-pc-linux-gnu/bin/../lib/gcc/nios2-elf/4.1.2/../../../../nios2-elf/lib/libc.a(lib_a-dtoa.o)
 .debug_loc     0x00031619       0xa4 /package/eda/altera/altera13.0sp1/nios2eds/bin/gnu/H-i686-pc-linux-gnu/bin/../lib/gcc/nios2-elf/4.1.2/../../../../nios2-elf/lib/libc.a(lib_a-flags.o)
 .debug_loc     0x000316bd      0x4e4 /package/eda/altera/altera13.0sp1/nios2eds/bin/gnu/H-i686-pc-linux-gnu/bin/../lib/gcc/nios2-elf/4.1.2/../../../../nios2-elf/lib/libc.a(lib_a-fvwrite.o)
 .debug_loc     0x00031ba1       0x5b /package/eda/altera/altera13.0sp1/nios2eds/bin/gnu/H-i686-pc-linux-gnu/bin/../lib/gcc/nios2-elf/4.1.2/../../../../nios2-elf/lib/libc.a(lib_a-isattyr.o)
 .debug_loc     0x00031bfc       0xe1 /package/eda/altera/altera13.0sp1/nios2eds/bin/gnu/H-i686-pc-linux-gnu/bin/../lib/gcc/nios2-elf/4.1.2/../../../../nios2-elf/lib/libc.a(lib_a-locale.o)
 .debug_loc     0x00031cdd       0x97 /package/eda/altera/altera13.0sp1/nios2eds/bin/gnu/H-i686-pc-linux-gnu/bin/../lib/gcc/nios2-elf/4.1.2/../../../../nios2-elf/lib/libc.a(lib_a-lseekr.o)
 .debug_loc     0x00031d74      0x182 /package/eda/altera/altera13.0sp1/nios2eds/bin/gnu/H-i686-pc-linux-gnu/bin/../lib/gcc/nios2-elf/4.1.2/../../../../nios2-elf/lib/libc.a(lib_a-mbrtowc.o)
 .debug_loc     0x00031ef6       0x1f /package/eda/altera/altera13.0sp1/nios2eds/bin/gnu/H-i686-pc-linux-gnu/bin/../lib/gcc/nios2-elf/4.1.2/../../../../nios2-elf/lib/libc.a(lib_a-mbtowc_r.o)
 .debug_loc     0x00031f15      0x106 /package/eda/altera/altera13.0sp1/nios2eds/bin/gnu/H-i686-pc-linux-gnu/bin/../lib/gcc/nios2-elf/4.1.2/../../../../nios2-elf/lib/libc.a(lib_a-memchr.o)
 .debug_loc     0x0003201b      0x117 /package/eda/altera/altera13.0sp1/nios2eds/bin/gnu/H-i686-pc-linux-gnu/bin/../lib/gcc/nios2-elf/4.1.2/../../../../nios2-elf/lib/libc.a(lib_a-memmove.o)
 .debug_loc     0x00032132     0x14d6 /package/eda/altera/altera13.0sp1/nios2eds/bin/gnu/H-i686-pc-linux-gnu/bin/../lib/gcc/nios2-elf/4.1.2/../../../../nios2-elf/lib/libc.a(lib_a-mprec.o)
 .debug_loc     0x00033608       0x97 /package/eda/altera/altera13.0sp1/nios2eds/bin/gnu/H-i686-pc-linux-gnu/bin/../lib/gcc/nios2-elf/4.1.2/../../../../nios2-elf/lib/libc.a(lib_a-readr.o)
 .debug_loc     0x0003369f      0x8c0 /package/eda/altera/altera13.0sp1/nios2eds/bin/gnu/H-i686-pc-linux-gnu/bin/../lib/gcc/nios2-elf/4.1.2/../../../../nios2-elf/lib/libc.a(lib_a-reallocr.o)
 .debug_loc     0x00033f5f       0x36 /package/eda/altera/altera13.0sp1/nios2eds/bin/gnu/H-i686-pc-linux-gnu/bin/../lib/gcc/nios2-elf/4.1.2/../../../../nios2-elf/lib/libc.a(lib_a-s_isinfd.o)
 .debug_loc     0x00033f95       0x18 /package/eda/altera/altera13.0sp1/nios2eds/bin/gnu/H-i686-pc-linux-gnu/bin/../lib/gcc/nios2-elf/4.1.2/../../../../nios2-elf/lib/libc.a(lib_a-s_isnand.o)
 .debug_loc     0x00033fad       0xdb /package/eda/altera/altera13.0sp1/nios2eds/bin/gnu/H-i686-pc-linux-gnu/bin/../lib/gcc/nios2-elf/4.1.2/../../../../nios2-elf/lib/libc.a(lib_a-sccl.o)
 .debug_loc     0x00034088       0x65 /package/eda/altera/altera13.0sp1/nios2eds/bin/gnu/H-i686-pc-linux-gnu/bin/../lib/gcc/nios2-elf/4.1.2/../../../../nios2-elf/lib/libc.a(lib_a-strcmp.o)
 .debug_loc     0x000340ed     0x243e /package/eda/altera/altera13.0sp1/nios2eds/bin/gnu/H-i686-pc-linux-gnu/bin/../lib/gcc/nios2-elf/4.1.2/../../../../nios2-elf/lib/libc.a(lib_a-strtod.o)
 .debug_loc     0x0003652b      0x346 /package/eda/altera/altera13.0sp1/nios2eds/bin/gnu/H-i686-pc-linux-gnu/bin/../lib/gcc/nios2-elf/4.1.2/../../../../nios2-elf/lib/libc.a(lib_a-strtol.o)
 .debug_loc     0x00036871      0x30f /package/eda/altera/altera13.0sp1/nios2eds/bin/gnu/H-i686-pc-linux-gnu/bin/../lib/gcc/nios2-elf/4.1.2/../../../../nios2-elf/lib/libc.a(lib_a-strtoll_r.o)
 .debug_loc     0x00036b80      0x263 /package/eda/altera/altera13.0sp1/nios2eds/bin/gnu/H-i686-pc-linux-gnu/bin/../lib/gcc/nios2-elf/4.1.2/../../../../nios2-elf/lib/libc.a(lib_a-strtoul.o)
 .debug_loc     0x00036de3      0x282 /package/eda/altera/altera13.0sp1/nios2eds/bin/gnu/H-i686-pc-linux-gnu/bin/../lib/gcc/nios2-elf/4.1.2/../../../../nios2-elf/lib/libc.a(lib_a-strtoull_r.o)
 .debug_loc     0x00037065      0x207 /package/eda/altera/altera13.0sp1/nios2eds/bin/gnu/H-i686-pc-linux-gnu/bin/../lib/gcc/nios2-elf/4.1.2/../../../../nios2-elf/lib/libc.a(lib_a-ungetc.o)
 .debug_loc     0x0003726c       0xe9 /package/eda/altera/altera13.0sp1/nios2eds/bin/gnu/H-i686-pc-linux-gnu/bin/../lib/gcc/nios2-elf/4.1.2/../../../../nios2-elf/lib/libc.a(lib_a-callocr.o)
 .debug_loc     0x00037355      0xad2 /package/eda/altera/altera13.0sp1/nios2eds/bin/gnu/H-i686-pc-linux-gnu/bin/../lib/gcc/nios2-elf/4.1.2/../../../../nios2-elf/lib/libc.a(lib_a-gdtoa-gethex.o)
 .debug_loc     0x00037e27      0x2a6 /package/eda/altera/altera13.0sp1/nios2eds/bin/gnu/H-i686-pc-linux-gnu/bin/../lib/gcc/nios2-elf/4.1.2/../../../../nios2-elf/lib/libc.a(lib_a-gdtoa-hexnan.o)
 .debug_loc     0x000380cd       0x87 /package/eda/altera/altera13.0sp1/nios2eds/bin/gnu/H-i686-pc-linux-gnu/bin/../lib/gcc/nios2-elf/4.1.2/libgcc.a(_fixunsdfsi.o)
 .debug_loc     0x00038154      0xc12 /package/eda/altera/altera13.0sp1/nios2eds/bin/gnu/H-i686-pc-linux-gnu/bin/../lib/gcc/nios2-elf/4.1.2/libgcc.a(_udivdi3.o)
 .debug_loc     0x00038d66      0xc26 /package/eda/altera/altera13.0sp1/nios2eds/bin/gnu/H-i686-pc-linux-gnu/bin/../lib/gcc/nios2-elf/4.1.2/libgcc.a(_umoddi3.o)
 .debug_loc     0x0003998c       0x45 /package/eda/altera/altera13.0sp1/nios2eds/bin/gnu/H-i686-pc-linux-gnu/bin/../lib/gcc/nios2-elf/4.1.2/libgcc.a(_ne_sf.o)
 .debug_loc     0x000399d1       0x45 /package/eda/altera/altera13.0sp1/nios2eds/bin/gnu/H-i686-pc-linux-gnu/bin/../lib/gcc/nios2-elf/4.1.2/libgcc.a(_gt_sf.o)
 .debug_loc     0x00039a16       0x45 /package/eda/altera/altera13.0sp1/nios2eds/bin/gnu/H-i686-pc-linux-gnu/bin/../lib/gcc/nios2-elf/4.1.2/libgcc.a(_lt_sf.o)
 .debug_loc     0x00039a5b      0x47a /package/eda/altera/altera13.0sp1/nios2eds/bin/gnu/H-i686-pc-linux-gnu/bin/../lib/gcc/nios2-elf/4.1.2/libgcc.a(_addsub_df.o)
 .debug_loc     0x00039ed5       0x70 /package/eda/altera/altera13.0sp1/nios2eds/bin/gnu/H-i686-pc-linux-gnu/bin/../lib/gcc/nios2-elf/4.1.2/libgcc.a(_eq_df.o)
 .debug_loc     0x00039f45       0x70 /package/eda/altera/altera13.0sp1/nios2eds/bin/gnu/H-i686-pc-linux-gnu/bin/../lib/gcc/nios2-elf/4.1.2/libgcc.a(_ne_df.o)
 .debug_loc     0x00039fb5       0x70 /package/eda/altera/altera13.0sp1/nios2eds/bin/gnu/H-i686-pc-linux-gnu/bin/../lib/gcc/nios2-elf/4.1.2/libgcc.a(_gt_df.o)
 .debug_loc     0x0003a025       0x70 /package/eda/altera/altera13.0sp1/nios2eds/bin/gnu/H-i686-pc-linux-gnu/bin/../lib/gcc/nios2-elf/4.1.2/libgcc.a(_ge_df.o)
 .debug_loc     0x0003a095       0x70 /package/eda/altera/altera13.0sp1/nios2eds/bin/gnu/H-i686-pc-linux-gnu/bin/../lib/gcc/nios2-elf/4.1.2/libgcc.a(_lt_df.o)
 .debug_loc     0x0003a105       0x70 /package/eda/altera/altera13.0sp1/nios2eds/bin/gnu/H-i686-pc-linux-gnu/bin/../lib/gcc/nios2-elf/4.1.2/libgcc.a(_le_df.o)
 .debug_loc     0x0003a175       0x9a /package/eda/altera/altera13.0sp1/nios2eds/bin/gnu/H-i686-pc-linux-gnu/bin/../lib/gcc/nios2-elf/4.1.2/libgcc.a(_si_to_df.o)
 .debug_loc     0x0003a20f       0x8b /package/eda/altera/altera13.0sp1/nios2eds/bin/gnu/H-i686-pc-linux-gnu/bin/../lib/gcc/nios2-elf/4.1.2/libgcc.a(_df_to_si.o)
 .debug_loc     0x0003a29a       0x3c /package/eda/altera/altera13.0sp1/nios2eds/bin/gnu/H-i686-pc-linux-gnu/bin/../lib/gcc/nios2-elf/4.1.2/libgcc.a(_fpcmp_parts_sf.o)
 .debug_loc     0x0003a2d6       0xdc ../demo_board_NiosIIf_bsp//libhal_bsp.a(alt_close.o)
 .debug_loc     0x0003a3b2       0x70 ../demo_board_NiosIIf_bsp//libhal_bsp.a(alt_dcache_flush.o)
 .debug_loc     0x0003a422       0x9a ../demo_board_NiosIIf_bsp//libhal_bsp.a(alt_fstat.o)
 .debug_loc     0x0003a4bc       0x67 ../demo_board_NiosIIf_bsp//libhal_bsp.a(alt_isatty.o)
 .debug_loc     0x0003a523       0xeb ../demo_board_NiosIIf_bsp//libhal_bsp.a(alt_load.o)
 .debug_loc     0x0003a60e       0xf7 ../demo_board_NiosIIf_bsp//libhal_bsp.a(alt_lseek.o)
 .debug_loc     0x0003a705       0x1f ../demo_board_NiosIIf_bsp//libhal_bsp.a(alt_main.o)
 .debug_loc     0x0003a724      0x1f3 ../demo_board_NiosIIf_bsp//libhal_bsp.a(alt_open.o)
 .debug_loc     0x0003a917      0x123 ../demo_board_NiosIIf_bsp//libhal_bsp.a(alt_read.o)
 .debug_loc     0x0003aa3a       0x13 ../demo_board_NiosIIf_bsp//libhal_bsp.a(alt_sbrk.o)
 .debug_loc     0x0003aa4d      0x123 ../demo_board_NiosIIf_bsp//libhal_bsp.a(alt_write.o)
 .debug_loc     0x0003ab70       0x6f ../demo_board_NiosIIf_bsp//libhal_bsp.a(alt_sys_init.o)
 .debug_loc     0x0003abdf      0x624 ../demo_board_NiosIIf_bsp//libhal_bsp.a(altera_avalon_cfi_flash.o)
 .debug_loc     0x0003b203      0x4cf ../demo_board_NiosIIf_bsp//libhal_bsp.a(altera_avalon_cfi_flash_table.o)
 .debug_loc     0x0003b6d2       0xbe ../demo_board_NiosIIf_bsp//libhal_bsp.a(altera_avalon_jtag_uart_fd.o)
 .debug_loc     0x0003b790      0x11a ../demo_board_NiosIIf_bsp//libhal_bsp.a(altera_avalon_jtag_uart_init.o)
 .debug_loc     0x0003b8aa       0x65 ../demo_board_NiosIIf_bsp//libhal_bsp.a(altera_avalon_jtag_uart_ioctl.o)
 .debug_loc     0x0003b90f      0x22b ../demo_board_NiosIIf_bsp//libhal_bsp.a(altera_avalon_jtag_uart_read.o)
 .debug_loc     0x0003bb3a      0x201 ../demo_board_NiosIIf_bsp//libhal_bsp.a(altera_avalon_jtag_uart_write.o)
 .debug_loc     0x0003bd3b       0x4c ../demo_board_NiosIIf_bsp//libhal_bsp.a(altera_avalon_performance_counter.o)
 .debug_loc     0x0003bd87       0xdc ../demo_board_NiosIIf_bsp//libhal_bsp.a(altera_avalon_timer_sc.o)
 .debug_loc     0x0003be63      0x811 ../demo_board_NiosIIf_bsp//libhal_bsp.a(altera_ro_zipfs.o)
 .debug_loc     0x0003c674      0xfee ../demo_board_NiosIIf_bsp//libhal_bsp.a(altera_up_avalon_video_pixel_buffer_dma.o)
 .debug_loc     0x0003d662      0x11d ../demo_board_NiosIIf_bsp//libhal_bsp.a(perf_print_formatted_report.o)
 .debug_loc     0x0003d77f       0x65 ../demo_board_NiosIIf_bsp//libhal_bsp.a(alt_alarm_start.o)
 .debug_loc     0x0003d7e4       0x5b ../demo_board_NiosIIf_bsp//libhal_bsp.a(alt_dev_llist_insert.o)
 .debug_loc     0x0003d83f       0x32 ../demo_board_NiosIIf_bsp//libhal_bsp.a(alt_do_ctors.o)
 .debug_loc     0x0003d871       0x32 ../demo_board_NiosIIf_bsp//libhal_bsp.a(alt_do_dtors.o)
 .debug_loc     0x0003d8a3       0x8f ../demo_board_NiosIIf_bsp//libhal_bsp.a(alt_find_dev.o)
 .debug_loc     0x0003d932       0xb0 ../demo_board_NiosIIf_bsp//libhal_bsp.a(alt_find_file.o)
 .debug_loc     0x0003d9e2       0xb0 ../demo_board_NiosIIf_bsp//libhal_bsp.a(alt_flash_dev.o)
 .debug_loc     0x0003da92       0x29 ../demo_board_NiosIIf_bsp//libhal_bsp.a(alt_get_fd.o)
 .debug_loc     0x0003dabb       0x72 ../demo_board_NiosIIf_bsp//libhal_bsp.a(alt_iic.o)
 .debug_loc     0x0003db2d       0xde ../demo_board_NiosIIf_bsp//libhal_bsp.a(alt_iic_isr_register.o)
 .debug_loc     0x0003dc0b       0xff ../demo_board_NiosIIf_bsp//libhal_bsp.a(alt_io_redirect.o)
 .debug_loc     0x0003dd0a       0x6e ../demo_board_NiosIIf_bsp//libhal_bsp.a(alt_irq_handler.o)
 .debug_loc     0x0003dd78       0xa5 ../demo_board_NiosIIf_bsp//libhal_bsp.a(alt_tick.o)
 .debug_loc     0x0003de1d      0x25b ../demo_board_NiosIIf_bsp//libhal_bsp.a(altera_avalon_cfi_flash_amd.o)
 .debug_loc     0x0003e078      0x3bd ../demo_board_NiosIIf_bsp//libhal_bsp.a(altera_avalon_cfi_flash_intel.o)
 .debug_loc     0x0003e435       0x13 ../demo_board_NiosIIf_bsp//libhal_bsp.a(alt_icache_flush.o)
 .debug_loc     0x0003e448       0x13 ../demo_board_NiosIIf_bsp//libhal_bsp.a(alt_usleep.o)
 .debug_loc     0x0003e45b       0x5b ../demo_board_NiosIIf_bsp//libhal_bsp.a(alt_busy_sleep.o)
 .debug_loc     0x0003e4b6       0x1e /package/eda/altera/altera13.0sp1/nios2eds/bin/gnu/H-i686-pc-linux-gnu/bin/../lib/gcc/nios2-elf/4.1.2/../../../../nios2-elf/lib/libc.a(lib_a-atexit.o)
 .debug_loc     0x0003e4d4      0x114 /package/eda/altera/altera13.0sp1/nios2eds/bin/gnu/H-i686-pc-linux-gnu/bin/../lib/gcc/nios2-elf/4.1.2/../../../../nios2-elf/lib/libc.a(lib_a-memcmp.o)
 .debug_loc     0x0003e5e8      0x120 /package/eda/altera/altera13.0sp1/nios2eds/bin/gnu/H-i686-pc-linux-gnu/bin/../lib/gcc/nios2-elf/4.1.2/../../../../nios2-elf/lib/libc.a(lib_a-__atexit.o)
 .debug_loc     0x0003e708       0x5f /package/eda/altera/altera13.0sp1/nios2eds/bin/gnu/H-i686-pc-linux-gnu/bin/../lib/gcc/nios2-elf/4.1.2/libgcc.a(_floatundidf.o)

.debug_macinfo
 *(.debug_macinfo)

.debug_weaknames
 *(.debug_weaknames)

.debug_funcnames
 *(.debug_funcnames)

.debug_typenames
 *(.debug_typenames)

.debug_varnames
 *(.debug_varnames)

.debug_alt_sim_info
                0x00000000       0x60
 *(.debug_alt_sim_info)
 .debug_alt_sim_info
                0x00000000       0x30 ../demo_board_NiosIIf_bsp//obj/HAL/src/crt0.o
 .debug_alt_sim_info
                0x00000030       0x30 ../demo_board_NiosIIf_bsp//libhal_bsp.a(alt_busy_sleep.o)
                0x10000000                __alt_data_end = 0x10000000
                0x10000000                PROVIDE (__alt_stack_pointer, __alt_data_end)
                0x0804544c                PROVIDE (__alt_stack_limit, __alt_stack_base)
                0x0804544c                PROVIDE (__alt_heap_start, end)
                0x10000000                PROVIDE (__alt_heap_limit, 0x10000000)
OUTPUT(demo_board_NiosIIf.elf elf32-littlenios2)

.debug_ranges   0x00000000     0x91b8
 .debug_ranges  0x00000000       0x20 ../demo_board_NiosIIf_bsp//obj/HAL/src/crt0.o
 .debug_ranges  0x00000020      0x198 obj/default/djpeg.o
 .debug_ranges  0x000001b8      0x160 obj/default/jccoefct.o
 .debug_ranges  0x00000318       0x88 obj/default/jcdctmgr.o
 .debug_ranges  0x000003a0      0x898 obj/default/jchuff.o
 .debug_ranges  0x00000c38     0x1750 obj/default/jcmarker.o
 .debug_ranges  0x00002388      0x1b0 obj/default/jcmaster.o
 .debug_ranges  0x00002538      0x580 obj/default/jcparam.o
 .debug_ranges  0x00002ab8     0x2ef0 obj/default/jcphuff.o
 .debug_ranges  0x000059a8       0xc8 obj/default/jcprepct.o
 .debug_ranges  0x00005a70      0x100 obj/default/jcsample.o
 .debug_ranges  0x00005b70       0xb8 obj/default/jctrans.o
 .debug_ranges  0x00005c28       0x50 obj/default/jdapimin.o
 .debug_ranges  0x00005c78       0x18 obj/default/jdapistd.o
 .debug_ranges  0x00005c90       0x48 obj/default/jdatasrc.o
 .debug_ranges  0x00005cd8       0xe0 obj/default/jdcoefct.o
 .debug_ranges  0x00005db8      0x758 obj/default/jdhuff.o
 .debug_ranges  0x00006510      0x110 obj/default/jdinput.o
 .debug_ranges  0x00006620       0x58 obj/default/jdmainct.o
 .debug_ranges  0x00006678      0x3f8 obj/default/jdmarker.o
 .debug_ranges  0x00006a70       0xa8 obj/default/jdmaster.o
 .debug_ranges  0x00006b18       0x38 obj/default/jdmerge.o
 .debug_ranges  0x00006b50      0x150 obj/default/jdphuff.o
 .debug_ranges  0x00006ca0       0x38 obj/default/jdtrans.o
 .debug_ranges  0x00006cd8       0x18 obj/default/jidctflt.o
 .debug_ranges  0x00006cf0       0x38 obj/default/jidctfst.o
 .debug_ranges  0x00006d28       0x38 obj/default/jidctint.o
 .debug_ranges  0x00006d60       0x68 obj/default/jidctred.o
 .debug_ranges  0x00006dc8      0x168 obj/default/jmemmgr.o
 .debug_ranges  0x00006f30      0x1d8 obj/default/jquant1.o
 .debug_ranges  0x00007108      0x2c8 obj/default/jquant2.o
 .debug_ranges  0x000073d0      0x278 obj/default/rdcolmap.o
 .debug_ranges  0x00007648       0xb0 obj/default/wrbmp.o
 .debug_ranges  0x000076f8      0x2a0 obj/default/wrgif.o
 .debug_ranges  0x00007998       0xb8 obj/default/wrtarga.o
 .debug_ranges  0x00007a50       0x28 /package/eda/altera/altera13.0sp1/nios2eds/bin/gnu/H-i686-pc-linux-gnu/bin/../lib/gcc/nios2-elf/4.1.2/libgcc.a(_addsub_sf.o)
 .debug_ranges  0x00007a78       0x80 /package/eda/altera/altera13.0sp1/nios2eds/bin/gnu/H-i686-pc-linux-gnu/bin/../lib/gcc/nios2-elf/4.1.2/libgcc.a(_mul_sf.o)
 .debug_ranges  0x00007af8       0x18 /package/eda/altera/altera13.0sp1/nios2eds/bin/gnu/H-i686-pc-linux-gnu/bin/../lib/gcc/nios2-elf/4.1.2/libgcc.a(_si_to_sf.o)
 .debug_ranges  0x00007b10       0x88 /package/eda/altera/altera13.0sp1/nios2eds/bin/gnu/H-i686-pc-linux-gnu/bin/../lib/gcc/nios2-elf/4.1.2/libgcc.a(_mul_df.o)
 .debug_ranges  0x00007b98       0x50 /package/eda/altera/altera13.0sp1/nios2eds/bin/gnu/H-i686-pc-linux-gnu/bin/../lib/gcc/nios2-elf/4.1.2/libgcc.a(_div_df.o)
 .debug_ranges  0x00007be8       0x18 /package/eda/altera/altera13.0sp1/nios2eds/bin/gnu/H-i686-pc-linux-gnu/bin/../lib/gcc/nios2-elf/4.1.2/libgcc.a(_usi_to_df.o)
 .debug_ranges  0x00007c00       0x68 /package/eda/altera/altera13.0sp1/nios2eds/bin/gnu/H-i686-pc-linux-gnu/bin/../lib/gcc/nios2-elf/4.1.2/libgcc.a(_muldi3.o)
 .debug_ranges  0x00007c68       0x28 /package/eda/altera/altera13.0sp1/nios2eds/bin/gnu/H-i686-pc-linux-gnu/bin/../lib/gcc/nios2-elf/4.1.2/libgcc.a(_clzsi2.o)
 .debug_ranges  0x00007c90       0x28 /package/eda/altera/altera13.0sp1/nios2eds/bin/gnu/H-i686-pc-linux-gnu/bin/../lib/gcc/nios2-elf/4.1.2/libgcc.a(_pack_df.o)
 .debug_ranges  0x00007cb8       0x20 /package/eda/altera/altera13.0sp1/nios2eds/bin/gnu/H-i686-pc-linux-gnu/bin/../lib/gcc/nios2-elf/4.1.2/../../../../nios2-elf/lib/libc.a(lib_a-fflush.o)
 .debug_ranges  0x00007cd8       0x18 /package/eda/altera/altera13.0sp1/nios2eds/bin/gnu/H-i686-pc-linux-gnu/bin/../lib/gcc/nios2-elf/4.1.2/../../../../nios2-elf/lib/libc.a(lib_a-fread.o)
 .debug_ranges  0x00007cf0       0xa0 /package/eda/altera/altera13.0sp1/nios2eds/bin/gnu/H-i686-pc-linux-gnu/bin/../lib/gcc/nios2-elf/4.1.2/../../../../nios2-elf/lib/libc.a(lib_a-fwalk.o)
 .debug_ranges  0x00007d90       0x70 /package/eda/altera/altera13.0sp1/nios2eds/bin/gnu/H-i686-pc-linux-gnu/bin/../lib/gcc/nios2-elf/4.1.2/../../../../nios2-elf/lib/libc.a(lib_a-mallocr.o)
 .debug_ranges  0x00007e00      0x168 /package/eda/altera/altera13.0sp1/nios2eds/bin/gnu/H-i686-pc-linux-gnu/bin/../lib/gcc/nios2-elf/4.1.2/../../../../nios2-elf/lib/libc.a(lib_a-vfprintf.o)
 .debug_ranges  0x00007f68       0xd0 /package/eda/altera/altera13.0sp1/nios2eds/bin/gnu/H-i686-pc-linux-gnu/bin/../lib/gcc/nios2-elf/4.1.2/../../../../nios2-elf/lib/libc.a(lib_a-vfscanf.o)
 .debug_ranges  0x00008038       0x18 /package/eda/altera/altera13.0sp1/nios2eds/bin/gnu/H-i686-pc-linux-gnu/bin/../lib/gcc/nios2-elf/4.1.2/../../../../nios2-elf/lib/libc.a(lib_a-__call_atexit.o)
 .debug_ranges  0x00008050       0x28 /package/eda/altera/altera13.0sp1/nios2eds/bin/gnu/H-i686-pc-linux-gnu/bin/../lib/gcc/nios2-elf/4.1.2/../../../../nios2-elf/lib/libc.a(lib_a-fvwrite.o)
 .debug_ranges  0x00008078      0x110 /package/eda/altera/altera13.0sp1/nios2eds/bin/gnu/H-i686-pc-linux-gnu/bin/../lib/gcc/nios2-elf/4.1.2/../../../../nios2-elf/lib/libc.a(lib_a-reallocr.o)
 .debug_ranges  0x00008188       0x68 /package/eda/altera/altera13.0sp1/nios2eds/bin/gnu/H-i686-pc-linux-gnu/bin/../lib/gcc/nios2-elf/4.1.2/../../../../nios2-elf/lib/libc.a(lib_a-strtod.o)
 .debug_ranges  0x000081f0       0x38 /package/eda/altera/altera13.0sp1/nios2eds/bin/gnu/H-i686-pc-linux-gnu/bin/../lib/gcc/nios2-elf/4.1.2/../../../../nios2-elf/lib/libc.a(lib_a-callocr.o)
 .debug_ranges  0x00008228       0x50 /package/eda/altera/altera13.0sp1/nios2eds/bin/gnu/H-i686-pc-linux-gnu/bin/../lib/gcc/nios2-elf/4.1.2/../../../../nios2-elf/lib/libc.a(lib_a-gdtoa-gethex.o)
 .debug_ranges  0x00008278      0x188 /package/eda/altera/altera13.0sp1/nios2eds/bin/gnu/H-i686-pc-linux-gnu/bin/../lib/gcc/nios2-elf/4.1.2/libgcc.a(_udivdi3.o)
 .debug_ranges  0x00008400      0x198 /package/eda/altera/altera13.0sp1/nios2eds/bin/gnu/H-i686-pc-linux-gnu/bin/../lib/gcc/nios2-elf/4.1.2/libgcc.a(_umoddi3.o)
 .debug_ranges  0x00008598       0x30 /package/eda/altera/altera13.0sp1/nios2eds/bin/gnu/H-i686-pc-linux-gnu/bin/../lib/gcc/nios2-elf/4.1.2/libgcc.a(_addsub_df.o)
 .debug_ranges  0x000085c8       0x30 ../demo_board_NiosIIf_bsp//libhal_bsp.a(alt_close.o)
 .debug_ranges  0x000085f8       0x48 ../demo_board_NiosIIf_bsp//libhal_bsp.a(alt_load.o)
 .debug_ranges  0x00008640       0x18 ../demo_board_NiosIIf_bsp//libhal_bsp.a(alt_lseek.o)
 .debug_ranges  0x00008658       0x18 ../demo_board_NiosIIf_bsp//libhal_bsp.a(alt_open.o)
 .debug_ranges  0x00008670       0x48 ../demo_board_NiosIIf_bsp//libhal_bsp.a(alt_read.o)
 .debug_ranges  0x000086b8       0x48 ../demo_board_NiosIIf_bsp//libhal_bsp.a(alt_write.o)
 .debug_ranges  0x00008700       0x38 ../demo_board_NiosIIf_bsp//libhal_bsp.a(alt_sys_init.o)
 .debug_ranges  0x00008738       0x18 ../demo_board_NiosIIf_bsp//libhal_bsp.a(altera_avalon_cfi_flash.o)
 .debug_ranges  0x00008750       0xf0 ../demo_board_NiosIIf_bsp//libhal_bsp.a(altera_avalon_cfi_flash_table.o)
 .debug_ranges  0x00008840       0x18 ../demo_board_NiosIIf_bsp//libhal_bsp.a(altera_avalon_jtag_uart_init.o)
 .debug_ranges  0x00008858       0x18 ../demo_board_NiosIIf_bsp//libhal_bsp.a(altera_avalon_jtag_uart_ioctl.o)
 .debug_ranges  0x00008870       0x18 ../demo_board_NiosIIf_bsp//libhal_bsp.a(altera_avalon_jtag_uart_read.o)
 .debug_ranges  0x00008888       0x48 ../demo_board_NiosIIf_bsp//libhal_bsp.a(altera_avalon_jtag_uart_write.o)
 .debug_ranges  0x000088d0       0x18 ../demo_board_NiosIIf_bsp//libhal_bsp.a(altera_avalon_timer_sc.o)
 .debug_ranges  0x000088e8      0x640 ../demo_board_NiosIIf_bsp//libhal_bsp.a(altera_ro_zipfs.o)
 .debug_ranges  0x00008f28      0x100 ../demo_board_NiosIIf_bsp//libhal_bsp.a(altera_up_avalon_video_pixel_buffer_dma.o)
 .debug_ranges  0x00009028       0x18 ../demo_board_NiosIIf_bsp//libhal_bsp.a(alt_dev_llist_insert.o)
 .debug_ranges  0x00009040       0x18 ../demo_board_NiosIIf_bsp//libhal_bsp.a(alt_fs_reg.o)
 .debug_ranges  0x00009058       0x18 ../demo_board_NiosIIf_bsp//libhal_bsp.a(alt_iic_isr_register.o)
 .debug_ranges  0x00009070       0x48 ../demo_board_NiosIIf_bsp//libhal_bsp.a(alt_io_redirect.o)
 .debug_ranges  0x000090b8       0x28 ../demo_board_NiosIIf_bsp//libhal_bsp.a(alt_irq_entry.o)
 .debug_ranges  0x000090e0       0x40 ../demo_board_NiosIIf_bsp//libhal_bsp.a(alt_irq_handler.o)
 .debug_ranges  0x00009120       0x68 ../demo_board_NiosIIf_bsp//libhal_bsp.a(altera_avalon_cfi_flash_amd.o)
 .debug_ranges  0x00009188       0x30 ../demo_board_NiosIIf_bsp//libhal_bsp.a(alt_exception_entry.o)
